                              1 ;--------------------------------------------------------
                              2 ; File Created by SDCC : FreeWare ANSI-C Compiler
                              3 ; Version 2.2.1 Mon Jul 04 15:23:03 2016
                              4 
                              5 ;--------------------------------------------------------
                              6 	.module lcc31800
                              7 	
                              8 ;--------------------------------------------------------
                              9 ; Public variables in this module
                             10 ;--------------------------------------------------------
                             11 	.globl _halfPalette
                             12 	.globl _blackPalette
                             13 	.globl _LaunchFireBall
                             14 	.globl _updateScore
                             15 	.globl _main
                             16 	.globl _collisionCheck
                             17 	.globl _checkCollisions
                             18 	.globl _switchRomBanks
                             19 	.globl _showValue
                             20 	.globl _performStateChange
                             21 	.globl _updateEnemies
                             22 	.globl _updatePlayerFrame
                             23 	.globl _updateBar
                             24 	.globl _endGame
                             25 	.globl _launchFireBall
                             26 	.globl _moveEnemySprites
                             27 	.globl _setProps
                             28 	.globl _instantiatePowerUp
                             29 	.globl _destroyEnemy
                             30 	.globl _updatePlayer
                             31 	.globl _initGame
                             32 	.globl _stopAllSounds
                             33 	.globl _waitFrames
                             34 	.globl _fadeOutBkg
                             35 	.globl _fadeOutSprites
                             36 	.globl _fadeInBkg
                             37 	.globl _fadeInSprites
                             38 	.globl _get_tiles
                             39 	.globl _set_tiles
                             40 	.globl _get_data
                             41 	.globl _set_data
                             42 	.globl _scroll_sprite
                             43 	.globl _move_sprite
                             44 	.globl _get_sprite_prop
                             45 	.globl _set_sprite_prop
                             46 	.globl _get_sprite_tile
                             47 	.globl _set_sprite_tile
                             48 	.globl _get_sprite_data
                             49 	.globl _set_sprite_data
                             50 	.globl _scroll_win
                             51 	.globl _move_win
                             52 	.globl _get_win_tiles
                             53 	.globl _set_win_tiles
                             54 	.globl _set_win_data
                             55 	.globl _scroll_bkg
                             56 	.globl _move_bkg
                             57 	.globl _get_bkg_tiles
                             58 	.globl _set_bkg_tiles
                             59 	.globl _set_bkg_data
                             60 	.globl _hiramcpy
                             61 	.globl _display_off
                             62 	.globl _wait_vbl_done
                             63 	.globl _reset
                             64 	.globl _set_interrupts
                             65 	.globl _disable_interrupts
                             66 	.globl _enable_interrupts
                             67 	.globl _waitpadup
                             68 	.globl _waitpad
                             69 	.globl _joypad
                             70 	.globl _delay
                             71 	.globl _receive_byte
                             72 	.globl _send_byte
                             73 	.globl _get_mode
                             74 	.globl _mode
                             75 	.globl _add_TIM
                             76 	.globl _add_LCD
                             77 	.globl _add_VBL
                             78 	.globl _remove_JOY
                             79 	.globl _remove_SIO
                             80 	.globl _remove_TIM
                             81 	.globl _remove_LCD
                             82 	.globl _remove_VBL
                             83 	.globl _cgb_compatibility
                             84 	.globl _cpu_fast
                             85 	.globl _cpu_slow
                             86 	.globl _set_sprite_palette_entry
                             87 	.globl _set_bkg_palette_entry
                             88 	.globl _set_sprite_palette
                             89 	.globl _set_bkg_palette
                             90 	.globl _sgb_check
                             91 	.globl _arand
                             92 	.globl _initarand
                             93 	.globl _randw
                             94 	.globl _rand
                             95 	.globl _initrand
                             96 	.globl _eRealType
                             97 	.globl _eDamage
                             98 	.globl _eType
                             99 	.globl _eTime
                            100 	.globl _eHP
                            101 	.globl _eState
                            102 	.globl _eFrame
                            103 	.globl _eY
                            104 	.globl _eX
                            105 	.globl _eTargetY
                            106 	.globl _eTargetX
                            107 	.globl _enemiesRemaining
                            108 	.globl _frameCounter
                            109 	.globl _fullRow
                            110 	.globl _barArray
                            111 	.globl _flipX
                            112 	.globl _eHitIndex
                            113 	.globl _MP
                            114 	.globl _HP
                            115 	.globl _iFrames
                            116 	.globl _punchWindDown
                            117 	.globl _myDamage
                            118 	.globl _jumpTime
                            119 	.globl _playerFrame
                            120 	.globl _pState
                            121 	.globl _pY
                            122 	.globl _pX
                            123 	.globl _isMoving
                            124 	.globl _move
                            125 	.globl _scene
                            126 	.globl _newBank
                            127 	.globl _initBank
                            128 	.globl _currentConversation
                            129 	.globl _conversationID
                            130 	.globl _conversationIndex
                            131 	.globl _conversationTime
                            132 	.globl _shadowY
                            133 	.globl _powerUpNoise
                            134 	.globl _powerUpType
                            135 	.globl _powerUpY
                            136 	.globl _powerUpX
                            137 	.globl _menuY
                            138 	.globl _menuX
                            139 	.globl _attackDelay
                            140 	.globl _maxLevel
                            141 	.globl _shakeDir
                            142 	.globl _screenShake
                            143 	.globl _globalY
                            144 	.globl _lastKeys
                            145 	.globl _seed
                            146 	.globl _screen
                            147 	.globl _myDelay
                            148 	.globl _ll
                            149 	.globl _kk
                            150 	.globl _jj
                            151 	.globl _ii
                            152 	.globl _wn
                            153 	.globl _tempVal
                            154 	.globl _n
                            155 	.globl _m
                            156 	.globl _l
                            157 	.globl _k
                            158 	.globl _j
                            159 	.globl _i
                            160 	.globl _level
                            161 	.globl _superAttacks
                            162 	.globl _painNoise
                            163 	.globl _hMode
                            164 	.globl _walkNoise
                            165 	.globl _debugValueArray
                            166 	.globl _fireBallDir
                            167 	.globl _fireBallLife
                            168 	.globl _fireBallY
                            169 	.globl _fireBallX
                            170 ;--------------------------------------------------------
                            171 ; Externals used
                            172 ;--------------------------------------------------------
                            173 	.globl _updateGame
                            174 	.globl _IE_REG
                            175 	.globl _SVBK_REG
                            176 	.globl _OCPD_REG
                            177 	.globl _OCPS_REG
                            178 	.globl _BCPD_REG
                            179 	.globl _BCPS_REG
                            180 	.globl _RP_REG
                            181 	.globl _HDMA5_REG
                            182 	.globl _HDMA4_REG
                            183 	.globl _HDMA3_REG
                            184 	.globl _HDMA2_REG
                            185 	.globl _HDMA1_REG
                            186 	.globl _VBK_REG
                            187 	.globl _KEY1_REG
                            188 	.globl _WX_REG
                            189 	.globl _WY_REG
                            190 	.globl _OBP1_REG
                            191 	.globl _OBP0_REG
                            192 	.globl _BGP_REG
                            193 	.globl _DMA_REG
                            194 	.globl _LYC_REG
                            195 	.globl _LY_REG
                            196 	.globl _SCX_REG
                            197 	.globl _SCY_REG
                            198 	.globl _STAT_REG
                            199 	.globl _LCDC_REG
                            200 	.globl _NR52_REG
                            201 	.globl _NR51_REG
                            202 	.globl _NR50_REG
                            203 	.globl _NR44_REG
                            204 	.globl _NR43_REG
                            205 	.globl _NR42_REG
                            206 	.globl _NR41_REG
                            207 	.globl _NR34_REG
                            208 	.globl _NR33_REG
                            209 	.globl _NR32_REG
                            210 	.globl _NR31_REG
                            211 	.globl _NR30_REG
                            212 	.globl _NR24_REG
                            213 	.globl _NR23_REG
                            214 	.globl _NR22_REG
                            215 	.globl _NR21_REG
                            216 	.globl _NR14_REG
                            217 	.globl _NR13_REG
                            218 	.globl _NR12_REG
                            219 	.globl _NR11_REG
                            220 	.globl _NR10_REG
                            221 	.globl _IF_REG
                            222 	.globl _TAC_REG
                            223 	.globl _TMA_REG
                            224 	.globl _TIMA_REG
                            225 	.globl _DIV_REG
                            226 	.globl _SC_REG
                            227 	.globl _SB_REG
                            228 	.globl _P1_REG
                            229 	.globl __io_out
                            230 	.globl __io_in
                            231 	.globl __io_status
                            232 	.globl _sys_time
                            233 	.globl __cpu
                            234 ;--------------------------------------------------------
                            235 ; special function registers
                            236 ;--------------------------------------------------------
                            237 ;--------------------------------------------------------
                            238 ; special function bits 
                            239 ;--------------------------------------------------------
                            240 ;--------------------------------------------------------
                            241 ; internal ram data
                            242 ;--------------------------------------------------------
                            243 	.area _DATA
   0000                     244 _fireBallX::
   0000                     245 	.ds 1
   0001                     246 _fireBallY::
   0001                     247 	.ds 1
   0002                     248 _fireBallLife::
   0002                     249 	.ds 1
   0003                     250 _fireBallDir::
   0003                     251 	.ds 1
   0004                     252 _debugValueArray::
   0004                     253 	.ds 2
   0006                     254 _walkNoise::
   0006                     255 	.ds 1
   0007                     256 _hMode::
   0007                     257 	.ds 1
   0008                     258 _painNoise::
   0008                     259 	.ds 1
   0009                     260 _superAttacks::
   0009                     261 	.ds 1
   000A                     262 _level::
   000A                     263 	.ds 1
   000B                     264 _i::
   000B                     265 	.ds 1
   000C                     266 _j::
   000C                     267 	.ds 1
   000D                     268 _k::
   000D                     269 	.ds 1
   000E                     270 _l::
   000E                     271 	.ds 1
   000F                     272 _m::
   000F                     273 	.ds 1
   0010                     274 _n::
   0010                     275 	.ds 1
   0011                     276 _tempVal::
   0011                     277 	.ds 1
   0012                     278 _wn::
   0012                     279 	.ds 1
   0013                     280 _ii::
   0013                     281 	.ds 2
   0015                     282 _jj::
   0015                     283 	.ds 2
   0017                     284 _kk::
   0017                     285 	.ds 2
   0019                     286 _ll::
   0019                     287 	.ds 2
   001B                     288 _myDelay::
   001B                     289 	.ds 1
   001C                     290 _screen::
   001C                     291 	.ds 1
   001D                     292 _seed::
   001D                     293 	.ds 1
   001E                     294 _lastKeys::
   001E                     295 	.ds 1
   001F                     296 _globalY::
   001F                     297 	.ds 1
   0020                     298 _screenShake::
   0020                     299 	.ds 1
   0021                     300 _shakeDir::
   0021                     301 	.ds 1
   0022                     302 _maxLevel::
   0022                     303 	.ds 1
   0023                     304 _attackDelay::
   0023                     305 	.ds 1
   0024                     306 _menuX::
   0024                     307 	.ds 1
   0025                     308 _menuY::
   0025                     309 	.ds 1
   0026                     310 _powerUpX::
   0026                     311 	.ds 1
   0027                     312 _powerUpY::
   0027                     313 	.ds 1
   0028                     314 _powerUpType::
   0028                     315 	.ds 1
   0029                     316 _powerUpNoise::
   0029                     317 	.ds 1
   002A                     318 _shadowY::
   002A                     319 	.ds 1
   002B                     320 _conversationTime::
   002B                     321 	.ds 1
   002C                     322 _conversationIndex::
   002C                     323 	.ds 1
   002D                     324 _conversationID::
   002D                     325 	.ds 1
   002E                     326 _currentConversation::
   002E                     327 	.ds 77
   007B                     328 _initBank::
   007B                     329 	.ds 1
   007C                     330 _newBank::
   007C                     331 	.ds 1
   007D                     332 _scene::
   007D                     333 	.ds 1
   007E                     334 _move::
   007E                     335 	.ds 1
   007F                     336 _isMoving::
   007F                     337 	.ds 1
   0080                     338 _pX::
   0080                     339 	.ds 1
   0081                     340 _pY::
   0081                     341 	.ds 1
   0082                     342 _pState::
   0082                     343 	.ds 1
   0083                     344 _playerFrame::
   0083                     345 	.ds 1
   0084                     346 _jumpTime::
   0084                     347 	.ds 1
   0085                     348 _myDamage::
   0085                     349 	.ds 1
   0086                     350 _punchWindDown::
   0086                     351 	.ds 1
   0087                     352 _iFrames::
   0087                     353 	.ds 1
   0088                     354 _HP::
   0088                     355 	.ds 1
   0089                     356 _MP::
   0089                     357 	.ds 1
   008A                     358 _eHitIndex::
   008A                     359 	.ds 1
   008B                     360 _flipX::
   008B                     361 	.ds 1
   008C                     362 _barArray::
   008C                     363 	.ds 4
   0090                     364 _fullRow::
   0090                     365 	.ds 20
   00A4                     366 _frameCounter::
   00A4                     367 	.ds 1
   00A5                     368 _enemiesRemaining::
   00A5                     369 	.ds 1
   00A6                     370 _eTargetX::
   00A6                     371 	.ds 3
   00A9                     372 _eTargetY::
   00A9                     373 	.ds 3
   00AC                     374 _eX::
   00AC                     375 	.ds 3
   00AF                     376 _eY::
   00AF                     377 	.ds 3
   00B2                     378 _eFrame::
   00B2                     379 	.ds 3
   00B5                     380 _eState::
   00B5                     381 	.ds 3
   00B8                     382 _eHP::
   00B8                     383 	.ds 3
   00BB                     384 _eTime::
   00BB                     385 	.ds 3
   00BE                     386 _eType::
   00BE                     387 	.ds 3
   00C1                     388 _eDamage::
   00C1                     389 	.ds 3
   00C4                     390 _eRealType::
   00C4                     391 	.ds 3
                            392 ;--------------------------------------------------------
                            393 ; overlayable items in internal ram 
                            394 ;--------------------------------------------------------
                            395 	.area _OVERLAY
                            396 ;--------------------------------------------------------
                            397 ; indirectly addressable internal ram data
                            398 ;--------------------------------------------------------
                            399 	.area _ISEG
                            400 ;--------------------------------------------------------
                            401 ; bit data
                            402 ;--------------------------------------------------------
                            403 	.area _BSEG
                            404 ;--------------------------------------------------------
                            405 ; external ram data
                            406 ;--------------------------------------------------------
                            407 	.area _XSEG
                            408 ;--------------------------------------------------------
                            409 ; global & static initialisations
                            410 ;--------------------------------------------------------
                            411 	.area _GSINIT
                            412 	.area _GSFINAL
                            413 	.area _GSINIT
                            414 ;	ishallbequeen.c 1692
                            415 ; genAssign (pointer)
   0000 11 8C 00            416 	ld	de,#_barArray + 0
   0003 3E 00               417 	ld	a,#0x00
   0005 12                  418 	ld	(de),a
                            419 ; genPlus
                            420 ; genPlusIncr
   0006 11 8D 00            421 	ld	de,#_barArray + 1
                            422 ; genAssign (pointer)
   0009 3E 00               423 	ld	a,#0x00
   000B 12                  424 	ld	(de),a
                            425 ; genPlus
                            426 ; genPlusIncr
   000C 11 8E 00            427 	ld	de,#_barArray + 2
                            428 ; genAssign (pointer)
   000F 3E 00               429 	ld	a,#0x00
   0011 12                  430 	ld	(de),a
                            431 ; genPlus
                            432 ; genPlusIncr
   0012 11 8F 00            433 	ld	de,#_barArray + 3
                            434 ; genAssign (pointer)
   0015 3E 00               435 	ld	a,#0x00
   0017 12                  436 	ld	(de),a
                            437 ;--------------------------------------------------------
                            438 ; code
                            439 ;--------------------------------------------------------
                            440 	.area _CODE
                            441 ;	ishallbequeen.c 133
                            442 ; genLabel
                            443 ; genFunction
                            444 ;	---------------------------------
                            445 ; Function main
                            446 ; ---------------------------------
   0000                     447 ___main_start:
   0000                     448 _main:
   0000 C5                  449 	push	bc
   0001 E8 E0               450 	lda sp,-32(sp)
                            451 ;	ishallbequeen.c 135
                            452 ; genAssign
                            453 ; AOP_SFR for _DIV_REG
                            454 ; AOP_HL for _seed
   0003 F0 00               455 	ldh	a,(_DIV_REG+0) ; x
   0005 21 1D 00            456 	ld	hl,#_seed + 0
   0008 77                  457 	ld	(hl),a
                            458 ;	ishallbequeen.c 136
                            459 ; genCast
                            460 ; AOP_SFR for _DIV_REG
   0009 F0 00               461 	ldh	a,(_DIV_REG+0) ; x
   000B 4F                  462 	ld	c,a
   000C 06 00               463 	ld	b,#0x00
                            464 ; genIpush
   000E C5                  465 	push	bc
                            466 ; genCall
   000F CD 00 00            467 	call	_initrand
   0012 E8 02               468 	lda	sp,2(sp)
                            469 ;	ishallbequeen.c 139
                            470 ; genOr
                            471 ; AOP_SFR for _LCDC_REG
                            472 ; Type res[4] = l[4]&r[1]
                            473 ; Size res[1] = l[1]&r[1]
   0014 F0 00               474 	ldh	a,(_LCDC_REG+0) ; x
   0016 F6 80               475 	or	a,#0x80
   0018 E0 00               476 	ldh	(_LCDC_REG+0),a
                            477 ;	ishallbequeen.c 140
                            478 ; genAssign
                            479 ; AOP_SFR for _OBP0_REG
   001A 3E 00               480 	ld	a,#0x00
   001C E0 00               481 	ldh	(_OBP0_REG+0),a
                            482 ;	ishallbequeen.c 141
                            483 ; genAssign
                            484 ; AOP_SFR for _BGP_REG
   001E 3E 00               485 	ld	a,#0x00
   0020 E0 00               486 	ldh	(_BGP_REG+0),a
                            487 ;	ishallbequeen.c 143
                            488 ; genAssign
                            489 ; AOP_SFR for _NR52_REG
   0022 3E 8F               490 	ld	a,#0x8F
   0024 E0 00               491 	ldh	(_NR52_REG+0),a
                            492 ;	ishallbequeen.c 144
                            493 ; genAssign
                            494 ; AOP_SFR for _NR51_REG
   0026 3E FF               495 	ld	a,#0xFF
   0028 E0 00               496 	ldh	(_NR51_REG+0),a
                            497 ;	ishallbequeen.c 145
                            498 ; genAssign
                            499 ; AOP_SFR for _NR50_REG
   002A 3E 77               500 	ld	a,#0x77
   002C E0 00               501 	ldh	(_NR50_REG+0),a
                            502 ;	ishallbequeen.c 147
                            503 ; genAssign
                            504 ; AOP_HL for _newBank
   002E 21 7C 00            505 	ld	hl,#_newBank + 0
   0031 36 01               506 	ld	(hl),#0x01
                            507 ;	ishallbequeen.c 148
                            508 ; genAssign
                            509 ; AOP_HL for _scene
   0033 21 7D 00            510 	ld	hl,#_scene + 0
   0036 36 00               511 	ld	(hl),#0x00
                            512 ;	ishallbequeen.c 149
                            513 ; genAssign
                            514 ; AOP_HL for _hMode
   0038 21 07 00            515 	ld	hl,#_hMode + 0
   003B 36 00               516 	ld	(hl),#0x00
                            517 ;	ishallbequeen.c 153
                            518 ; genLabel
   003D                     519 00282$:
                            520 ;	ishallbequeen.c 158
                            521 ; genCmpEq
                            522 ; AOP_HL for _newBank
   003D 21 7C 00            523 	ld	hl,#_newBank + 0
   0040 7E                  524 	ld	a,(hl)
   0041 B7                  525 	or	a,a
                            526 ; Rule 5
   0042 CA 48 00            527 	jp	z,00102$
   0045                     528 00410$:
                            529 ;	ishallbequeen.c 159
                            530 ; genCall
   0045 CD 2C 29            531 	call	_switchRomBanks
                            532 ; genLabel
   0048                     533 00102$:
                            534 ;	ishallbequeen.c 163
                            535 ; genCmpEq
                            536 ; AOP_HL for _scene
   0048 21 7D 00            537 	ld	hl,#_scene + 0
   004B 7E                  538 	ld	a,(hl)
   004C B7                  539 	or	a,a
                            540 ; Rule 5
   004D CA CC 00            541 	jp	z,00103$
   0050                     542 00411$:
                            543 ; genCmpEq
                            544 ; AOP_HL for _scene
   0050 21 7D 00            545 	ld	hl,#_scene + 0
   0053 7E                  546 	ld	a,(hl) ; 2
   0054 FE 01               547 	cp	a,#0x01
                            548 ; Rule 5
   0056 CA CC 00            549 	jp	z,00103$
   0059                     550 00412$:
                            551 ; genCmpEq
                            552 ; AOP_HL for _scene
   0059 21 7D 00            553 	ld	hl,#_scene + 0
   005C 7E                  554 	ld	a,(hl) ; 2
   005D FE 02               555 	cp	a,#0x02
                            556 ; Rule 5
   005F CA CC 00            557 	jp	z,00103$
   0062                     558 00413$:
                            559 ; genCmpEq
                            560 ; AOP_HL for _scene
   0062 21 7D 00            561 	ld	hl,#_scene + 0
   0065 7E                  562 	ld	a,(hl) ; 2
   0066 FE 03               563 	cp	a,#0x03
                            564 ; Rule 5
   0068 CA CC 00            565 	jp	z,00103$
   006B                     566 00414$:
                            567 ; genCmpEq
                            568 ; AOP_HL for _scene
   006B 21 7D 00            569 	ld	hl,#_scene + 0
   006E 7E                  570 	ld	a,(hl) ; 2
   006F FE 04               571 	cp	a,#0x04
                            572 ; Rule 5
   0071 CA CC 00            573 	jp	z,00103$
   0074                     574 00415$:
                            575 ; genCmpEq
                            576 ; AOP_HL for _scene
   0074 21 7D 00            577 	ld	hl,#_scene + 0
   0077 7E                  578 	ld	a,(hl) ; 2
   0078 FE 05               579 	cp	a,#0x05
                            580 ; Rule 5
   007A CA D2 00            581 	jp	z,00110$
   007D                     582 00416$:
                            583 ; genCmpEq
                            584 ; AOP_HL for _scene
   007D 21 7D 00            585 	ld	hl,#_scene + 0
   0080 7E                  586 	ld	a,(hl) ; 2
   0081 FE 06               587 	cp	a,#0x06
   0083 C2 8A 00            588 	jp	nz,00417$
   0086 3E 01               589 	ld	a,#0x01
   0088 18 01               590 	jr	00418$
   008A                     591 00417$:
   008A AF                  592 	xor	a,a
   008B                     593 00418$:
   008B 4F                  594 	ld	c,a
                            595 ; genIfx
                            596 ; Removed redundent or a,a
   008C AF                  597 	xor	a,a
   008D B1                  598 	or	a,c
   008E C2 EC 00            599 	jp	nz,00116$
                            600 ; genCmpEq
                            601 ; AOP_HL for _scene
   0091 21 7D 00            602 	ld	hl,#_scene + 0
   0094 7E                  603 	ld	a,(hl) ; 2
   0095 FE 0F               604 	cp	a,#0x0F
                            605 ; Rule 5
   0097 CA D2 00            606 	jp	z,00110$
   009A                     607 00419$:
                            608 ; genCmpEq
                            609 ; AOP_HL for _scene
   009A 21 7D 00            610 	ld	hl,#_scene + 0
   009D 7E                  611 	ld	a,(hl) ; 2
   009E FE 10               612 	cp	a,#0x10
                            613 ; Rule 5
   00A0 CA EC 00            614 	jp	z,00116$
   00A3                     615 00420$:
                            616 ; genCmpEq
                            617 ; AOP_HL for _scene
   00A3 21 7D 00            618 	ld	hl,#_scene + 0
   00A6 7E                  619 	ld	a,(hl) ; 2
   00A7 FE 19               620 	cp	a,#0x19
                            621 ; Rule 5
   00A9 CA D2 00            622 	jp	z,00110$
   00AC                     623 00421$:
                            624 ; genCmpEq
                            625 ; AOP_HL for _scene
   00AC 21 7D 00            626 	ld	hl,#_scene + 0
   00AF 7E                  627 	ld	a,(hl) ; 2
   00B0 FE 1A               628 	cp	a,#0x1A
                            629 ; Rule 5
   00B2 CA EC 00            630 	jp	z,00116$
   00B5                     631 00422$:
                            632 ; genCmpEq
                            633 ; AOP_HL for _scene
   00B5 21 7D 00            634 	ld	hl,#_scene + 0
   00B8 7E                  635 	ld	a,(hl) ; 2
   00B9 FE 32               636 	cp	a,#0x32
                            637 ; Rule 5
   00BB CA CC 00            638 	jp	z,00103$
   00BE                     639 00423$:
                            640 ; genCmpEq
                            641 ; AOP_HL for _scene
   00BE 21 7D 00            642 	ld	hl,#_scene + 0
   00C1 7E                  643 	ld	a,(hl) ; 2
   00C2 FE 63               644 	cp	a,#0x63
   00C4 C2 C9 00            645 	jp	nz,00424$
   00C7 18 03               646 	jr	00425$
   00C9                     647 00424$:
   00C9 C3 0B 0F            648 	jp	00280$
   00CC                     649 00425$:
                            650 ;	ishallbequeen.c 171
                            651 ; genLabel
   00CC                     652 00103$:
                            653 ; genCall
   00CC CD 00 00            654 	call	_updateGame
                            655 ;	ishallbequeen.c 172
                            656 ; genGoto
   00CF C3 0B 0F            657 	jp	00280$
                            658 ;	ishallbequeen.c 180
                            659 ; genLabel
   00D2                     660 00110$:
                            661 ; genAssign
                            662 ; AOP_HL for _newBank
   00D2 21 7C 00            663 	ld	hl,#_newBank + 0
   00D5 36 05               664 	ld	(hl),#0x05
                            665 ;	ishallbequeen.c 181
                            666 ; genAssign
                            667 ; AOP_HL for _initBank
   00D7 21 7B 00            668 	ld	hl,#_initBank + 0
   00DA 36 01               669 	ld	(hl),#0x01
                            670 ;	ishallbequeen.c 182
                            671 ; genCall
   00DC CD 2C 29            672 	call	_switchRomBanks
                            673 ;	ishallbequeen.c 183
                            674 ; genCall
   00DF CD 00 00            675 	call	_updateGame
                            676 ;	ishallbequeen.c 185
                            677 ; genCall
   00E2 CD CB 2E            678 	call	_initGame
                            679 ;	ishallbequeen.c 189
                            680 ; genPlus
                            681 ; AOP_HL for _scene
                            682 ; genPlusIncr
   00E5 21 7D 00            683 	ld	hl,#_scene + 0
   00E8 34                  684 	inc	(hl)
                            685 ;	ishallbequeen.c 190
                            686 ; genGoto
   00E9 C3 0B 0F            687 	jp	00280$
                            688 ;	ishallbequeen.c 209
                            689 ; genLabel
   00EC                     690 00116$:
                            691 ;	ishallbequeen.c 201
                            692 ; genIfx
                            693 ; Removed redundent or a,a
   00EC AF                  694 	xor	a,a
   00ED B1                  695 	or	a,c
   00EE CA 20 01            696 	jp	z,00114$
                            697 ; genCmpEq
                            698 ; AOP_HL for _level
   00F1 21 0A 00            699 	ld	hl,#_level + 0
   00F4 7E                  700 	ld	a,(hl) ; 2
   00F5 FE 03               701 	cp	a,#0x03
   00F7 C2 FC 00            702 	jp	nz,00426$
   00FA 18 03               703 	jr	00427$
   00FC                     704 00426$:
   00FC C3 20 01            705 	jp	00114$
   00FF                     706 00427$:
                            707 ;	ishallbequeen.c 202
                            708 ; genAssign
                            709 ; AOP_HL for _scene
   00FF 21 7D 00            710 	ld	hl,#_scene + 0
   0102 36 03               711 	ld	(hl),#0x03
                            712 ;	ishallbequeen.c 203
                            713 ; genAssign
                            714 ; AOP_HL for _newBank
   0104 21 7C 00            715 	ld	hl,#_newBank + 0
   0107 36 02               716 	ld	(hl),#0x02
                            717 ;	ishallbequeen.c 204
                            718 ; genAssign
                            719 ; AOP_HL for _initBank
   0109 21 7B 00            720 	ld	hl,#_initBank + 0
   010C 36 01               721 	ld	(hl),#0x01
                            722 ;	ishallbequeen.c 205
                            723 ; genIpush
   010E 3E 0A               724 	ld	a,#0x0A
   0110 F5                  725 	push	af
   0111 33                  726 	inc	sp
                            727 ; genCall
   0112 CD 91 26            728 	call	_fadeOutBkg
   0115 E8 01               729 	lda	sp,1(sp)
                            730 ;	ishallbequeen.c 206
                            731 ; genIpush
   0117 3E 0A               732 	ld	a,#0x0A
   0119 F5                  733 	push	af
   011A 33                  734 	inc	sp
                            735 ; genCall
   011B CD 8C 27            736 	call	_fadeOutSprites
   011E E8 01               737 	lda	sp,1(sp)
                            738 ; genLabel
   0120                     739 00114$:
                            740 ;	ishallbequeen.c 209
                            741 ; genCmpEq
                            742 ; AOP_HL for _scene
   0120 21 7D 00            743 	ld	hl,#_scene + 0
   0123 7E                  744 	ld	a,(hl) ; 2
   0124 FE 10               745 	cp	a,#0x10
   0126 C2 2B 01            746 	jp	nz,00428$
   0129 18 03               747 	jr	00429$
   012B                     748 00428$:
   012B C3 5D 01            749 	jp	00120$
   012E                     750 00429$:
                            751 ; genCmpEq
                            752 ; AOP_HL for _level
   012E 21 0A 00            753 	ld	hl,#_level + 0
   0131 7E                  754 	ld	a,(hl) ; 2
   0132 FE 04               755 	cp	a,#0x04
   0134 C2 39 01            756 	jp	nz,00430$
   0137 18 03               757 	jr	00431$
   0139                     758 00430$:
   0139 C3 5D 01            759 	jp	00120$
   013C                     760 00431$:
                            761 ;	ishallbequeen.c 210
                            762 ; genAssign
                            763 ; AOP_HL for _scene
   013C 21 7D 00            764 	ld	hl,#_scene + 0
   013F 36 04               765 	ld	(hl),#0x04
                            766 ;	ishallbequeen.c 211
                            767 ; genAssign
                            768 ; AOP_HL for _newBank
   0141 21 7C 00            769 	ld	hl,#_newBank + 0
   0144 36 02               770 	ld	(hl),#0x02
                            771 ;	ishallbequeen.c 212
                            772 ; genAssign
                            773 ; AOP_HL for _initBank
   0146 21 7B 00            774 	ld	hl,#_initBank + 0
   0149 36 01               775 	ld	(hl),#0x01
                            776 ;	ishallbequeen.c 213
                            777 ; genIpush
   014B 3E 0A               778 	ld	a,#0x0A
   014D F5                  779 	push	af
   014E 33                  780 	inc	sp
                            781 ; genCall
   014F CD 91 26            782 	call	_fadeOutBkg
   0152 E8 01               783 	lda	sp,1(sp)
                            784 ;	ishallbequeen.c 214
                            785 ; genIpush
   0154 3E 0A               786 	ld	a,#0x0A
   0156 F5                  787 	push	af
   0157 33                  788 	inc	sp
                            789 ; genCall
   0158 CD 8C 27            790 	call	_fadeOutSprites
   015B E8 01               791 	lda	sp,1(sp)
                            792 ; genLabel
   015D                     793 00120$:
                            794 ;	ishallbequeen.c 217
                            795 ; genCmpEq
                            796 ; AOP_HL for _scene
   015D 21 7D 00            797 	ld	hl,#_scene + 0
   0160 7E                  798 	ld	a,(hl) ; 2
   0161 FE 1A               799 	cp	a,#0x1A
   0163 C2 68 01            800 	jp	nz,00432$
   0166 18 03               801 	jr	00433$
   0168                     802 00432$:
   0168 C3 9A 01            803 	jp	00123$
   016B                     804 00433$:
                            805 ; genCmpEq
                            806 ; AOP_HL for _level
   016B 21 0A 00            807 	ld	hl,#_level + 0
   016E 7E                  808 	ld	a,(hl) ; 2
   016F FE 07               809 	cp	a,#0x07
   0171 C2 76 01            810 	jp	nz,00434$
   0174 18 03               811 	jr	00435$
   0176                     812 00434$:
   0176 C3 9A 01            813 	jp	00123$
   0179                     814 00435$:
                            815 ;	ishallbequeen.c 218
                            816 ; genAssign
                            817 ; AOP_HL for _scene
   0179 21 7D 00            818 	ld	hl,#_scene + 0
   017C 36 32               819 	ld	(hl),#0x32
                            820 ;	ishallbequeen.c 219
                            821 ; genAssign
                            822 ; AOP_HL for _newBank
   017E 21 7C 00            823 	ld	hl,#_newBank + 0
   0181 36 03               824 	ld	(hl),#0x03
                            825 ;	ishallbequeen.c 220
                            826 ; genAssign
                            827 ; AOP_HL for _initBank
   0183 21 7B 00            828 	ld	hl,#_initBank + 0
   0186 36 01               829 	ld	(hl),#0x01
                            830 ;	ishallbequeen.c 221
                            831 ; genIpush
   0188 3E 0A               832 	ld	a,#0x0A
   018A F5                  833 	push	af
   018B 33                  834 	inc	sp
                            835 ; genCall
   018C CD 91 26            836 	call	_fadeOutBkg
   018F E8 01               837 	lda	sp,1(sp)
                            838 ;	ishallbequeen.c 222
                            839 ; genIpush
   0191 3E 0A               840 	ld	a,#0x0A
   0193 F5                  841 	push	af
   0194 33                  842 	inc	sp
                            843 ; genCall
   0195 CD 8C 27            844 	call	_fadeOutSprites
   0198 E8 01               845 	lda	sp,1(sp)
                            846 ; genLabel
   019A                     847 00123$:
                            848 ;	ishallbequeen.c 226
                            849 ; genPlus
                            850 ; AOP_HL for _frameCounter
                            851 ; genPlusIncr
   019A 21 A4 00            852 	ld	hl,#_frameCounter + 0
   019D 34                  853 	inc	(hl)
                            854 ;	ishallbequeen.c 227
                            855 ; genAssign
                            856 ; AOP_HL for _isMoving
   019E 21 7F 00            857 	ld	hl,#_isMoving + 0
   01A1 36 00               858 	ld	(hl),#0x00
                            859 ;	ishallbequeen.c 231
                            860 ; genCmpEq
                            861 ; AOP_HL for _fireBallLife
   01A3 21 02 00            862 	ld	hl,#_fireBallLife + 0
   01A6 7E                  863 	ld	a,(hl)
   01A7 B7                  864 	or	a,a
                            865 ; Rule 5
   01A8 CA 02 03            866 	jp	z,00136$
   01AB                     867 00436$:
                            868 ;	ishallbequeen.c 232
                            869 ; genMinus
                            870 ; AOP_HL for _fireBallLife
   01AB 21 02 00            871 	ld	hl,#_fireBallLife + 0
   01AE 35                  872 	dec	(hl)
                            873 ;	ishallbequeen.c 234
                            874 ; genCmpEq
                            875 ; AOP_HL for _fireBallDir
   01AF 21 03 00            876 	ld	hl,#_fireBallDir + 0
   01B2 7E                  877 	ld	a,(hl)
   01B3 B7                  878 	or	a,a
   01B4 C2 B9 01            879 	jp	nz,00437$
   01B7 18 03               880 	jr	00438$
   01B9                     881 00437$:
   01B9 C3 C4 01            882 	jp	00126$
   01BC                     883 00438$:
                            884 ;	ishallbequeen.c 236
                            885 ; genPlus
                            886 ; AOP_HL for _fireBallX
                            887 ; genPlusIncr
   01BC 21 00 00            888 	ld	hl,#_fireBallX + 0
   01BF 34                  889 	inc	(hl)
   01C0 34                  890 	inc	(hl)
                            891 ;	ishallbequeen.c 237
                            892 ; genGoto
   01C1 C3 C9 01            893 	jp	00127$
                            894 ;	ishallbequeen.c 239
                            895 ; genLabel
   01C4                     896 00126$:
                            897 ; genMinus
                            898 ; AOP_HL for _fireBallX
   01C4 21 00 00            899 	ld	hl,#_fireBallX + 0
   01C7 35                  900 	dec	(hl)
   01C8 35                  901 	dec	(hl)
                            902 ;	ishallbequeen.c 240
                            903 ; genLabel
   01C9                     904 00127$:
                            905 ;	ishallbequeen.c 242
                            906 ; genCmpGt
                            907 ; AOP_HL for _fireBallLife
   01C9 AF                  908 	xor	a,a
   01CA 3E 01               909 	ld	a,#0x01
   01CC 21 02 00            910 	ld	hl,#_fireBallLife + 0
   01CF 9E                  911 	sbc	a,(hl) ; 2
   01D0 D2 E7 01            912 	jp	nc,00129$
                            913 ;	ishallbequeen.c 243
                            914 ; genAssign
                            915 ; AOP_SFR for _NR11_REG
   01D3 3E 1F               916 	ld	a,#0x1F
   01D5 E0 00               917 	ldh	(_NR11_REG+0),a
                            918 ;	ishallbequeen.c 244
                            919 ; genLeftShift
                            920 ; AOP_HL for _fireBallLife
                            921 ; AOP_SFR for _NR12_REG
   01D7 7E                  922 	ld	a,(hl)
   01D8 87                  923 	add	a,a
   01D9 87                  924 	add	a,a
   01DA E0 00               925 	ldh	(_NR12_REG+0),a
                            926 ;	ishallbequeen.c 245
                            927 ; genAssign
                            928 ; AOP_SFR for _DIV_REG
                            929 ; AOP_SFR for _NR13_REG
   01DC F0 00               930 	ldh	a,(_DIV_REG+0) ; x
   01DE E0 00               931 	ldh	(_NR13_REG+0),a
                            932 ;	ishallbequeen.c 246
                            933 ; genAssign
                            934 ; AOP_SFR for _NR14_REG
   01E0 3E 81               935 	ld	a,#0x81
   01E2 E0 00               936 	ldh	(_NR14_REG+0),a
                            937 ; genGoto
   01E4 C3 EA 01            938 	jp	00130$
                            939 ; genLabel
   01E7                     940 00129$:
                            941 ;	ishallbequeen.c 248
                            942 ; genCall
   01E7 CD 44 29            943 	call	_stopAllSounds
                            944 ; genLabel
   01EA                     945 00130$:
                            946 ;	ishallbequeen.c 251
                            947 ; genIpush
                            948 ; AOP_HL for _fireBallY
   01EA 21 01 00            949 	ld	hl,#_fireBallY + 0
   01ED 7E                  950 	ld	a,(hl)
   01EE F5                  951 	push	af
   01EF 33                  952 	inc	sp
                            953 ; genIpush
                            954 ; AOP_HL for _fireBallX
   01F0 21 00 00            955 	ld	hl,#_fireBallX + 0
   01F3 7E                  956 	ld	a,(hl)
   01F4 F5                  957 	push	af
   01F5 33                  958 	inc	sp
                            959 ; genIpush
   01F6 3E 21               960 	ld	a,#0x21
   01F8 F5                  961 	push	af
   01F9 33                  962 	inc	sp
                            963 ; genCall
   01FA CD 00 00            964 	call	_move_sprite
   01FD E8 03               965 	lda	sp,3(sp)
                            966 ;	ishallbequeen.c 253
                            967 ; genAssign
                            968 ; AOP_HL for _i
   01FF 21 0B 00            969 	ld	hl,#_i + 0
   0202 36 00               970 	ld	(hl),#0x00
                            971 ; genLabel
   0204                     972 00284$:
                            973 ; genCmpEq
                            974 ; AOP_HL for _i
                            975 ; AOP_STK for _main_sloc1_1_0
   0204 21 0B 00            976 	ld	hl,#_i + 0
   0207 7E                  977 	ld	a,(hl) ; 2
   0208 FE 03               978 	cp	a,#0x03
   020A C2 11 02            979 	jp	nz,00439$
   020D 3E 01               980 	ld	a,#0x01
   020F 18 01               981 	jr	00440$
   0211                     982 00439$:
   0211 AF                  983 	xor	a,a
   0212                     984 00440$:
   0212 F8 1E               985 	lda	hl,30(sp)
   0214 77                  986 	ld	(hl),a ; 3
                            987 ; genIfx
                            988 ; AOP_STK for _main_sloc1_1_0
                            989 ; Removed redundent or a,a
   0215 AF                  990 	xor	a,a
   0216 B6                  991 	or	a,(hl)
   0217 C2 1D 03            992 	jp	nz,00137$
                            993 ;	ishallbequeen.c 255
                            994 ; genAssign
                            995 ; AOP_HL for _i
                            996 ; AOP_STK for _main_sloc0_1_0
   021A 21 0B 00            997 	ld	hl,#_i + 0
   021D 7E                  998 	ld	a,(hl)
   021E F8 1F               999 	lda	hl,31(sp)
   0220 77                 1000 	ld	(hl),a ; 3
                           1001 ; genPlus
                           1002 ; AOP_STK for _main_sloc0_1_0
   0221 3E AF              1003 	ld	a,#<_eY
   0223 86                 1004 	add	a,(hl)
   0224 5F                 1005 	ld	e,a
   0225 3E 00              1006 	ld	a,#>_eY
   0227 CE 00              1007 	adc	a,#0x00
   0229 57                 1008 	ld	d,a
                           1009 ; genPointerGet
                           1010 ; AOP_STK for _main_sloc4_1_0
   022A 1A                 1011 	ld	a,(de)
   022B F8 1B              1012 	lda	hl,27(sp)
   022D 77                 1013 	ld	(hl),a ; 3
                           1014 ; genPlus
                           1015 ; AOP_STK for _main_sloc4_1_0
                           1016 ; AOP_STK for _main_sloc2_1_0
                           1017 ; genPlusIncr
   022E 7E                 1018 	ld	a,(hl)
   022F C6 02              1019 	add	a,#0x02
   0231 23                 1020 	inc	hl
   0232 23                 1021 	inc	hl
   0233 77                 1022 	ld	(hl),a ; 3
                           1023 ; genAssign
                           1024 ; AOP_HL for _i
                           1025 ; AOP_STK for _main_sloc3_1_0
   0234 21 0B 00           1026 	ld	hl,#_i + 0
   0237 7E                 1027 	ld	a,(hl)
   0238 F8 1C              1028 	lda	hl,28(sp)
   023A 77                 1029 	ld	(hl),a ; 3
                           1030 ; genPlus
                           1031 ; AOP_STK for _main_sloc3_1_0
   023B 3E AC              1032 	ld	a,#<_eX
   023D 86                 1033 	add	a,(hl)
   023E 5F                 1034 	ld	e,a
   023F 3E 00              1035 	ld	a,#>_eX
   0241 CE 00              1036 	adc	a,#0x00
   0243 57                 1037 	ld	d,a
                           1038 ; genPointerGet
                           1039 ; AOP_STK for _main_sloc6_1_0
   0244 1A                 1040 	ld	a,(de)
   0245 F8 19              1041 	lda	hl,25(sp)
   0247 77                 1042 	ld	(hl),a ; 3
                           1043 ; genPlus
                           1044 ; AOP_STK for _main_sloc6_1_0
                           1045 ; AOP_STK for _main_sloc5_1_0
                           1046 ; genPlusIncr
   0248 7E                 1047 	ld	a,(hl)
   0249 C6 02              1048 	add	a,#0x02
   024B 23                 1049 	inc	hl
   024C 77                 1050 	ld	(hl),a ; 3
                           1051 ; genIpush
   024D 3E 0C              1052 	ld	a,#0x0C
   024F F5                 1053 	push	af
   0250 33                 1054 	inc	sp
                           1055 ; genIpush
   0251 3E 0C              1056 	ld	a,#0x0C
   0253 F5                 1057 	push	af
   0254 33                 1058 	inc	sp
                           1059 ; genIpush
                           1060 ; AOP_STK for _main_sloc2_1_0
   0255 F8 1F              1061 	lda	hl,31(sp)
   0257 7E                 1062 	ld	a,(hl)
   0258 F5                 1063 	push	af
   0259 33                 1064 	inc	sp
                           1065 ; genIpush
                           1066 ; AOP_STK for _main_sloc5_1_0
   025A F8 1D              1067 	lda	hl,29(sp)
   025C 7E                 1068 	ld	a,(hl)
   025D F5                 1069 	push	af
   025E 33                 1070 	inc	sp
                           1071 ; genIpush
   025F 3E 08              1072 	ld	a,#0x08
   0261 F5                 1073 	push	af
   0262 33                 1074 	inc	sp
                           1075 ; genIpush
   0263 3E 08              1076 	ld	a,#0x08
   0265 F5                 1077 	push	af
   0266 33                 1078 	inc	sp
                           1079 ; genIpush
                           1080 ; AOP_HL for _fireBallY
   0267 21 01 00           1081 	ld	hl,#_fireBallY + 0
   026A 7E                 1082 	ld	a,(hl)
   026B F5                 1083 	push	af
   026C 33                 1084 	inc	sp
                           1085 ; genIpush
                           1086 ; AOP_HL for _fireBallX
   026D 21 00 00           1087 	ld	hl,#_fireBallX + 0
   0270 7E                 1088 	ld	a,(hl)
   0271 F5                 1089 	push	af
   0272 33                 1090 	inc	sp
                           1091 ; genCall
   0273 CD AF 25           1092 	call	_collisionCheck
                           1093 ; AOP_STK for _main_sloc8_1_0
   0276 F8 1F              1094 	lda	hl,31(sp)
   0278 73                 1095 	ld	(hl),e ; 3
   0279 E8 08              1096 	lda	sp,8(sp)
                           1097 ; genCmpEq
                           1098 ; AOP_STK for _main_sloc8_1_0
                           1099 ; AOP_STK for _main_sloc7_1_0
   027B 7E                 1100 	ld	a,(hl) ; 2
   027C FE 01              1101 	cp	a,#0x01
   027E C2 85 02           1102 	jp	nz,00441$
   0281 3E 01              1103 	ld	a,#0x01
   0283 18 01              1104 	jr	00442$
   0285                    1105 00441$:
   0285 AF                 1106 	xor	a,a
   0286                    1107 00442$:
   0286 F8 18              1108 	lda	hl,24(sp)
   0288 77                 1109 	ld	(hl),a ; 3
                           1110 ; genIfx
                           1111 ; AOP_STK for _main_sloc7_1_0
                           1112 ; Removed redundent or a,a
   0289 AF                 1113 	xor	a,a
   028A B6                 1114 	or	a,(hl)
   028B CA F6 02           1115 	jp	z,00286$
                           1116 ;	ishallbequeen.c 256
                           1117 ; genAssign
                           1118 ; (operands are equal 3)
                           1119 ; genAssign
                           1120 ; AOP_HL for _i
                           1121 ; AOP_HL for _eHitIndex
   028E 21 0B 00           1122 	ld	hl,#_i + 0
   0291 7E                 1123 	ld	a,(hl)
   0292 21 8A 00           1124 	ld	hl,#_eHitIndex + 0
   0295 77                 1125 	ld	(hl),a
                           1126 ;	ishallbequeen.c 257
                           1127 ; genAssign
                           1128 ; AOP_HL for _eHitIndex
                           1129 ; AOP_STK for _main_sloc11_1_0
   0296 7E                 1130 	ld	a,(hl)
   0297 F8 13              1131 	lda	hl,19(sp)
   0299 77                 1132 	ld	(hl),a ; 3
                           1133 ; genPlus
                           1134 ; AOP_STK for _main_sloc11_1_0
                           1135 ; AOP_STK for _main_sloc9_1_0
   029A 3E B8              1136 	ld	a,#<_eHP
   029C 86                 1137 	add	a,(hl)
   029D 23                 1138 	inc	hl
   029E 23                 1139 	inc	hl
   029F 77                 1140 	ld	(hl),a ; 3
   02A0 3E 00              1141 	ld	a,#>_eHP
   02A2 CE 00              1142 	adc	a,#0x00
   02A4 23                 1143 	inc	hl
   02A5 77                 1144 	ld	(hl),a ; 3
                           1145 ; genAssign
                           1146 ; AOP_HL for _eHitIndex
                           1147 ; AOP_STK for _main_sloc10_1_0
   02A6 21 8A 00           1148 	ld	hl,#_eHitIndex + 0
   02A9 7E                 1149 	ld	a,(hl)
   02AA F8 14              1150 	lda	hl,20(sp)
   02AC 77                 1151 	ld	(hl),a ; 3
                           1152 ; genPlus
                           1153 ; AOP_STK for _main_sloc10_1_0
   02AD 3E B8              1154 	ld	a,#<_eHP
   02AF 86                 1155 	add	a,(hl)
   02B0 5F                 1156 	ld	e,a
   02B1 3E 00              1157 	ld	a,#>_eHP
   02B3 CE 00              1158 	adc	a,#0x00
   02B5 57                 1159 	ld	d,a
                           1160 ; genPointerGet
                           1161 ; AOP_STK for _main_sloc14_1_0
   02B6 1A                 1162 	ld	a,(de)
   02B7 F8 10              1163 	lda	hl,16(sp)
   02B9 77                 1164 	ld	(hl),a ; 3
                           1165 ; genMinus
                           1166 ; AOP_STK for _main_sloc14_1_0
                           1167 ; AOP_STK for _main_sloc12_1_0
   02BA 7E                 1168 	ld	a,(hl)
   02BB C6 F6              1169 	add	a,#0xF6
   02BD 23                 1170 	inc	hl
   02BE 23                 1171 	inc	hl
   02BF 77                 1172 	ld	(hl),a ; 3
                           1173 ; genAssign (pointer)
                           1174 ; AOP_STK for _main_sloc9_1_0
                           1175 ; AOP_STK for _main_sloc12_1_0
   02C0 F8 15              1176 	lda	hl,21(sp)
   02C2 5E                 1177 	ld	e,(hl)
   02C3 23                 1178 	inc	hl
   02C4 56                 1179 	ld	d,(hl)
   02C5 F8 12              1180 	lda	hl,18(sp)
   02C7 7E                 1181 	ld	a,(hl)
   02C8 12                 1182 	ld	(de),a
                           1183 ;	ishallbequeen.c 260
                           1184 ; genAssign
                           1185 ; AOP_HL for _eHitIndex
                           1186 ; AOP_STK for _main_sloc13_1_0
   02C9 21 8A 00           1187 	ld	hl,#_eHitIndex + 0
   02CC 7E                 1188 	ld	a,(hl)
   02CD F8 11              1189 	lda	hl,17(sp)
   02CF 77                 1190 	ld	(hl),a ; 3
                           1191 ; genPlus
                           1192 ; AOP_STK for _main_sloc13_1_0
   02D0 3E B8              1193 	ld	a,#<_eHP
   02D2 86                 1194 	add	a,(hl)
   02D3 5F                 1195 	ld	e,a
   02D4 3E 00              1196 	ld	a,#>_eHP
   02D6 CE 00              1197 	adc	a,#0x00
   02D8 57                 1198 	ld	d,a
                           1199 ; genPointerGet
                           1200 ; AOP_STK for _main_sloc16_1_0
   02D9 1A                 1201 	ld	a,(de)
   02DA F8 0E              1202 	lda	hl,14(sp)
   02DC 77                 1203 	ld	(hl),a ; 3
                           1204 ; genCmpGt
                           1205 ; AOP_STK for _main_sloc16_1_0
                           1206 ; AOP_STK for _main_sloc15_1_0
   02DD AF                 1207 	xor	a,a
   02DE 3E DC              1208 	ld	a,#0xDC
   02E0 9E                 1209 	sbc	a,(hl) ; 2
   02E1 3E 00              1210 	ld	a,#0x00
   02E3 17                 1211 	rla
   02E4 23                 1212 	inc	hl
   02E5 77                 1213 	ld	(hl),a ; 3
                           1214 ; genIfx
                           1215 ; AOP_STK for _main_sloc15_1_0
                           1216 ; Removed redundent or a,a
   02E6 AF                 1217 	xor	a,a
   02E7 B6                 1218 	or	a,(hl)
   02E8 CA F6 02           1219 	jp	z,00286$
                           1220 ;	ishallbequeen.c 261
                           1221 ; genIpush
                           1222 ; AOP_HL for _eHitIndex
   02EB 21 8A 00           1223 	ld	hl,#_eHitIndex + 0
   02EE 7E                 1224 	ld	a,(hl)
   02EF F5                 1225 	push	af
   02F0 33                 1226 	inc	sp
                           1227 ; genCall
   02F1 CD 77 29           1228 	call	_destroyEnemy
   02F4 E8 01              1229 	lda	sp,1(sp)
                           1230 ; genLabel
   02F6                    1231 00286$:
                           1232 ;	ishallbequeen.c 253
                           1233 ; genPlus
                           1234 ; AOP_HL for _i
                           1235 ; genPlusIncr
   02F6 21 0B 00           1236 	ld	hl,#_i + 0
   02F9 7E                 1237 	ld	a,(hl)
   02FA C6 01              1238 	add	a,#0x01
   02FC 47                 1239 	ld	b,a
                           1240 ; genAssign
   02FD 48                 1241 	ld	c,b
                           1242 ; genAssign
                           1243 ; AOP_HL for _i
   02FE 71                 1244 	ld	(hl),c
                           1245 ; genGoto
   02FF C3 04 02           1246 	jp	00284$
                           1247 ; genLabel
   0302                    1248 00136$:
                           1249 ;	ishallbequeen.c 268
                           1250 ; genAssign
                           1251 ; AOP_HL for _fireBallX
   0302 21 00 00           1252 	ld	hl,#_fireBallX + 0
   0305 36 00              1253 	ld	(hl),#0x00
                           1254 ;	ishallbequeen.c 269
                           1255 ; genAssign
                           1256 ; AOP_HL for _fireBallY
   0307 21 01 00           1257 	ld	hl,#_fireBallY + 0
   030A 36 DC              1258 	ld	(hl),#0xDC
                           1259 ;	ishallbequeen.c 270
                           1260 ; genIpush
   030C 3E DC              1261 	ld	a,#0xDC
   030E F5                 1262 	push	af
   030F 33                 1263 	inc	sp
                           1264 ; genIpush
   0310 3E 00              1265 	ld	a,#0x00
   0312 F5                 1266 	push	af
   0313 33                 1267 	inc	sp
                           1268 ; genIpush
   0314 3E 21              1269 	ld	a,#0x21
   0316 F5                 1270 	push	af
   0317 33                 1271 	inc	sp
                           1272 ; genCall
   0318 CD 00 00           1273 	call	_move_sprite
   031B E8 03              1274 	lda	sp,3(sp)
                           1275 ; genLabel
   031D                    1276 00137$:
                           1277 ;	ishallbequeen.c 275
                           1278 ; genCmpEq
                           1279 ; AOP_HL for _screenShake
   031D 21 20 00           1280 	ld	hl,#_screenShake + 0
   0320 7E                 1281 	ld	a,(hl)
   0321 B7                 1282 	or	a,a
                           1283 ; Rule 5
   0322 CA A5 03           1284 	jp	z,00145$
   0325                    1285 00443$:
                           1286 ;	ishallbequeen.c 276
                           1287 ; genMinus
                           1288 ; AOP_HL for _screenShake
   0325 21 20 00           1289 	ld	hl,#_screenShake + 0
   0328 35                 1290 	dec	(hl)
                           1291 ;	ishallbequeen.c 278
                           1292 ; genCmpGt
                           1293 ; AOP_HL for _screenShake
   0329 AF                 1294 	xor	a,a
   032A 3E 01              1295 	ld	a,#0x01
   032C 9E                 1296 	sbc	a,(hl) ; 2
   032D D2 93 03           1297 	jp	nc,00142$
                           1298 ;	ishallbequeen.c 279
                           1299 ; genAssign
                           1300 ; AOP_SFR for _NR11_REG
   0330 3E 7F              1301 	ld	a,#0x7F
   0332 E0 00              1302 	ldh	(_NR11_REG+0),a
                           1303 ;	ishallbequeen.c 280
                           1304 ; genAssign
                           1305 ; AOP_SFR for _NR12_REG
   0334 3E 3F              1306 	ld	a,#0x3F
   0336 E0 00              1307 	ldh	(_NR12_REG+0),a
                           1308 ;	ishallbequeen.c 281
                           1309 ; genAssign
                           1310 ; AOP_SFR for _DIV_REG
                           1311 ; AOP_SFR for _NR13_REG
   0338 F0 00              1312 	ldh	a,(_DIV_REG+0) ; x
   033A E0 00              1313 	ldh	(_NR13_REG+0),a
                           1314 ;	ishallbequeen.c 282
                           1315 ; genAssign
                           1316 ; AOP_SFR for _NR14_REG
   033C 3E 80              1317 	ld	a,#0x80
   033E E0 00              1318 	ldh	(_NR14_REG+0),a
                           1319 ;	ishallbequeen.c 284
                           1320 ; genCmpEq
                           1321 ; AOP_HL for _shakeDir
   0340 21 21 00           1322 	ld	hl,#_shakeDir + 0
   0343 7E                 1323 	ld	a,(hl)
   0344 B7                 1324 	or	a,a
   0345 C2 4A 03           1325 	jp	nz,00444$
   0348 18 03              1326 	jr	00445$
   034A                    1327 00444$:
   034A C3 70 03           1328 	jp	00139$
   034D                    1329 00445$:
                           1330 ;	ishallbequeen.c 286
                           1331 ; genIpush
   034D 3E 03              1332 	ld	a,#0x03
   034F F5                 1333 	push	af
   0350 33                 1334 	inc	sp
                           1335 ; genIpush
                           1336 ; AOP_HL for _frameCounter
   0351 21 A4 00           1337 	ld	hl,#_frameCounter + 0
   0354 7E                 1338 	ld	a,(hl)
   0355 F5                 1339 	push	af
   0356 33                 1340 	inc	sp
                           1341 ; genCall
   0357 CD 00 00           1342 	call	__moduchar
   035A 4B                 1343 	ld	c,e
   035B E8 02              1344 	lda	sp,2(sp)
                           1345 ; genMinus
   035D 3E 01              1346 	ld	a,#0x01
   035F 91                 1347 	sub	a,c
   0360 4F                 1348 	ld	c,a
                           1349 ; genIpush
   0361 79                 1350 	ld	a,c
   0362 F5                 1351 	push	af
   0363 33                 1352 	inc	sp
                           1353 ; genIpush
   0364 3E 00              1354 	ld	a,#0x00
   0366 F5                 1355 	push	af
   0367 33                 1356 	inc	sp
                           1357 ; genCall
   0368 CD 00 00           1358 	call	_scroll_bkg
   036B E8 02              1359 	lda	sp,2(sp)
                           1360 ;	ishallbequeen.c 287
                           1361 ; genGoto
   036D C3 A5 03           1362 	jp	00145$
                           1363 ;	ishallbequeen.c 290
                           1364 ; genLabel
   0370                    1365 00139$:
                           1366 ; genIpush
   0370 3E 03              1367 	ld	a,#0x03
   0372 F5                 1368 	push	af
   0373 33                 1369 	inc	sp
                           1370 ; genIpush
                           1371 ; AOP_HL for _frameCounter
   0374 21 A4 00           1372 	ld	hl,#_frameCounter + 0
   0377 7E                 1373 	ld	a,(hl)
   0378 F5                 1374 	push	af
   0379 33                 1375 	inc	sp
                           1376 ; genCall
   037A CD 00 00           1377 	call	__moduchar
   037D 4B                 1378 	ld	c,e
   037E E8 02              1379 	lda	sp,2(sp)
                           1380 ; genMinus
   0380 3E 01              1381 	ld	a,#0x01
   0382 91                 1382 	sub	a,c
   0383 4F                 1383 	ld	c,a
                           1384 ; genIpush
   0384 3E 00              1385 	ld	a,#0x00
   0386 F5                 1386 	push	af
   0387 33                 1387 	inc	sp
                           1388 ; genIpush
   0388 79                 1389 	ld	a,c
   0389 F5                 1390 	push	af
   038A 33                 1391 	inc	sp
                           1392 ; genCall
   038B CD 00 00           1393 	call	_scroll_bkg
   038E E8 02              1394 	lda	sp,2(sp)
                           1395 ;	ishallbequeen.c 292
                           1396 ; genGoto
   0390 C3 A5 03           1397 	jp	00145$
                           1398 ; genLabel
   0393                    1399 00142$:
                           1400 ;	ishallbequeen.c 295
                           1401 ; genCall
   0393 CD 44 29           1402 	call	_stopAllSounds
                           1403 ;	ishallbequeen.c 296
                           1404 ; genIpush
   0396 3E 00              1405 	ld	a,#0x00
   0398 F5                 1406 	push	af
   0399 33                 1407 	inc	sp
                           1408 ; genIpush
                           1409 ; AOP_HL for _globalY
   039A 21 1F 00           1410 	ld	hl,#_globalY + 0
   039D 7E                 1411 	ld	a,(hl)
   039E F5                 1412 	push	af
   039F 33                 1413 	inc	sp
                           1414 ; genCall
   03A0 CD 00 00           1415 	call	_move_bkg
   03A3 E8 02              1416 	lda	sp,2(sp)
                           1417 ; genLabel
   03A5                    1418 00145$:
                           1419 ;	ishallbequeen.c 304
                           1420 ; genCmpEq
                           1421 ; AOP_HL for _powerUpNoise
   03A5 21 29 00           1422 	ld	hl,#_powerUpNoise + 0
   03A8 7E                 1423 	ld	a,(hl) ; 2
   03A9 FE FF              1424 	cp	a,#0xFF
                           1425 ; Rule 5
   03AB CA E4 03           1426 	jp	z,00149$
   03AE                    1427 00446$:
                           1428 ;	ishallbequeen.c 305
                           1429 ; genPlus
                           1430 ; AOP_HL for _powerUpNoise
                           1431 ; genPlusIncr
   03AE 21 29 00           1432 	ld	hl,#_powerUpNoise + 0
   03B1 7E                 1433 	ld	a,(hl)
   03B2 C6 05              1434 	add	a,#0x05
   03B4 77                 1435 	ld	(hl),a
                           1436 ;	ishallbequeen.c 307
                           1437 ; genAssign
                           1438 ; AOP_SFR for _NR11_REG
   03B5 3E 7F              1439 	ld	a,#0x7F
   03B7 E0 00              1440 	ldh	(_NR11_REG+0),a
                           1441 ;	ishallbequeen.c 308
                           1442 ; genAssign
                           1443 ; AOP_SFR for _NR12_REG
   03B9 3E 4F              1444 	ld	a,#0x4F
   03BB E0 00              1445 	ldh	(_NR12_REG+0),a
                           1446 ;	ishallbequeen.c 309
                           1447 ; genAssign
                           1448 ; AOP_HL for _powerUpNoise
                           1449 ; AOP_SFR for _NR13_REG
   03BD 7E                 1450 	ld	a,(hl)
   03BE E0 00              1451 	ldh	(_NR13_REG+0),a
                           1452 ;	ishallbequeen.c 310
                           1453 ; genAssign
                           1454 ; AOP_SFR for _NR14_REG
   03C0 3E 84              1455 	ld	a,#0x84
   03C2 E0 00              1456 	ldh	(_NR14_REG+0),a
                           1457 ;	ishallbequeen.c 312
                           1458 ; genCmpEq
                           1459 ; AOP_HL for _powerUpNoise
   03C4 7E                 1460 	ld	a,(hl) ; 2
   03C5 FE FA              1461 	cp	a,#0xFA
   03C7 C2 CC 03           1462 	jp	nz,00447$
   03CA 18 03              1463 	jr	00448$
   03CC                    1464 00447$:
   03CC C3 E4 03           1465 	jp	00149$
   03CF                    1466 00448$:
                           1467 ;	ishallbequeen.c 313
                           1468 ; genAssign
                           1469 ; AOP_SFR for _NR11_REG
   03CF 3E 00              1470 	ld	a,#0x00
   03D1 E0 00              1471 	ldh	(_NR11_REG+0),a
                           1472 ;	ishallbequeen.c 314
                           1473 ; genAssign
                           1474 ; AOP_SFR for _NR12_REG
   03D3 3E 00              1475 	ld	a,#0x00
   03D5 E0 00              1476 	ldh	(_NR12_REG+0),a
                           1477 ;	ishallbequeen.c 315
                           1478 ; genAssign
                           1479 ; AOP_SFR for _NR13_REG
   03D7 3E 00              1480 	ld	a,#0x00
   03D9 E0 00              1481 	ldh	(_NR13_REG+0),a
                           1482 ;	ishallbequeen.c 316
                           1483 ; genAssign
                           1484 ; AOP_SFR for _NR14_REG
   03DB 3E 00              1485 	ld	a,#0x00
   03DD E0 00              1486 	ldh	(_NR14_REG+0),a
                           1487 ;	ishallbequeen.c 317
                           1488 ; genAssign
                           1489 ; AOP_HL for _powerUpNoise
   03DF 21 29 00           1490 	ld	hl,#_powerUpNoise + 0
   03E2 36 FF              1491 	ld	(hl),#0xFF
                           1492 ; genLabel
   03E4                    1493 00149$:
                           1494 ;	ishallbequeen.c 322
                           1495 ; genCmpEq
                           1496 ; AOP_HL for _iFrames
   03E4 21 87 00           1497 	ld	hl,#_iFrames + 0
   03E7 7E                 1498 	ld	a,(hl)
   03E8 B7                 1499 	or	a,a
                           1500 ; Rule 5
   03E9 CA F0 03           1501 	jp	z,00151$
   03EC                    1502 00449$:
                           1503 ;	ishallbequeen.c 323
                           1504 ; genMinus
                           1505 ; AOP_HL for _iFrames
   03EC 21 87 00           1506 	ld	hl,#_iFrames + 0
   03EF 35                 1507 	dec	(hl)
                           1508 ; genLabel
   03F0                    1509 00151$:
                           1510 ;	ishallbequeen.c 326
                           1511 ; genCmpEq
                           1512 ; AOP_HL for _attackDelay
   03F0 21 23 00           1513 	ld	hl,#_attackDelay + 0
   03F3 7E                 1514 	ld	a,(hl)
   03F4 B7                 1515 	or	a,a
                           1516 ; Rule 5
   03F5 CA FC 03           1517 	jp	z,00153$
   03F8                    1518 00450$:
                           1519 ;	ishallbequeen.c 327
                           1520 ; genMinus
                           1521 ; AOP_HL for _attackDelay
   03F8 21 23 00           1522 	ld	hl,#_attackDelay + 0
   03FB 35                 1523 	dec	(hl)
                           1524 ; genLabel
   03FC                    1525 00153$:
                           1526 ;	ishallbequeen.c 332
                           1527 ; genCall
   03FC CD 00 00           1528 	call	_joypad
   03FF 4B                 1529 	ld	c,e
                           1530 ; genAnd
   0400 79                 1531 	ld	a,c
   0401 CB 6F              1532 	bit	5,a
   0403 CA 5A 04           1533 	jp	z,00160$
                           1534 ; genCmpEq
                           1535 ; AOP_HL for _attackDelay
   0406 21 23 00           1536 	ld	hl,#_attackDelay + 0
   0409 7E                 1537 	ld	a,(hl)
   040A B7                 1538 	or	a,a
   040B C2 10 04           1539 	jp	nz,00451$
   040E 18 03              1540 	jr	00452$
   0410                    1541 00451$:
   0410 C3 5A 04           1542 	jp	00160$
   0413                    1543 00452$:
                           1544 ; genCmpEq
                           1545 ; AOP_HL for _punchWindDown
   0413 21 86 00           1546 	ld	hl,#_punchWindDown + 0
   0416 7E                 1547 	ld	a,(hl)
   0417 B7                 1548 	or	a,a
   0418 C2 1D 04           1549 	jp	nz,00453$
   041B 18 03              1550 	jr	00454$
   041D                    1551 00453$:
   041D C3 5A 04           1552 	jp	00160$
   0420                    1553 00454$:
                           1554 ;	ishallbequeen.c 335
                           1555 ; genAssign
                           1556 ; AOP_HL for _isMoving
   0420 21 7F 00           1557 	ld	hl,#_isMoving + 0
   0423 36 00              1558 	ld	(hl),#0x00
                           1559 ;	ishallbequeen.c 336
                           1560 ; genCmpEq
                           1561 ; AOP_HL for _pState
   0425 21 82 00           1562 	ld	hl,#_pState + 0
   0428 7E                 1563 	ld	a,(hl)
   0429 B7                 1564 	or	a,a
   042A C2 31 04           1565 	jp	nz,00455$
   042D 3E 01              1566 	ld	a,#0x01
   042F 18 01              1567 	jr	00456$
   0431                    1568 00455$:
   0431 AF                 1569 	xor	a,a
   0432                    1570 00456$:
   0432 4F                 1571 	ld	c,a
                           1572 ; genIfx
                           1573 ; Removed redundent or a,a
   0433 AF                 1574 	xor	a,a
   0434 B1                 1575 	or	a,c
   0435 CA 3D 04           1576 	jp	z,00155$
                           1577 ;	ishallbequeen.c 337
                           1578 ; genAssign
                           1579 ; AOP_HL for _move
   0438 21 7E 00           1580 	ld	hl,#_move + 0
   043B 36 00              1581 	ld	(hl),#0x00
                           1582 ; genLabel
   043D                    1583 00155$:
                           1584 ;	ishallbequeen.c 339
                           1585 ; genAssign
                           1586 ; AOP_HL for _punchWindDown
   043D 21 86 00           1587 	ld	hl,#_punchWindDown + 0
   0440 36 1E              1588 	ld	(hl),#0x1E
                           1589 ;	ishallbequeen.c 341
                           1590 ; genIfx
                           1591 ; Removed redundent or a,a
   0442 AF                 1592 	xor	a,a
   0443 B1                 1593 	or	a,c
   0444 CA 52 04           1594 	jp	z,00157$
                           1595 ;	ishallbequeen.c 342
                           1596 ; genAssign
                           1597 ; AOP_HL for _playerFrame
   0447 21 83 00           1598 	ld	hl,#_playerFrame + 0
   044A 36 04              1599 	ld	(hl),#0x04
                           1600 ;	ishallbequeen.c 343
                           1601 ; genCall
   044C CD 6D 1B           1602 	call	_updatePlayerFrame
                           1603 ; genGoto
   044F C3 5A 04           1604 	jp	00160$
                           1605 ; genLabel
   0452                    1606 00157$:
                           1607 ;	ishallbequeen.c 345
                           1608 ; genAssign
                           1609 ; AOP_HL for _playerFrame
   0452 21 83 00           1610 	ld	hl,#_playerFrame + 0
   0455 36 07              1611 	ld	(hl),#0x07
                           1612 ;	ishallbequeen.c 346
                           1613 ; genCall
   0457 CD 6D 1B           1614 	call	_updatePlayerFrame
                           1615 ; genLabel
   045A                    1616 00160$:
                           1617 ;	ishallbequeen.c 352
                           1618 ; genCmpEq
                           1619 ; AOP_HL for _punchWindDown
                           1620 ; AOP_STK for _main_sloc15_1_0
   045A 21 86 00           1621 	ld	hl,#_punchWindDown + 0
   045D 7E                 1622 	ld	a,(hl)
   045E B7                 1623 	or	a,a
   045F C2 66 04           1624 	jp	nz,00457$
   0462 3E 01              1625 	ld	a,#0x01
   0464 18 01              1626 	jr	00458$
   0466                    1627 00457$:
   0466 AF                 1628 	xor	a,a
   0467                    1629 00458$:
   0467 F8 0F              1630 	lda	hl,15(sp)
   0469 77                 1631 	ld	(hl),a ; 3
                           1632 ; genIfx
                           1633 ; AOP_STK for _main_sloc15_1_0
                           1634 ; Removed redundent or a,a
   046A AF                 1635 	xor	a,a
   046B B6                 1636 	or	a,(hl)
   046C C2 6F 0B           1637 	jp	nz,00207$
                           1638 ;	ishallbequeen.c 353
                           1639 ; genMinus
                           1640 ; AOP_HL for _punchWindDown
   046F 21 86 00           1641 	ld	hl,#_punchWindDown + 0
   0472 35                 1642 	dec	(hl)
                           1643 ;	ishallbequeen.c 355
                           1644 ; genCmpEq
                           1645 ; AOP_HL for _pState
   0473 21 82 00           1646 	ld	hl,#_pState + 0
   0476 7E                 1647 	ld	a,(hl)
   0477 B7                 1648 	or	a,a
   0478 C2 7D 04           1649 	jp	nz,00459$
   047B 18 03              1650 	jr	00460$
   047D                    1651 00459$:
   047D C3 95 07           1652 	jp	00201$
   0480                    1653 00460$:
                           1654 ;	ishallbequeen.c 356
                           1655 ; genCmpEq
                           1656 ; AOP_HL for _punchWindDown
   0480 21 86 00           1657 	ld	hl,#_punchWindDown + 0
   0483 7E                 1658 	ld	a,(hl) ; 2
   0484 FE 0F              1659 	cp	a,#0x0F
   0486 C2 8B 04           1660 	jp	nz,00461$
   0489 18 03              1661 	jr	00462$
   048B                    1662 00461$:
   048B C3 E8 04           1663 	jp	00167$
   048E                    1664 00462$:
                           1665 ;	ishallbequeen.c 357
                           1666 ; genAssign
                           1667 ; AOP_HL for _playerFrame
   048E 21 83 00           1668 	ld	hl,#_playerFrame + 0
   0491 36 05              1669 	ld	(hl),#0x05
                           1670 ;	ishallbequeen.c 358
                           1671 ; genCall
   0493 CD 6D 1B           1672 	call	_updatePlayerFrame
                           1673 ;	ishallbequeen.c 360
                           1674 ; genCmpEq
                           1675 ; AOP_HL for _flipX
   0496 21 8B 00           1676 	ld	hl,#_flipX + 0
   0499 7E                 1677 	ld	a,(hl)
   049A B7                 1678 	or	a,a
   049B C2 A0 04           1679 	jp	nz,00463$
   049E 18 03              1680 	jr	00464$
   04A0                    1681 00463$:
   04A0 C3 C7 04           1682 	jp	00164$
   04A3                    1683 00464$:
                           1684 ;	ishallbequeen.c 362
                           1685 ; genPlus
                           1686 ; AOP_HL for _pY
                           1687 ; AOP_STK for _main_sloc16_1_0
                           1688 ; genPlusIncr
   04A3 21 81 00           1689 	ld	hl,#_pY + 0
   04A6 7E                 1690 	ld	a,(hl)
   04A7 C6 10              1691 	add	a,#0x10
   04A9 F8 0E              1692 	lda	hl,14(sp)
   04AB 77                 1693 	ld	(hl),a ; 3
                           1694 ; genPlus
                           1695 ; AOP_HL for _pX
                           1696 ; genPlusIncr
   04AC 21 80 00           1697 	ld	hl,#_pX + 0
   04AF 7E                 1698 	ld	a,(hl)
   04B0 C6 18              1699 	add	a,#0x18
   04B2 47                 1700 	ld	b,a
                           1701 ; genIpush
                           1702 ; AOP_STK for _main_sloc16_1_0
   04B3 F8 0E              1703 	lda	hl,14(sp)
   04B5 7E                 1704 	ld	a,(hl)
   04B6 F5                 1705 	push	af
   04B7 33                 1706 	inc	sp
                           1707 ; genIpush
   04B8 78                 1708 	ld	a,b
   04B9 F5                 1709 	push	af
   04BA 33                 1710 	inc	sp
                           1711 ; genIpush
   04BB 3E 27              1712 	ld	a,#0x27
   04BD F5                 1713 	push	af
   04BE 33                 1714 	inc	sp
                           1715 ; genCall
   04BF CD 00 00           1716 	call	_move_sprite
   04C2 E8 03              1717 	lda	sp,3(sp)
                           1718 ;	ishallbequeen.c 364
                           1719 ; genGoto
   04C4 C3 E8 04           1720 	jp	00167$
                           1721 ;	ishallbequeen.c 366
                           1722 ; genLabel
   04C7                    1723 00164$:
                           1724 ; genPlus
                           1725 ; AOP_HL for _pY
                           1726 ; AOP_STK for _main_sloc16_1_0
                           1727 ; genPlusIncr
   04C7 21 81 00           1728 	ld	hl,#_pY + 0
   04CA 7E                 1729 	ld	a,(hl)
   04CB C6 10              1730 	add	a,#0x10
   04CD F8 0E              1731 	lda	hl,14(sp)
   04CF 77                 1732 	ld	(hl),a ; 3
                           1733 ; genMinus
                           1734 ; AOP_HL for _pX
   04D0 21 80 00           1735 	ld	hl,#_pX + 0
   04D3 7E                 1736 	ld	a,(hl)
   04D4 C6 F8              1737 	add	a,#0xF8
   04D6 47                 1738 	ld	b,a
                           1739 ; genIpush
                           1740 ; AOP_STK for _main_sloc16_1_0
   04D7 F8 0E              1741 	lda	hl,14(sp)
   04D9 7E                 1742 	ld	a,(hl)
   04DA F5                 1743 	push	af
   04DB 33                 1744 	inc	sp
                           1745 ; genIpush
   04DC 78                 1746 	ld	a,b
   04DD F5                 1747 	push	af
   04DE 33                 1748 	inc	sp
                           1749 ; genIpush
   04DF 3E 27              1750 	ld	a,#0x27
   04E1 F5                 1751 	push	af
   04E2 33                 1752 	inc	sp
                           1753 ; genCall
   04E3 CD 00 00           1754 	call	_move_sprite
   04E6 E8 03              1755 	lda	sp,3(sp)
                           1756 ;	ishallbequeen.c 368
                           1757 ; genLabel
   04E8                    1758 00167$:
                           1759 ;	ishallbequeen.c 372
                           1760 ; genCmpLt
                           1761 ; AOP_HL for _punchWindDown
   04E8 21 86 00           1762 	ld	hl,#_punchWindDown + 0
   04EB 7E                 1763 	ld	a,(hl)
   04EC FE 12              1764 	cp	#0x12
   04EE D2 14 0B           1765 	jp	nc,00202$
                           1766 ;	ishallbequeen.c 374
                           1767 ; genCmpEq
                           1768 ; AOP_HL for _flipX
   04F1 21 8B 00           1769 	ld	hl,#_flipX + 0
   04F4 7E                 1770 	ld	a,(hl)
   04F5 B7                 1771 	or	a,a
   04F6 C2 FB 04           1772 	jp	nz,00465$
   04F9 18 03              1773 	jr	00466$
   04FB                    1774 00465$:
   04FB C3 4A 06           1775 	jp	00177$
   04FE                    1776 00466$:
                           1777 ;	ishallbequeen.c 377
                           1778 ; genAssign
                           1779 ; AOP_HL for _i
   04FE 21 0B 00           1780 	ld	hl,#_i + 0
   0501 36 00              1781 	ld	(hl),#0x00
                           1782 ; genLabel
   0503                    1783 00288$:
                           1784 ; genCmpEq
                           1785 ; AOP_HL for _i
                           1786 ; AOP_STK for _main_sloc9_1_0
   0503 21 0B 00           1787 	ld	hl,#_i + 0
   0506 7E                 1788 	ld	a,(hl) ; 2
   0507 FE 03              1789 	cp	a,#0x03
   0509 C2 10 05           1790 	jp	nz,00467$
   050C 3E 01              1791 	ld	a,#0x01
   050E 18 01              1792 	jr	00468$
   0510                    1793 00467$:
   0510 AF                 1794 	xor	a,a
   0511                    1795 00468$:
   0511 F8 15              1796 	lda	hl,21(sp)
   0513 77                 1797 	ld	(hl),a ; 3
                           1798 ; genIfx
                           1799 ; AOP_STK for _main_sloc9_1_0
                           1800 ; Removed redundent or a,a
   0514 AF                 1801 	xor	a,a
   0515 B6                 1802 	or	a,(hl)
   0516 C2 14 0B           1803 	jp	nz,00202$
                           1804 ;	ishallbequeen.c 379
                           1805 ; genAssign
                           1806 ; AOP_HL for _i
                           1807 ; AOP_STK for _main_sloc16_1_0
   0519 21 0B 00           1808 	ld	hl,#_i + 0
   051C 7E                 1809 	ld	a,(hl)
   051D F8 0E              1810 	lda	hl,14(sp)
   051F 77                 1811 	ld	(hl),a ; 3
                           1812 ; genPlus
                           1813 ; AOP_STK for _main_sloc16_1_0
   0520 3E AF              1814 	ld	a,#<_eY
   0522 86                 1815 	add	a,(hl)
   0523 5F                 1816 	ld	e,a
   0524 3E 00              1817 	ld	a,#>_eY
   0526 CE 00              1818 	adc	a,#0x00
   0528 57                 1819 	ld	d,a
                           1820 ; genPointerGet
                           1821 ; AOP_STK for _main_sloc14_1_0
   0529 1A                 1822 	ld	a,(de)
   052A 23                 1823 	inc	hl
   052B 23                 1824 	inc	hl
   052C 77                 1825 	ld	(hl),a ; 3
                           1826 ; genAssign
                           1827 ; AOP_HL for _i
                           1828 ; AOP_STK for _main_sloc13_1_0
   052D 21 0B 00           1829 	ld	hl,#_i + 0
   0530 7E                 1830 	ld	a,(hl)
   0531 F8 11              1831 	lda	hl,17(sp)
   0533 77                 1832 	ld	(hl),a ; 3
                           1833 ; genPlus
                           1834 ; AOP_STK for _main_sloc13_1_0
   0534 3E AC              1835 	ld	a,#<_eX
   0536 86                 1836 	add	a,(hl)
   0537 5F                 1837 	ld	e,a
   0538 3E 00              1838 	ld	a,#>_eX
   053A CE 00              1839 	adc	a,#0x00
   053C 57                 1840 	ld	d,a
                           1841 ; genPointerGet
                           1842 ; AOP_STK for _main_sloc12_1_0
   053D 1A                 1843 	ld	a,(de)
   053E 23                 1844 	inc	hl
   053F 77                 1845 	ld	(hl),a ; 3
                           1846 ; genPlus
                           1847 ; AOP_HL for _pY
                           1848 ; AOP_STK for _main_sloc11_1_0
                           1849 ; genPlusIncr
   0540 21 81 00           1850 	ld	hl,#_pY + 0
   0543 7E                 1851 	ld	a,(hl)
   0544 C6 10              1852 	add	a,#0x10
   0546 F8 13              1853 	lda	hl,19(sp)
   0548 77                 1854 	ld	(hl),a ; 3
                           1855 ; genPlus
                           1856 ; AOP_HL for _pX
                           1857 ; AOP_STK for _main_sloc10_1_0
                           1858 ; genPlusIncr
   0549 21 80 00           1859 	ld	hl,#_pX + 0
   054C 7E                 1860 	ld	a,(hl)
   054D C6 18              1861 	add	a,#0x18
   054F F8 14              1862 	lda	hl,20(sp)
   0551 77                 1863 	ld	(hl),a ; 3
                           1864 ; genIpush
   0552 3E 10              1865 	ld	a,#0x10
   0554 F5                 1866 	push	af
   0555 33                 1867 	inc	sp
                           1868 ; genIpush
   0556 3E 10              1869 	ld	a,#0x10
   0558 F5                 1870 	push	af
   0559 33                 1871 	inc	sp
                           1872 ; genIpush
                           1873 ; AOP_STK for _main_sloc14_1_0
   055A F8 12              1874 	lda	hl,18(sp)
   055C 7E                 1875 	ld	a,(hl)
   055D F5                 1876 	push	af
   055E 33                 1877 	inc	sp
                           1878 ; genIpush
                           1879 ; AOP_STK for _main_sloc12_1_0
   055F 23                 1880 	inc	hl
   0560 23                 1881 	inc	hl
   0561 7E                 1882 	ld	a,(hl)
   0562 F5                 1883 	push	af
   0563 33                 1884 	inc	sp
                           1885 ; genIpush
   0564 3E 08              1886 	ld	a,#0x08
   0566 F5                 1887 	push	af
   0567 33                 1888 	inc	sp
                           1889 ; genIpush
   0568 3E 08              1890 	ld	a,#0x08
   056A F5                 1891 	push	af
   056B 33                 1892 	inc	sp
                           1893 ; genIpush
                           1894 ; AOP_STK for _main_sloc11_1_0
   056C 23                 1895 	inc	hl
   056D 7E                 1896 	ld	a,(hl)
   056E F5                 1897 	push	af
   056F 33                 1898 	inc	sp
                           1899 ; genIpush
                           1900 ; AOP_STK for _main_sloc10_1_0
   0570 23                 1901 	inc	hl
   0571 7E                 1902 	ld	a,(hl)
   0572 F5                 1903 	push	af
   0573 33                 1904 	inc	sp
                           1905 ; genCall
   0574 CD AF 25           1906 	call	_collisionCheck
                           1907 ; AOP_STK for _main_sloc7_1_0
   0577 F8 20              1908 	lda	hl,32(sp)
   0579 73                 1909 	ld	(hl),e ; 3
   057A E8 08              1910 	lda	sp,8(sp)
                           1911 ; genCmpEq
                           1912 ; AOP_STK for _main_sloc7_1_0
                           1913 ; AOP_STK for _main_sloc8_1_0
   057C 7E                 1914 	ld	a,(hl) ; 2
   057D FE 01              1915 	cp	a,#0x01
   057F C2 86 05           1916 	jp	nz,00469$
   0582 3E 01              1917 	ld	a,#0x01
   0584 18 01              1918 	jr	00470$
   0586                    1919 00469$:
   0586 AF                 1920 	xor	a,a
   0587                    1921 00470$:
   0587 F8 17              1922 	lda	hl,23(sp)
   0589 77                 1923 	ld	(hl),a ; 3
                           1924 ; genIfx
                           1925 ; AOP_STK for _main_sloc8_1_0
                           1926 ; Removed redundent or a,a
   058A AF                 1927 	xor	a,a
   058B B6                 1928 	or	a,(hl)
   058C CA 3E 06           1929 	jp	z,00290$
                           1930 ;	ishallbequeen.c 380
                           1931 ; genAssign
                           1932 ; (operands are equal 3)
                           1933 ; genAssign
                           1934 ; AOP_HL for _i
                           1935 ; AOP_HL for _eHitIndex
   058F 21 0B 00           1936 	ld	hl,#_i + 0
   0592 7E                 1937 	ld	a,(hl)
   0593 21 8A 00           1938 	ld	hl,#_eHitIndex + 0
   0596 77                 1939 	ld	(hl),a
                           1940 ;	ishallbequeen.c 381
                           1941 ; genAssign
                           1942 ; AOP_HL for _eHitIndex
                           1943 ; AOP_STK for _main_sloc5_1_0
   0597 7E                 1944 	ld	a,(hl)
   0598 F8 1A              1945 	lda	hl,26(sp)
   059A 77                 1946 	ld	(hl),a ; 3
                           1947 ; genPlus
                           1948 ; AOP_STK for _main_sloc5_1_0
                           1949 ; AOP_STK for _main_sloc17_1_0
   059B 3E B8              1950 	ld	a,#<_eHP
   059D 86                 1951 	add	a,(hl)
   059E F8 0C              1952 	lda	hl,12(sp)
   05A0 77                 1953 	ld	(hl),a ; 3
   05A1 3E 00              1954 	ld	a,#>_eHP
   05A3 CE 00              1955 	adc	a,#0x00
   05A5 23                 1956 	inc	hl
   05A6 77                 1957 	ld	(hl),a ; 3
                           1958 ; genAssign
                           1959 ; AOP_HL for _eHitIndex
                           1960 ; AOP_STK for _main_sloc6_1_0
   05A7 21 8A 00           1961 	ld	hl,#_eHitIndex + 0
   05AA 7E                 1962 	ld	a,(hl)
   05AB F8 19              1963 	lda	hl,25(sp)
   05AD 77                 1964 	ld	(hl),a ; 3
                           1965 ; genPlus
                           1966 ; AOP_STK for _main_sloc6_1_0
   05AE 3E B8              1967 	ld	a,#<_eHP
   05B0 86                 1968 	add	a,(hl)
   05B1 5F                 1969 	ld	e,a
   05B2 3E 00              1970 	ld	a,#>_eHP
   05B4 CE 00              1971 	adc	a,#0x00
   05B6 57                 1972 	ld	d,a
                           1973 ; genPointerGet
                           1974 ; AOP_STK for _main_sloc3_1_0
   05B7 1A                 1975 	ld	a,(de)
   05B8 F8 1C              1976 	lda	hl,28(sp)
   05BA 77                 1977 	ld	(hl),a ; 3
                           1978 ; genMinus
                           1979 ; AOP_STK for _main_sloc3_1_0
                           1980 ; AOP_HL for _myDamage
                           1981 ; AOP_STK for _main_sloc4_1_0
   05BB 7E                 1982 	ld	a,(hl)
   05BC 21 85 00           1983 	ld	hl,#_myDamage + 0
   05BF 96                 1984 	sub	a,(hl)
   05C0 F8 1B              1985 	lda	hl,27(sp)
   05C2 77                 1986 	ld	(hl),a ; 3
                           1987 ; genAssign (pointer)
                           1988 ; AOP_STK for _main_sloc17_1_0
                           1989 ; AOP_STK for _main_sloc4_1_0
   05C3 F8 0C              1990 	lda	hl,12(sp)
   05C5 5E                 1991 	ld	e,(hl)
   05C6 23                 1992 	inc	hl
   05C7 56                 1993 	ld	d,(hl)
   05C8 F8 1B              1994 	lda	hl,27(sp)
   05CA 7E                 1995 	ld	a,(hl)
   05CB 12                 1996 	ld	(de),a
                           1997 ;	ishallbequeen.c 382
                           1998 ; genAssign
                           1999 ; AOP_HL for _i
                           2000 ; AOP_STK for _main_sloc1_1_0
   05CC 21 0B 00           2001 	ld	hl,#_i + 0
   05CF 7E                 2002 	ld	a,(hl)
   05D0 F8 1E              2003 	lda	hl,30(sp)
   05D2 77                 2004 	ld	(hl),a ; 3
                           2005 ; genPlus
                           2006 ; AOP_STK for _main_sloc1_1_0
                           2007 ; AOP_STK for _main_sloc18_1_0
   05D3 3E AC              2008 	ld	a,#<_eX
   05D5 86                 2009 	add	a,(hl)
   05D6 F8 0A              2010 	lda	hl,10(sp)
   05D8 77                 2011 	ld	(hl),a ; 3
   05D9 3E 00              2012 	ld	a,#>_eX
   05DB CE 00              2013 	adc	a,#0x00
   05DD 23                 2014 	inc	hl
   05DE 77                 2015 	ld	(hl),a ; 3
                           2016 ; genAssign
                           2017 ; AOP_HL for _i
                           2018 ; AOP_STK for _main_sloc2_1_0
   05DF 21 0B 00           2019 	ld	hl,#_i + 0
   05E2 7E                 2020 	ld	a,(hl)
   05E3 F8 1D              2021 	lda	hl,29(sp)
   05E5 77                 2022 	ld	(hl),a ; 3
                           2023 ; genPlus
                           2024 ; AOP_STK for _main_sloc2_1_0
   05E6 3E AC              2025 	ld	a,#<_eX
   05E8 86                 2026 	add	a,(hl)
   05E9 5F                 2027 	ld	e,a
   05EA 3E 00              2028 	ld	a,#>_eX
   05EC CE 00              2029 	adc	a,#0x00
   05EE 57                 2030 	ld	d,a
                           2031 ; genPointerGet
                           2032 ; AOP_STK for _main_sloc20_1_0
   05EF 1A                 2033 	ld	a,(de)
   05F0 F8 08              2034 	lda	hl,8(sp)
   05F2 77                 2035 	ld	(hl),a ; 3
                           2036 ; genPlus
                           2037 ; AOP_STK for _main_sloc20_1_0
                           2038 ; AOP_STK for _main_sloc0_1_0
                           2039 ; genPlusIncr
   05F3 7E                 2040 	ld	a,(hl)
   05F4 C6 08              2041 	add	a,#0x08
   05F6 F8 1F              2042 	lda	hl,31(sp)
   05F8 77                 2043 	ld	(hl),a ; 3
                           2044 ; genAssign (pointer)
                           2045 ; AOP_STK for _main_sloc18_1_0
                           2046 ; AOP_STK for _main_sloc0_1_0
   05F9 F8 0A              2047 	lda	hl,10(sp)
   05FB 5E                 2048 	ld	e,(hl)
   05FC 23                 2049 	inc	hl
   05FD 56                 2050 	ld	d,(hl)
   05FE F8 1F              2051 	lda	hl,31(sp)
   0600 7E                 2052 	ld	a,(hl)
   0601 12                 2053 	ld	(de),a
                           2054 ;	ishallbequeen.c 383
                           2055 ; genAssign
                           2056 ; AOP_HL for _screenShake
   0602 21 20 00           2057 	ld	hl,#_screenShake + 0
   0605 36 03              2058 	ld	(hl),#0x03
                           2059 ;	ishallbequeen.c 384
                           2060 ; genAssign
                           2061 ; AOP_HL for _shakeDir
   0607 21 21 00           2062 	ld	hl,#_shakeDir + 0
   060A 36 01              2063 	ld	(hl),#0x01
                           2064 ;	ishallbequeen.c 387
                           2065 ; genAssign
                           2066 ; AOP_HL for _eHitIndex
                           2067 ; AOP_STK for _main_sloc19_1_0
   060C 21 8A 00           2068 	ld	hl,#_eHitIndex + 0
   060F 7E                 2069 	ld	a,(hl)
   0610 F8 09              2070 	lda	hl,9(sp)
   0612 77                 2071 	ld	(hl),a ; 3
                           2072 ; genPlus
                           2073 ; AOP_STK for _main_sloc19_1_0
   0613 3E B8              2074 	ld	a,#<_eHP
   0615 86                 2075 	add	a,(hl)
   0616 5F                 2076 	ld	e,a
   0617 3E 00              2077 	ld	a,#>_eHP
   0619 CE 00              2078 	adc	a,#0x00
   061B 57                 2079 	ld	d,a
                           2080 ; genPointerGet
                           2081 ; AOP_STK for _main_sloc22_1_0
   061C 1A                 2082 	ld	a,(de)
   061D F8 06              2083 	lda	hl,6(sp)
   061F 77                 2084 	ld	(hl),a ; 3
                           2085 ; genCmpGt
                           2086 ; AOP_STK for _main_sloc22_1_0
                           2087 ; AOP_STK for _main_sloc21_1_0
   0620 AF                 2088 	xor	a,a
   0621 3E DC              2089 	ld	a,#0xDC
   0623 9E                 2090 	sbc	a,(hl) ; 2
   0624 3E 00              2091 	ld	a,#0x00
   0626 17                 2092 	rla
   0627 23                 2093 	inc	hl
   0628 77                 2094 	ld	(hl),a ; 3
                           2095 ; genIfx
                           2096 ; AOP_STK for _main_sloc21_1_0
                           2097 ; Removed redundent or a,a
   0629 AF                 2098 	xor	a,a
   062A B6                 2099 	or	a,(hl)
   062B CA 3E 06           2100 	jp	z,00290$
                           2101 ;	ishallbequeen.c 388
                           2102 ; genAssign
                           2103 ; AOP_HL for _screenShake
   062E 21 20 00           2104 	ld	hl,#_screenShake + 0
   0631 36 03              2105 	ld	(hl),#0x03
                           2106 ;	ishallbequeen.c 389
                           2107 ; genIpush
                           2108 ; AOP_HL for _eHitIndex
   0633 21 8A 00           2109 	ld	hl,#_eHitIndex + 0
   0636 7E                 2110 	ld	a,(hl)
   0637 F5                 2111 	push	af
   0638 33                 2112 	inc	sp
                           2113 ; genCall
   0639 CD 77 29           2114 	call	_destroyEnemy
   063C E8 01              2115 	lda	sp,1(sp)
                           2116 ; genLabel
   063E                    2117 00290$:
                           2118 ;	ishallbequeen.c 377
                           2119 ; genPlus
                           2120 ; AOP_HL for _i
                           2121 ; genPlusIncr
   063E 21 0B 00           2122 	ld	hl,#_i + 0
   0641 7E                 2123 	ld	a,(hl)
   0642 C6 01              2124 	add	a,#0x01
   0644 4F                 2125 	ld	c,a
                           2126 ; genAssign
   0645 41                 2127 	ld	b,c
                           2128 ; genAssign
                           2129 ; AOP_HL for _i
   0646 70                 2130 	ld	(hl),b
                           2131 ; genGoto
   0647 C3 03 05           2132 	jp	00288$
                           2133 ;	ishallbequeen.c 416
                           2134 ; genLabel
   064A                    2135 00177$:
                           2136 ;	ishallbequeen.c 399
                           2137 ; genAssign
                           2138 ; AOP_HL for _i
   064A 21 0B 00           2139 	ld	hl,#_i + 0
   064D 36 00              2140 	ld	(hl),#0x00
                           2141 ; genLabel
   064F                    2142 00292$:
                           2143 ; genCmpEq
                           2144 ; AOP_HL for _i
                           2145 ; AOP_STK for _main_sloc16_1_0
   064F 21 0B 00           2146 	ld	hl,#_i + 0
   0652 7E                 2147 	ld	a,(hl) ; 2
   0653 FE 03              2148 	cp	a,#0x03
   0655 C2 5C 06           2149 	jp	nz,00471$
   0658 3E 01              2150 	ld	a,#0x01
   065A 18 01              2151 	jr	00472$
   065C                    2152 00471$:
   065C AF                 2153 	xor	a,a
   065D                    2154 00472$:
   065D F8 0E              2155 	lda	hl,14(sp)
   065F 77                 2156 	ld	(hl),a ; 3
                           2157 ; genIfx
                           2158 ; AOP_STK for _main_sloc16_1_0
                           2159 ; Removed redundent or a,a
   0660 AF                 2160 	xor	a,a
   0661 B6                 2161 	or	a,(hl)
   0662 C2 14 0B           2162 	jp	nz,00202$
                           2163 ;	ishallbequeen.c 401
                           2164 ; genAssign
                           2165 ; AOP_HL for _i
                           2166 ; AOP_STK for _main_sloc22_1_0
   0665 21 0B 00           2167 	ld	hl,#_i + 0
   0668 7E                 2168 	ld	a,(hl)
   0669 F8 06              2169 	lda	hl,6(sp)
   066B 77                 2170 	ld	(hl),a ; 3
                           2171 ; genPlus
                           2172 ; AOP_STK for _main_sloc22_1_0
   066C 3E AF              2173 	ld	a,#<_eY
   066E 86                 2174 	add	a,(hl)
   066F 5F                 2175 	ld	e,a
   0670 3E 00              2176 	ld	a,#>_eY
   0672 CE 00              2177 	adc	a,#0x00
   0674 57                 2178 	ld	d,a
                           2179 ; genPointerGet
                           2180 ; AOP_STK for _main_sloc21_1_0
   0675 1A                 2181 	ld	a,(de)
   0676 23                 2182 	inc	hl
   0677 77                 2183 	ld	(hl),a ; 3
                           2184 ; genAssign
                           2185 ; AOP_HL for _i
                           2186 ; AOP_STK for _main_sloc20_1_0
   0678 21 0B 00           2187 	ld	hl,#_i + 0
   067B 7E                 2188 	ld	a,(hl)
   067C F8 08              2189 	lda	hl,8(sp)
   067E 77                 2190 	ld	(hl),a ; 3
                           2191 ; genPlus
                           2192 ; AOP_STK for _main_sloc20_1_0
   067F 3E AC              2193 	ld	a,#<_eX
   0681 86                 2194 	add	a,(hl)
   0682 5F                 2195 	ld	e,a
   0683 3E 00              2196 	ld	a,#>_eX
   0685 CE 00              2197 	adc	a,#0x00
   0687 57                 2198 	ld	d,a
                           2199 ; genPointerGet
                           2200 ; AOP_STK for _main_sloc19_1_0
   0688 1A                 2201 	ld	a,(de)
   0689 23                 2202 	inc	hl
   068A 77                 2203 	ld	(hl),a ; 3
                           2204 ; genPlus
                           2205 ; AOP_HL for _pY
                           2206 ; AOP_STK for _main_sloc18_1_0
                           2207 ; genPlusIncr
   068B 21 81 00           2208 	ld	hl,#_pY + 0
   068E 7E                 2209 	ld	a,(hl)
   068F C6 10              2210 	add	a,#0x10
   0691 F8 0A              2211 	lda	hl,10(sp)
   0693 77                 2212 	ld	(hl),a ; 3
                           2213 ; genMinus
                           2214 ; AOP_HL for _pX
                           2215 ; AOP_STK for _main_sloc17_1_0
   0694 21 80 00           2216 	ld	hl,#_pX + 0
   0697 7E                 2217 	ld	a,(hl)
   0698 C6 F8              2218 	add	a,#0xF8
   069A F8 0C              2219 	lda	hl,12(sp)
   069C 77                 2220 	ld	(hl),a ; 3
                           2221 ; genIpush
   069D 3E 10              2222 	ld	a,#0x10
   069F F5                 2223 	push	af
   06A0 33                 2224 	inc	sp
                           2225 ; genIpush
   06A1 3E 10              2226 	ld	a,#0x10
   06A3 F5                 2227 	push	af
   06A4 33                 2228 	inc	sp
                           2229 ; genIpush
                           2230 ; AOP_STK for _main_sloc21_1_0
   06A5 F8 09              2231 	lda	hl,9(sp)
   06A7 7E                 2232 	ld	a,(hl)
   06A8 F5                 2233 	push	af
   06A9 33                 2234 	inc	sp
                           2235 ; genIpush
                           2236 ; AOP_STK for _main_sloc19_1_0
   06AA 23                 2237 	inc	hl
   06AB 23                 2238 	inc	hl
   06AC 7E                 2239 	ld	a,(hl)
   06AD F5                 2240 	push	af
   06AE 33                 2241 	inc	sp
                           2242 ; genIpush
   06AF 3E 08              2243 	ld	a,#0x08
   06B1 F5                 2244 	push	af
   06B2 33                 2245 	inc	sp
                           2246 ; genIpush
   06B3 3E 08              2247 	ld	a,#0x08
   06B5 F5                 2248 	push	af
   06B6 33                 2249 	inc	sp
                           2250 ; genIpush
                           2251 ; AOP_STK for _main_sloc18_1_0
   06B7 23                 2252 	inc	hl
   06B8 7E                 2253 	ld	a,(hl)
   06B9 F5                 2254 	push	af
   06BA 33                 2255 	inc	sp
                           2256 ; genIpush
                           2257 ; AOP_STK for _main_sloc17_1_0
   06BB 23                 2258 	inc	hl
   06BC 23                 2259 	inc	hl
   06BD 7E                 2260 	ld	a,(hl)
   06BE F5                 2261 	push	af
   06BF 33                 2262 	inc	sp
                           2263 ; genCall
   06C0 CD AF 25           2264 	call	_collisionCheck
                           2265 ; AOP_STK for _main_sloc13_1_0
   06C3 F8 19              2266 	lda	hl,25(sp)
   06C5 73                 2267 	ld	(hl),e ; 3
   06C6 E8 08              2268 	lda	sp,8(sp)
                           2269 ; genCmpEq
                           2270 ; AOP_STK for _main_sloc13_1_0
                           2271 ; AOP_STK for _main_sloc14_1_0
   06C8 7E                 2272 	ld	a,(hl) ; 2
   06C9 FE 01              2273 	cp	a,#0x01
   06CB C2 D2 06           2274 	jp	nz,00473$
   06CE 3E 01              2275 	ld	a,#0x01
   06D0 18 01              2276 	jr	00474$
   06D2                    2277 00473$:
   06D2 AF                 2278 	xor	a,a
   06D3                    2279 00474$:
   06D3 F8 10              2280 	lda	hl,16(sp)
   06D5 77                 2281 	ld	(hl),a ; 3
                           2282 ; genIfx
                           2283 ; AOP_STK for _main_sloc14_1_0
                           2284 ; Removed redundent or a,a
   06D6 AF                 2285 	xor	a,a
   06D7 B6                 2286 	or	a,(hl)
   06D8 CA 89 07           2287 	jp	z,00294$
                           2288 ;	ishallbequeen.c 402
                           2289 ; genAssign
                           2290 ; (operands are equal 3)
                           2291 ; genAssign
                           2292 ; AOP_HL for _i
                           2293 ; AOP_HL for _eHitIndex
   06DB 21 0B 00           2294 	ld	hl,#_i + 0
   06DE 7E                 2295 	ld	a,(hl)
   06DF 21 8A 00           2296 	ld	hl,#_eHitIndex + 0
   06E2 77                 2297 	ld	(hl),a
                           2298 ;	ishallbequeen.c 403
                           2299 ; genAssign
                           2300 ; AOP_HL for _eHitIndex
                           2301 ; AOP_STK for _main_sloc11_1_0
   06E3 7E                 2302 	ld	a,(hl)
   06E4 F8 13              2303 	lda	hl,19(sp)
   06E6 77                 2304 	ld	(hl),a ; 3
                           2305 ; genPlus
                           2306 ; AOP_STK for _main_sloc11_1_0
                           2307 ; AOP_STK for _main_sloc9_1_0
   06E7 3E B8              2308 	ld	a,#<_eHP
   06E9 86                 2309 	add	a,(hl)
   06EA 23                 2310 	inc	hl
   06EB 23                 2311 	inc	hl
   06EC 77                 2312 	ld	(hl),a ; 3
   06ED 3E 00              2313 	ld	a,#>_eHP
   06EF CE 00              2314 	adc	a,#0x00
   06F1 23                 2315 	inc	hl
   06F2 77                 2316 	ld	(hl),a ; 3
                           2317 ; genAssign
                           2318 ; AOP_HL for _eHitIndex
                           2319 ; AOP_STK for _main_sloc12_1_0
   06F3 21 8A 00           2320 	ld	hl,#_eHitIndex + 0
   06F6 7E                 2321 	ld	a,(hl)
   06F7 F8 12              2322 	lda	hl,18(sp)
   06F9 77                 2323 	ld	(hl),a ; 3
                           2324 ; genPlus
                           2325 ; AOP_STK for _main_sloc12_1_0
   06FA 3E B8              2326 	ld	a,#<_eHP
   06FC 86                 2327 	add	a,(hl)
   06FD 5F                 2328 	ld	e,a
   06FE 3E 00              2329 	ld	a,#>_eHP
   0700 CE 00              2330 	adc	a,#0x00
   0702 57                 2331 	ld	d,a
                           2332 ; genPointerGet
                           2333 ; AOP_STK for _main_sloc8_1_0
   0703 1A                 2334 	ld	a,(de)
   0704 F8 17              2335 	lda	hl,23(sp)
   0706 77                 2336 	ld	(hl),a ; 3
                           2337 ; genMinus
                           2338 ; AOP_STK for _main_sloc8_1_0
                           2339 ; AOP_HL for _myDamage
                           2340 ; AOP_STK for _main_sloc10_1_0
   0707 7E                 2341 	ld	a,(hl)
   0708 21 85 00           2342 	ld	hl,#_myDamage + 0
   070B 96                 2343 	sub	a,(hl)
   070C F8 14              2344 	lda	hl,20(sp)
   070E 77                 2345 	ld	(hl),a ; 3
                           2346 ; genAssign (pointer)
                           2347 ; AOP_STK for _main_sloc9_1_0
                           2348 ; AOP_STK for _main_sloc10_1_0
   070F 23                 2349 	inc	hl
   0710 5E                 2350 	ld	e,(hl)
   0711 23                 2351 	inc	hl
   0712 56                 2352 	ld	d,(hl)
   0713 2B                 2353 	dec	hl
   0714 2B                 2354 	dec	hl
   0715 7E                 2355 	ld	a,(hl)
   0716 12                 2356 	ld	(de),a
                           2357 ;	ishallbequeen.c 404
                           2358 ; genAssign
                           2359 ; AOP_HL for _i
                           2360 ; AOP_STK for _main_sloc6_1_0
   0717 21 0B 00           2361 	ld	hl,#_i + 0
   071A 7E                 2362 	ld	a,(hl)
   071B F8 19              2363 	lda	hl,25(sp)
   071D 77                 2364 	ld	(hl),a ; 3
                           2365 ; genPlus
                           2366 ; AOP_STK for _main_sloc6_1_0
                           2367 ; AOP_STK for _main_sloc23_1_0
   071E 3E AC              2368 	ld	a,#<_eX
   0720 86                 2369 	add	a,(hl)
   0721 F8 04              2370 	lda	hl,4(sp)
   0723 77                 2371 	ld	(hl),a ; 3
   0724 3E 00              2372 	ld	a,#>_eX
   0726 CE 00              2373 	adc	a,#0x00
   0728 23                 2374 	inc	hl
   0729 77                 2375 	ld	(hl),a ; 3
                           2376 ; genAssign
                           2377 ; AOP_HL for _i
                           2378 ; AOP_STK for _main_sloc7_1_0
   072A 21 0B 00           2379 	ld	hl,#_i + 0
   072D 7E                 2380 	ld	a,(hl)
   072E F8 18              2381 	lda	hl,24(sp)
   0730 77                 2382 	ld	(hl),a ; 3
                           2383 ; genPlus
                           2384 ; AOP_STK for _main_sloc7_1_0
   0731 3E AC              2385 	ld	a,#<_eX
   0733 86                 2386 	add	a,(hl)
   0734 5F                 2387 	ld	e,a
   0735 3E 00              2388 	ld	a,#>_eX
   0737 CE 00              2389 	adc	a,#0x00
   0739 57                 2390 	ld	d,a
                           2391 ; genPointerGet
                           2392 ; AOP_STK for _main_sloc3_1_0
   073A 1A                 2393 	ld	a,(de)
   073B F8 1C              2394 	lda	hl,28(sp)
   073D 77                 2395 	ld	(hl),a ; 3
                           2396 ; genMinus
                           2397 ; AOP_STK for _main_sloc3_1_0
                           2398 ; AOP_STK for _main_sloc5_1_0
   073E 7E                 2399 	ld	a,(hl)
   073F C6 F8              2400 	add	a,#0xF8
   0741 2B                 2401 	dec	hl
   0742 2B                 2402 	dec	hl
   0743 77                 2403 	ld	(hl),a ; 3
                           2404 ; genAssign (pointer)
                           2405 ; AOP_STK for _main_sloc23_1_0
                           2406 ; AOP_STK for _main_sloc5_1_0
   0744 F8 04              2407 	lda	hl,4(sp)
   0746 5E                 2408 	ld	e,(hl)
   0747 23                 2409 	inc	hl
   0748 56                 2410 	ld	d,(hl)
   0749 F8 1A              2411 	lda	hl,26(sp)
   074B 7E                 2412 	ld	a,(hl)
   074C 12                 2413 	ld	(de),a
                           2414 ;	ishallbequeen.c 405
                           2415 ; genAssign
                           2416 ; AOP_HL for _screenShake
   074D 21 20 00           2417 	ld	hl,#_screenShake + 0
   0750 36 03              2418 	ld	(hl),#0x03
                           2419 ;	ishallbequeen.c 406
                           2420 ; genAssign
                           2421 ; AOP_HL for _shakeDir
   0752 21 21 00           2422 	ld	hl,#_shakeDir + 0
   0755 36 01              2423 	ld	(hl),#0x01
                           2424 ;	ishallbequeen.c 409
                           2425 ; genAssign
                           2426 ; AOP_HL for _eHitIndex
                           2427 ; AOP_STK for _main_sloc4_1_0
   0757 21 8A 00           2428 	ld	hl,#_eHitIndex + 0
   075A 7E                 2429 	ld	a,(hl)
   075B F8 1B              2430 	lda	hl,27(sp)
   075D 77                 2431 	ld	(hl),a ; 3
                           2432 ; genPlus
                           2433 ; AOP_STK for _main_sloc4_1_0
   075E 3E B8              2434 	ld	a,#<_eHP
   0760 86                 2435 	add	a,(hl)
   0761 5F                 2436 	ld	e,a
   0762 3E 00              2437 	ld	a,#>_eHP
   0764 CE 00              2438 	adc	a,#0x00
   0766 57                 2439 	ld	d,a
                           2440 ; genPointerGet
                           2441 ; AOP_STK for _main_sloc1_1_0
   0767 1A                 2442 	ld	a,(de)
   0768 F8 1E              2443 	lda	hl,30(sp)
   076A 77                 2444 	ld	(hl),a ; 3
                           2445 ; genCmpGt
                           2446 ; AOP_STK for _main_sloc1_1_0
                           2447 ; AOP_STK for _main_sloc2_1_0
   076B AF                 2448 	xor	a,a
   076C 3E DC              2449 	ld	a,#0xDC
   076E 9E                 2450 	sbc	a,(hl) ; 2
   076F 3E 00              2451 	ld	a,#0x00
   0771 17                 2452 	rla
   0772 2B                 2453 	dec	hl
   0773 77                 2454 	ld	(hl),a ; 3
                           2455 ; genIfx
                           2456 ; AOP_STK for _main_sloc2_1_0
                           2457 ; Removed redundent or a,a
   0774 AF                 2458 	xor	a,a
   0775 B6                 2459 	or	a,(hl)
   0776 CA 89 07           2460 	jp	z,00294$
                           2461 ;	ishallbequeen.c 410
                           2462 ; genAssign
                           2463 ; AOP_HL for _screenShake
   0779 21 20 00           2464 	ld	hl,#_screenShake + 0
   077C 36 03              2465 	ld	(hl),#0x03
                           2466 ;	ishallbequeen.c 411
                           2467 ; genIpush
                           2468 ; AOP_HL for _eHitIndex
   077E 21 8A 00           2469 	ld	hl,#_eHitIndex + 0
   0781 7E                 2470 	ld	a,(hl)
   0782 F5                 2471 	push	af
   0783 33                 2472 	inc	sp
                           2473 ; genCall
   0784 CD 77 29           2474 	call	_destroyEnemy
   0787 E8 01              2475 	lda	sp,1(sp)
                           2476 ; genLabel
   0789                    2477 00294$:
                           2478 ;	ishallbequeen.c 399
                           2479 ; genPlus
                           2480 ; AOP_HL for _i
                           2481 ; genPlusIncr
   0789 21 0B 00           2482 	ld	hl,#_i + 0
   078C 7E                 2483 	ld	a,(hl)
   078D C6 01              2484 	add	a,#0x01
   078F 47                 2485 	ld	b,a
                           2486 ; genAssign
   0790 48                 2487 	ld	c,b
                           2488 ; genAssign
                           2489 ; AOP_HL for _i
   0791 71                 2490 	ld	(hl),c
                           2491 ; genGoto
   0792 C3 4F 06           2492 	jp	00292$
                           2493 ;	ishallbequeen.c 419
                           2494 ; genLabel
   0795                    2495 00201$:
                           2496 ;	ishallbequeen.c 426
                           2497 ; genCmpEq
                           2498 ; AOP_HL for _flipX
   0795 21 8B 00           2499 	ld	hl,#_flipX + 0
   0798 7E                 2500 	ld	a,(hl)
   0799 B7                 2501 	or	a,a
   079A C2 9F 07           2502 	jp	nz,00475$
   079D 18 03              2503 	jr	00476$
   079F                    2504 00475$:
   079F C3 D8 07           2505 	jp	00182$
   07A2                    2506 00476$:
                           2507 ;	ishallbequeen.c 428
                           2508 ; genPlus
                           2509 ; AOP_HL for _pY
                           2510 ; genPlusIncr
   07A2 21 81 00           2511 	ld	hl,#_pY + 0
   07A5 7E                 2512 	ld	a,(hl)
   07A6 C6 20              2513 	add	a,#0x20
   07A8 4F                 2514 	ld	c,a
                           2515 ; genPlus
                           2516 ; AOP_HL for _pX
                           2517 ; genPlusIncr
   07A9 21 80 00           2518 	ld	hl,#_pX + 0
   07AC 7E                 2519 	ld	a,(hl)
   07AD C6 18              2520 	add	a,#0x18
   07AF 47                 2521 	ld	b,a
                           2522 ; genIpush
   07B0 79                 2523 	ld	a,c
   07B1 F5                 2524 	push	af
   07B2 33                 2525 	inc	sp
                           2526 ; genIpush
   07B3 78                 2527 	ld	a,b
   07B4 F5                 2528 	push	af
   07B5 33                 2529 	inc	sp
                           2530 ; genIpush
   07B6 3E 25              2531 	ld	a,#0x25
   07B8 F5                 2532 	push	af
   07B9 33                 2533 	inc	sp
                           2534 ; genCall
   07BA CD 00 00           2535 	call	_move_sprite
   07BD E8 03              2536 	lda	sp,3(sp)
                           2537 ;	ishallbequeen.c 429
                           2538 ; genPlus
                           2539 ; AOP_HL for _pY
                           2540 ; genPlusIncr
   07BF 21 81 00           2541 	ld	hl,#_pY + 0
   07C2 7E                 2542 	ld	a,(hl)
   07C3 C6 28              2543 	add	a,#0x28
   07C5 4F                 2544 	ld	c,a
                           2545 ; genIpush
   07C6 79                 2546 	ld	a,c
   07C7 F5                 2547 	push	af
   07C8 33                 2548 	inc	sp
                           2549 ; genIpush
   07C9 78                 2550 	ld	a,b
   07CA F5                 2551 	push	af
   07CB 33                 2552 	inc	sp
                           2553 ; genIpush
   07CC 3E 26              2554 	ld	a,#0x26
   07CE F5                 2555 	push	af
   07CF 33                 2556 	inc	sp
                           2557 ; genCall
   07D0 CD 00 00           2558 	call	_move_sprite
   07D3 E8 03              2559 	lda	sp,3(sp)
                           2560 ;	ishallbequeen.c 431
                           2561 ; genGoto
   07D5 C3 0B 08           2562 	jp	00183$
                           2563 ;	ishallbequeen.c 433
                           2564 ; genLabel
   07D8                    2565 00182$:
                           2566 ; genPlus
                           2567 ; AOP_HL for _pY
                           2568 ; genPlusIncr
   07D8 21 81 00           2569 	ld	hl,#_pY + 0
   07DB 7E                 2570 	ld	a,(hl)
   07DC C6 20              2571 	add	a,#0x20
   07DE 4F                 2572 	ld	c,a
                           2573 ; genMinus
                           2574 ; AOP_HL for _pX
   07DF 21 80 00           2575 	ld	hl,#_pX + 0
   07E2 7E                 2576 	ld	a,(hl)
   07E3 C6 F8              2577 	add	a,#0xF8
   07E5 47                 2578 	ld	b,a
                           2579 ; genIpush
   07E6 79                 2580 	ld	a,c
   07E7 F5                 2581 	push	af
   07E8 33                 2582 	inc	sp
                           2583 ; genIpush
   07E9 78                 2584 	ld	a,b
   07EA F5                 2585 	push	af
   07EB 33                 2586 	inc	sp
                           2587 ; genIpush
   07EC 3E 25              2588 	ld	a,#0x25
   07EE F5                 2589 	push	af
   07EF 33                 2590 	inc	sp
                           2591 ; genCall
   07F0 CD 00 00           2592 	call	_move_sprite
   07F3 E8 03              2593 	lda	sp,3(sp)
                           2594 ;	ishallbequeen.c 434
                           2595 ; genPlus
                           2596 ; AOP_HL for _pY
                           2597 ; genPlusIncr
   07F5 21 81 00           2598 	ld	hl,#_pY + 0
   07F8 7E                 2599 	ld	a,(hl)
   07F9 C6 28              2600 	add	a,#0x28
   07FB 4F                 2601 	ld	c,a
                           2602 ; genIpush
   07FC 79                 2603 	ld	a,c
   07FD F5                 2604 	push	af
   07FE 33                 2605 	inc	sp
                           2606 ; genIpush
   07FF 78                 2607 	ld	a,b
   0800 F5                 2608 	push	af
   0801 33                 2609 	inc	sp
                           2610 ; genIpush
   0802 3E 26              2611 	ld	a,#0x26
   0804 F5                 2612 	push	af
   0805 33                 2613 	inc	sp
                           2614 ; genCall
   0806 CD 00 00           2615 	call	_move_sprite
   0809 E8 03              2616 	lda	sp,3(sp)
                           2617 ;	ishallbequeen.c 436
                           2618 ; genLabel
   080B                    2619 00183$:
                           2620 ;	ishallbequeen.c 440
                           2621 ; genCmpLt
                           2622 ; AOP_HL for _punchWindDown
   080B 21 86 00           2623 	ld	hl,#_punchWindDown + 0
   080E 7E                 2624 	ld	a,(hl)
   080F FE 12              2625 	cp	#0x12
   0811 D2 B9 0A           2626 	jp	nc,00196$
                           2627 ;	ishallbequeen.c 442
                           2628 ; genCmpEq
                           2629 ; AOP_HL for _flipX
   0814 21 8B 00           2630 	ld	hl,#_flipX + 0
   0817 7E                 2631 	ld	a,(hl)
   0818 B7                 2632 	or	a,a
   0819 C2 1E 08           2633 	jp	nz,00477$
   081C 18 03              2634 	jr	00478$
   081E                    2635 00477$:
   081E C3 6D 09           2636 	jp	00193$
   0821                    2637 00478$:
                           2638 ;	ishallbequeen.c 445
                           2639 ; genAssign
                           2640 ; AOP_HL for _i
   0821 21 0B 00           2641 	ld	hl,#_i + 0
   0824 36 00              2642 	ld	(hl),#0x00
                           2643 ; genLabel
   0826                    2644 00296$:
                           2645 ; genCmpEq
                           2646 ; AOP_HL for _i
                           2647 ; AOP_STK for _main_sloc17_1_0
   0826 21 0B 00           2648 	ld	hl,#_i + 0
   0829 7E                 2649 	ld	a,(hl) ; 2
   082A FE 03              2650 	cp	a,#0x03
   082C C2 33 08           2651 	jp	nz,00479$
   082F 3E 01              2652 	ld	a,#0x01
   0831 18 01              2653 	jr	00480$
   0833                    2654 00479$:
   0833 AF                 2655 	xor	a,a
   0834                    2656 00480$:
   0834 F8 0C              2657 	lda	hl,12(sp)
   0836 77                 2658 	ld	(hl),a ; 3
                           2659 ; genIfx
                           2660 ; AOP_STK for _main_sloc17_1_0
                           2661 ; Removed redundent or a,a
   0837 AF                 2662 	xor	a,a
   0838 B6                 2663 	or	a,(hl)
   0839 C2 B9 0A           2664 	jp	nz,00196$
                           2665 ;	ishallbequeen.c 447
                           2666 ; genAssign
                           2667 ; AOP_HL for _i
                           2668 ; AOP_STK for _main_sloc23_1_0
   083C 21 0B 00           2669 	ld	hl,#_i + 0
   083F 7E                 2670 	ld	a,(hl)
   0840 F8 04              2671 	lda	hl,4(sp)
   0842 77                 2672 	ld	(hl),a ; 3
                           2673 ; genPlus
                           2674 ; AOP_STK for _main_sloc23_1_0
   0843 3E AF              2675 	ld	a,#<_eY
   0845 86                 2676 	add	a,(hl)
   0846 5F                 2677 	ld	e,a
   0847 3E 00              2678 	ld	a,#>_eY
   0849 CE 00              2679 	adc	a,#0x00
   084B 57                 2680 	ld	d,a
                           2681 ; genPointerGet
                           2682 ; AOP_STK for _main_sloc22_1_0
   084C 1A                 2683 	ld	a,(de)
   084D 23                 2684 	inc	hl
   084E 23                 2685 	inc	hl
   084F 77                 2686 	ld	(hl),a ; 3
                           2687 ; genAssign
                           2688 ; AOP_HL for _i
                           2689 ; AOP_STK for _main_sloc21_1_0
   0850 21 0B 00           2690 	ld	hl,#_i + 0
   0853 7E                 2691 	ld	a,(hl)
   0854 F8 07              2692 	lda	hl,7(sp)
   0856 77                 2693 	ld	(hl),a ; 3
                           2694 ; genPlus
                           2695 ; AOP_STK for _main_sloc21_1_0
   0857 3E AC              2696 	ld	a,#<_eX
   0859 86                 2697 	add	a,(hl)
   085A 5F                 2698 	ld	e,a
   085B 3E 00              2699 	ld	a,#>_eX
   085D CE 00              2700 	adc	a,#0x00
   085F 57                 2701 	ld	d,a
                           2702 ; genPointerGet
                           2703 ; AOP_STK for _main_sloc20_1_0
   0860 1A                 2704 	ld	a,(de)
   0861 23                 2705 	inc	hl
   0862 77                 2706 	ld	(hl),a ; 3
                           2707 ; genPlus
                           2708 ; AOP_HL for _pY
                           2709 ; AOP_STK for _main_sloc19_1_0
                           2710 ; genPlusIncr
   0863 21 81 00           2711 	ld	hl,#_pY + 0
   0866 7E                 2712 	ld	a,(hl)
   0867 C6 20              2713 	add	a,#0x20
   0869 F8 09              2714 	lda	hl,9(sp)
   086B 77                 2715 	ld	(hl),a ; 3
                           2716 ; genPlus
                           2717 ; AOP_HL for _pX
                           2718 ; AOP_STK for _main_sloc18_1_0
                           2719 ; genPlusIncr
   086C 21 80 00           2720 	ld	hl,#_pX + 0
   086F 7E                 2721 	ld	a,(hl)
   0870 C6 18              2722 	add	a,#0x18
   0872 F8 0A              2723 	lda	hl,10(sp)
   0874 77                 2724 	ld	(hl),a ; 3
                           2725 ; genIpush
   0875 3E 10              2726 	ld	a,#0x10
   0877 F5                 2727 	push	af
   0878 33                 2728 	inc	sp
                           2729 ; genIpush
   0879 3E 10              2730 	ld	a,#0x10
   087B F5                 2731 	push	af
   087C 33                 2732 	inc	sp
                           2733 ; genIpush
                           2734 ; AOP_STK for _main_sloc22_1_0
   087D F8 08              2735 	lda	hl,8(sp)
   087F 7E                 2736 	ld	a,(hl)
   0880 F5                 2737 	push	af
   0881 33                 2738 	inc	sp
                           2739 ; genIpush
                           2740 ; AOP_STK for _main_sloc20_1_0
   0882 23                 2741 	inc	hl
   0883 23                 2742 	inc	hl
   0884 7E                 2743 	ld	a,(hl)
   0885 F5                 2744 	push	af
   0886 33                 2745 	inc	sp
                           2746 ; genIpush
   0887 3E 10              2747 	ld	a,#0x10
   0889 F5                 2748 	push	af
   088A 33                 2749 	inc	sp
                           2750 ; genIpush
   088B 3E 08              2751 	ld	a,#0x08
   088D F5                 2752 	push	af
   088E 33                 2753 	inc	sp
                           2754 ; genIpush
                           2755 ; AOP_STK for _main_sloc19_1_0
   088F 23                 2756 	inc	hl
   0890 7E                 2757 	ld	a,(hl)
   0891 F5                 2758 	push	af
   0892 33                 2759 	inc	sp
                           2760 ; genIpush
                           2761 ; AOP_STK for _main_sloc18_1_0
   0893 23                 2762 	inc	hl
   0894 7E                 2763 	ld	a,(hl)
   0895 F5                 2764 	push	af
   0896 33                 2765 	inc	sp
                           2766 ; genCall
   0897 CD AF 25           2767 	call	_collisionCheck
                           2768 ; AOP_STK for _main_sloc14_1_0
   089A F8 18              2769 	lda	hl,24(sp)
   089C 73                 2770 	ld	(hl),e ; 3
   089D E8 08              2771 	lda	sp,8(sp)
                           2772 ; genCmpEq
                           2773 ; AOP_STK for _main_sloc14_1_0
                           2774 ; AOP_STK for _main_sloc16_1_0
   089F 7E                 2775 	ld	a,(hl) ; 2
   08A0 FE 01              2776 	cp	a,#0x01
   08A2 C2 A9 08           2777 	jp	nz,00481$
   08A5 3E 01              2778 	ld	a,#0x01
   08A7 18 01              2779 	jr	00482$
   08A9                    2780 00481$:
   08A9 AF                 2781 	xor	a,a
   08AA                    2782 00482$:
   08AA F8 0E              2783 	lda	hl,14(sp)
   08AC 77                 2784 	ld	(hl),a ; 3
                           2785 ; genIfx
                           2786 ; AOP_STK for _main_sloc16_1_0
                           2787 ; Removed redundent or a,a
   08AD AF                 2788 	xor	a,a
   08AE B6                 2789 	or	a,(hl)
   08AF CA 61 09           2790 	jp	z,00298$
                           2791 ;	ishallbequeen.c 448
                           2792 ; genAssign
                           2793 ; (operands are equal 3)
                           2794 ; genAssign
                           2795 ; AOP_HL for _i
                           2796 ; AOP_HL for _eHitIndex
   08B2 21 0B 00           2797 	ld	hl,#_i + 0
   08B5 7E                 2798 	ld	a,(hl)
   08B6 21 8A 00           2799 	ld	hl,#_eHitIndex + 0
   08B9 77                 2800 	ld	(hl),a
                           2801 ;	ishallbequeen.c 449
                           2802 ; genAssign
                           2803 ; AOP_HL for _eHitIndex
                           2804 ; AOP_STK for _main_sloc12_1_0
   08BA 7E                 2805 	ld	a,(hl)
   08BB F8 12              2806 	lda	hl,18(sp)
   08BD 77                 2807 	ld	(hl),a ; 3
                           2808 ; genPlus
                           2809 ; AOP_STK for _main_sloc12_1_0
                           2810 ; AOP_STK for _main_sloc9_1_0
   08BE 3E B8              2811 	ld	a,#<_eHP
   08C0 86                 2812 	add	a,(hl)
   08C1 F8 15              2813 	lda	hl,21(sp)
   08C3 77                 2814 	ld	(hl),a ; 3
   08C4 3E 00              2815 	ld	a,#>_eHP
   08C6 CE 00              2816 	adc	a,#0x00
   08C8 23                 2817 	inc	hl
   08C9 77                 2818 	ld	(hl),a ; 3
                           2819 ; genAssign
                           2820 ; AOP_HL for _eHitIndex
                           2821 ; AOP_STK for _main_sloc13_1_0
   08CA 21 8A 00           2822 	ld	hl,#_eHitIndex + 0
   08CD 7E                 2823 	ld	a,(hl)
   08CE F8 11              2824 	lda	hl,17(sp)
   08D0 77                 2825 	ld	(hl),a ; 3
                           2826 ; genPlus
                           2827 ; AOP_STK for _main_sloc13_1_0
   08D1 3E B8              2828 	ld	a,#<_eHP
   08D3 86                 2829 	add	a,(hl)
   08D4 5F                 2830 	ld	e,a
   08D5 3E 00              2831 	ld	a,#>_eHP
   08D7 CE 00              2832 	adc	a,#0x00
   08D9 57                 2833 	ld	d,a
                           2834 ; genPointerGet
                           2835 ; AOP_STK for _main_sloc10_1_0
   08DA 1A                 2836 	ld	a,(de)
   08DB F8 14              2837 	lda	hl,20(sp)
   08DD 77                 2838 	ld	(hl),a ; 3
                           2839 ; genMinus
                           2840 ; AOP_STK for _main_sloc10_1_0
                           2841 ; AOP_HL for _myDamage
                           2842 ; AOP_STK for _main_sloc11_1_0
   08DE 7E                 2843 	ld	a,(hl)
   08DF 21 85 00           2844 	ld	hl,#_myDamage + 0
   08E2 96                 2845 	sub	a,(hl)
   08E3 F8 13              2846 	lda	hl,19(sp)
   08E5 77                 2847 	ld	(hl),a ; 3
                           2848 ; genAssign (pointer)
                           2849 ; AOP_STK for _main_sloc9_1_0
                           2850 ; AOP_STK for _main_sloc11_1_0
   08E6 23                 2851 	inc	hl
   08E7 23                 2852 	inc	hl
   08E8 5E                 2853 	ld	e,(hl)
   08E9 23                 2854 	inc	hl
   08EA 56                 2855 	ld	d,(hl)
   08EB F8 13              2856 	lda	hl,19(sp)
   08ED 7E                 2857 	ld	a,(hl)
   08EE 12                 2858 	ld	(de),a
                           2859 ;	ishallbequeen.c 450
                           2860 ; genAssign
                           2861 ; AOP_HL for _i
                           2862 ; AOP_STK for _main_sloc7_1_0
   08EF 21 0B 00           2863 	ld	hl,#_i + 0
   08F2 7E                 2864 	ld	a,(hl)
   08F3 F8 18              2865 	lda	hl,24(sp)
   08F5 77                 2866 	ld	(hl),a ; 3
                           2867 ; genPlus
                           2868 ; AOP_STK for _main_sloc7_1_0
                           2869 ; AOP_STK for _main_sloc24_1_0
   08F6 3E AC              2870 	ld	a,#<_eX
   08F8 86                 2871 	add	a,(hl)
   08F9 F8 02              2872 	lda	hl,2(sp)
   08FB 77                 2873 	ld	(hl),a ; 3
   08FC 3E 00              2874 	ld	a,#>_eX
   08FE CE 00              2875 	adc	a,#0x00
   0900 23                 2876 	inc	hl
   0901 77                 2877 	ld	(hl),a ; 3
                           2878 ; genAssign
                           2879 ; AOP_HL for _i
                           2880 ; AOP_STK for _main_sloc8_1_0
   0902 21 0B 00           2881 	ld	hl,#_i + 0
   0905 7E                 2882 	ld	a,(hl)
   0906 F8 17              2883 	lda	hl,23(sp)
   0908 77                 2884 	ld	(hl),a ; 3
                           2885 ; genPlus
                           2886 ; AOP_STK for _main_sloc8_1_0
   0909 3E AC              2887 	ld	a,#<_eX
   090B 86                 2888 	add	a,(hl)
   090C 5F                 2889 	ld	e,a
   090D 3E 00              2890 	ld	a,#>_eX
   090F CE 00              2891 	adc	a,#0x00
   0911 57                 2892 	ld	d,a
                           2893 ; genPointerGet
                           2894 ; AOP_STK for _main_sloc4_1_0
   0912 1A                 2895 	ld	a,(de)
   0913 F8 1B              2896 	lda	hl,27(sp)
   0915 77                 2897 	ld	(hl),a ; 3
                           2898 ; genPlus
                           2899 ; AOP_STK for _main_sloc4_1_0
                           2900 ; AOP_STK for _main_sloc6_1_0
                           2901 ; genPlusIncr
   0916 7E                 2902 	ld	a,(hl)
   0917 C6 08              2903 	add	a,#0x08
   0919 2B                 2904 	dec	hl
   091A 2B                 2905 	dec	hl
   091B 77                 2906 	ld	(hl),a ; 3
                           2907 ; genAssign (pointer)
                           2908 ; AOP_STK for _main_sloc24_1_0
                           2909 ; AOP_STK for _main_sloc6_1_0
   091C F8 02              2910 	lda	hl,2(sp)
   091E 5E                 2911 	ld	e,(hl)
   091F 23                 2912 	inc	hl
   0920 56                 2913 	ld	d,(hl)
   0921 F8 19              2914 	lda	hl,25(sp)
   0923 7E                 2915 	ld	a,(hl)
   0924 12                 2916 	ld	(de),a
                           2917 ;	ishallbequeen.c 451
                           2918 ; genAssign
                           2919 ; AOP_HL for _screenShake
   0925 21 20 00           2920 	ld	hl,#_screenShake + 0
   0928 36 03              2921 	ld	(hl),#0x03
                           2922 ;	ishallbequeen.c 452
                           2923 ; genAssign
                           2924 ; AOP_HL for _shakeDir
   092A 21 21 00           2925 	ld	hl,#_shakeDir + 0
   092D 36 01              2926 	ld	(hl),#0x01
                           2927 ;	ishallbequeen.c 455
                           2928 ; genAssign
                           2929 ; AOP_HL for _eHitIndex
                           2930 ; AOP_STK for _main_sloc5_1_0
   092F 21 8A 00           2931 	ld	hl,#_eHitIndex + 0
   0932 7E                 2932 	ld	a,(hl)
   0933 F8 1A              2933 	lda	hl,26(sp)
   0935 77                 2934 	ld	(hl),a ; 3
                           2935 ; genPlus
                           2936 ; AOP_STK for _main_sloc5_1_0
   0936 3E B8              2937 	ld	a,#<_eHP
   0938 86                 2938 	add	a,(hl)
   0939 5F                 2939 	ld	e,a
   093A 3E 00              2940 	ld	a,#>_eHP
   093C CE 00              2941 	adc	a,#0x00
   093E 57                 2942 	ld	d,a
                           2943 ; genPointerGet
                           2944 ; AOP_STK for _main_sloc2_1_0
   093F 1A                 2945 	ld	a,(de)
   0940 F8 1D              2946 	lda	hl,29(sp)
   0942 77                 2947 	ld	(hl),a ; 3
                           2948 ; genCmpGt
                           2949 ; AOP_STK for _main_sloc2_1_0
                           2950 ; AOP_STK for _main_sloc3_1_0
   0943 AF                 2951 	xor	a,a
   0944 3E DC              2952 	ld	a,#0xDC
   0946 9E                 2953 	sbc	a,(hl) ; 2
   0947 3E 00              2954 	ld	a,#0x00
   0949 17                 2955 	rla
   094A 2B                 2956 	dec	hl
   094B 77                 2957 	ld	(hl),a ; 3
                           2958 ; genIfx
                           2959 ; AOP_STK for _main_sloc3_1_0
                           2960 ; Removed redundent or a,a
   094C AF                 2961 	xor	a,a
   094D B6                 2962 	or	a,(hl)
   094E CA 61 09           2963 	jp	z,00298$
                           2964 ;	ishallbequeen.c 456
                           2965 ; genAssign
                           2966 ; AOP_HL for _screenShake
   0951 21 20 00           2967 	ld	hl,#_screenShake + 0
   0954 36 03              2968 	ld	(hl),#0x03
                           2969 ;	ishallbequeen.c 457
                           2970 ; genIpush
                           2971 ; AOP_HL for _eHitIndex
   0956 21 8A 00           2972 	ld	hl,#_eHitIndex + 0
   0959 7E                 2973 	ld	a,(hl)
   095A F5                 2974 	push	af
   095B 33                 2975 	inc	sp
                           2976 ; genCall
   095C CD 77 29           2977 	call	_destroyEnemy
   095F E8 01              2978 	lda	sp,1(sp)
                           2979 ; genLabel
   0961                    2980 00298$:
                           2981 ;	ishallbequeen.c 445
                           2982 ; genPlus
                           2983 ; AOP_HL for _i
                           2984 ; genPlusIncr
   0961 21 0B 00           2985 	ld	hl,#_i + 0
   0964 7E                 2986 	ld	a,(hl)
   0965 C6 01              2987 	add	a,#0x01
   0967 47                 2988 	ld	b,a
                           2989 ; genAssign
   0968 48                 2990 	ld	c,b
                           2991 ; genAssign
                           2992 ; AOP_HL for _i
   0969 71                 2993 	ld	(hl),c
                           2994 ; genGoto
   096A C3 26 08           2995 	jp	00296$
                           2996 ;	ishallbequeen.c 484
                           2997 ; genLabel
   096D                    2998 00193$:
                           2999 ;	ishallbequeen.c 467
                           3000 ; genAssign
                           3001 ; AOP_HL for _i
   096D 21 0B 00           3002 	ld	hl,#_i + 0
   0970 36 00              3003 	ld	(hl),#0x00
                           3004 ; genLabel
   0972                    3005 00300$:
                           3006 ; genCmpEq
                           3007 ; AOP_HL for _i
                           3008 ; AOP_STK for _main_sloc18_1_0
   0972 21 0B 00           3009 	ld	hl,#_i + 0
   0975 7E                 3010 	ld	a,(hl) ; 2
   0976 FE 03              3011 	cp	a,#0x03
   0978 C2 7F 09           3012 	jp	nz,00483$
   097B 3E 01              3013 	ld	a,#0x01
   097D 18 01              3014 	jr	00484$
   097F                    3015 00483$:
   097F AF                 3016 	xor	a,a
   0980                    3017 00484$:
   0980 F8 0A              3018 	lda	hl,10(sp)
   0982 77                 3019 	ld	(hl),a ; 3
                           3020 ; genIfx
                           3021 ; AOP_STK for _main_sloc18_1_0
                           3022 ; Removed redundent or a,a
   0983 AF                 3023 	xor	a,a
   0984 B6                 3024 	or	a,(hl)
   0985 C2 B9 0A           3025 	jp	nz,00196$
                           3026 ;	ishallbequeen.c 469
                           3027 ; genAssign
                           3028 ; AOP_HL for _i
                           3029 ; AOP_STK for _main_sloc24_1_0
   0988 21 0B 00           3030 	ld	hl,#_i + 0
   098B 7E                 3031 	ld	a,(hl)
   098C F8 02              3032 	lda	hl,2(sp)
   098E 77                 3033 	ld	(hl),a ; 3
                           3034 ; genPlus
                           3035 ; AOP_STK for _main_sloc24_1_0
   098F 3E AF              3036 	ld	a,#<_eY
   0991 86                 3037 	add	a,(hl)
   0992 5F                 3038 	ld	e,a
   0993 3E 00              3039 	ld	a,#>_eY
   0995 CE 00              3040 	adc	a,#0x00
   0997 57                 3041 	ld	d,a
                           3042 ; genPointerGet
                           3043 ; AOP_STK for _main_sloc23_1_0
   0998 1A                 3044 	ld	a,(de)
   0999 23                 3045 	inc	hl
   099A 23                 3046 	inc	hl
   099B 77                 3047 	ld	(hl),a ; 3
                           3048 ; genAssign
                           3049 ; AOP_HL for _i
                           3050 ; AOP_STK for _main_sloc22_1_0
   099C 21 0B 00           3051 	ld	hl,#_i + 0
   099F 7E                 3052 	ld	a,(hl)
   09A0 F8 06              3053 	lda	hl,6(sp)
   09A2 77                 3054 	ld	(hl),a ; 3
                           3055 ; genPlus
                           3056 ; AOP_STK for _main_sloc22_1_0
   09A3 3E AC              3057 	ld	a,#<_eX
   09A5 86                 3058 	add	a,(hl)
   09A6 5F                 3059 	ld	e,a
   09A7 3E 00              3060 	ld	a,#>_eX
   09A9 CE 00              3061 	adc	a,#0x00
   09AB 57                 3062 	ld	d,a
                           3063 ; genPointerGet
                           3064 ; AOP_STK for _main_sloc21_1_0
   09AC 1A                 3065 	ld	a,(de)
   09AD 23                 3066 	inc	hl
   09AE 77                 3067 	ld	(hl),a ; 3
                           3068 ; genPlus
                           3069 ; AOP_HL for _pY
                           3070 ; AOP_STK for _main_sloc20_1_0
                           3071 ; genPlusIncr
   09AF 21 81 00           3072 	ld	hl,#_pY + 0
   09B2 7E                 3073 	ld	a,(hl)
   09B3 C6 18              3074 	add	a,#0x18
   09B5 F8 08              3075 	lda	hl,8(sp)
   09B7 77                 3076 	ld	(hl),a ; 3
                           3077 ; genMinus
                           3078 ; AOP_HL for _pX
                           3079 ; AOP_STK for _main_sloc19_1_0
   09B8 21 80 00           3080 	ld	hl,#_pX + 0
   09BB 7E                 3081 	ld	a,(hl)
   09BC C6 F8              3082 	add	a,#0xF8
   09BE F8 09              3083 	lda	hl,9(sp)
   09C0 77                 3084 	ld	(hl),a ; 3
                           3085 ; genIpush
   09C1 3E 10              3086 	ld	a,#0x10
   09C3 F5                 3087 	push	af
   09C4 33                 3088 	inc	sp
                           3089 ; genIpush
   09C5 3E 10              3090 	ld	a,#0x10
   09C7 F5                 3091 	push	af
   09C8 33                 3092 	inc	sp
                           3093 ; genIpush
                           3094 ; AOP_STK for _main_sloc23_1_0
   09C9 F8 06              3095 	lda	hl,6(sp)
   09CB 7E                 3096 	ld	a,(hl)
   09CC F5                 3097 	push	af
   09CD 33                 3098 	inc	sp
                           3099 ; genIpush
                           3100 ; AOP_STK for _main_sloc21_1_0
   09CE F8 0A              3101 	lda	hl,10(sp)
   09D0 7E                 3102 	ld	a,(hl)
   09D1 F5                 3103 	push	af
   09D2 33                 3104 	inc	sp
                           3105 ; genIpush
   09D3 3E 10              3106 	ld	a,#0x10
   09D5 F5                 3107 	push	af
   09D6 33                 3108 	inc	sp
                           3109 ; genIpush
   09D7 3E 08              3110 	ld	a,#0x08
   09D9 F5                 3111 	push	af
   09DA 33                 3112 	inc	sp
                           3113 ; genIpush
                           3114 ; AOP_STK for _main_sloc20_1_0
   09DB 23                 3115 	inc	hl
   09DC 7E                 3116 	ld	a,(hl)
   09DD F5                 3117 	push	af
   09DE 33                 3118 	inc	sp
                           3119 ; genIpush
                           3120 ; AOP_STK for _main_sloc19_1_0
   09DF 23                 3121 	inc	hl
   09E0 7E                 3122 	ld	a,(hl)
   09E1 F5                 3123 	push	af
   09E2 33                 3124 	inc	sp
                           3125 ; genCall
   09E3 CD AF 25           3126 	call	_collisionCheck
                           3127 ; AOP_STK for _main_sloc16_1_0
   09E6 F8 16              3128 	lda	hl,22(sp)
   09E8 73                 3129 	ld	(hl),e ; 3
   09E9 E8 08              3130 	lda	sp,8(sp)
                           3131 ; genCmpEq
                           3132 ; AOP_STK for _main_sloc16_1_0
                           3133 ; AOP_STK for _main_sloc17_1_0
   09EB 7E                 3134 	ld	a,(hl) ; 2
   09EC FE 01              3135 	cp	a,#0x01
   09EE C2 F5 09           3136 	jp	nz,00485$
   09F1 3E 01              3137 	ld	a,#0x01
   09F3 18 01              3138 	jr	00486$
   09F5                    3139 00485$:
   09F5 AF                 3140 	xor	a,a
   09F6                    3141 00486$:
   09F6 F8 0C              3142 	lda	hl,12(sp)
   09F8 77                 3143 	ld	(hl),a ; 3
                           3144 ; genIfx
                           3145 ; AOP_STK for _main_sloc17_1_0
                           3146 ; Removed redundent or a,a
   09F9 AF                 3147 	xor	a,a
   09FA B6                 3148 	or	a,(hl)
   09FB CA AD 0A           3149 	jp	z,00302$
                           3150 ;	ishallbequeen.c 470
                           3151 ; genAssign
                           3152 ; (operands are equal 3)
                           3153 ; genAssign
                           3154 ; AOP_HL for _i
                           3155 ; AOP_HL for _eHitIndex
   09FE 21 0B 00           3156 	ld	hl,#_i + 0
   0A01 7E                 3157 	ld	a,(hl)
   0A02 21 8A 00           3158 	ld	hl,#_eHitIndex + 0
   0A05 77                 3159 	ld	(hl),a
                           3160 ;	ishallbequeen.c 471
                           3161 ; genAssign
                           3162 ; AOP_HL for _eHitIndex
                           3163 ; AOP_STK for _main_sloc13_1_0
   0A06 7E                 3164 	ld	a,(hl)
   0A07 F8 11              3165 	lda	hl,17(sp)
   0A09 77                 3166 	ld	(hl),a ; 3
                           3167 ; genPlus
                           3168 ; AOP_STK for _main_sloc13_1_0
                           3169 ; AOP_STK for _main_sloc9_1_0
   0A0A 3E B8              3170 	ld	a,#<_eHP
   0A0C 86                 3171 	add	a,(hl)
   0A0D F8 15              3172 	lda	hl,21(sp)
   0A0F 77                 3173 	ld	(hl),a ; 3
   0A10 3E 00              3174 	ld	a,#>_eHP
   0A12 CE 00              3175 	adc	a,#0x00
   0A14 23                 3176 	inc	hl
   0A15 77                 3177 	ld	(hl),a ; 3
                           3178 ; genAssign
                           3179 ; AOP_HL for _eHitIndex
                           3180 ; AOP_STK for _main_sloc14_1_0
   0A16 21 8A 00           3181 	ld	hl,#_eHitIndex + 0
   0A19 7E                 3182 	ld	a,(hl)
   0A1A F8 10              3183 	lda	hl,16(sp)
   0A1C 77                 3184 	ld	(hl),a ; 3
                           3185 ; genPlus
                           3186 ; AOP_STK for _main_sloc14_1_0
   0A1D 3E B8              3187 	ld	a,#<_eHP
   0A1F 86                 3188 	add	a,(hl)
   0A20 5F                 3189 	ld	e,a
   0A21 3E 00              3190 	ld	a,#>_eHP
   0A23 CE 00              3191 	adc	a,#0x00
   0A25 57                 3192 	ld	d,a
                           3193 ; genPointerGet
                           3194 ; AOP_STK for _main_sloc11_1_0
   0A26 1A                 3195 	ld	a,(de)
   0A27 F8 13              3196 	lda	hl,19(sp)
   0A29 77                 3197 	ld	(hl),a ; 3
                           3198 ; genMinus
                           3199 ; AOP_STK for _main_sloc11_1_0
                           3200 ; AOP_HL for _myDamage
                           3201 ; AOP_STK for _main_sloc12_1_0
   0A2A 7E                 3202 	ld	a,(hl)
   0A2B 21 85 00           3203 	ld	hl,#_myDamage + 0
   0A2E 96                 3204 	sub	a,(hl)
   0A2F F8 12              3205 	lda	hl,18(sp)
   0A31 77                 3206 	ld	(hl),a ; 3
                           3207 ; genAssign (pointer)
                           3208 ; AOP_STK for _main_sloc9_1_0
                           3209 ; AOP_STK for _main_sloc12_1_0
   0A32 F8 15              3210 	lda	hl,21(sp)
   0A34 5E                 3211 	ld	e,(hl)
   0A35 23                 3212 	inc	hl
   0A36 56                 3213 	ld	d,(hl)
   0A37 F8 12              3214 	lda	hl,18(sp)
   0A39 7E                 3215 	ld	a,(hl)
   0A3A 12                 3216 	ld	(de),a
                           3217 ;	ishallbequeen.c 472
                           3218 ; genAssign
                           3219 ; AOP_HL for _i
                           3220 ; AOP_STK for _main_sloc8_1_0
   0A3B 21 0B 00           3221 	ld	hl,#_i + 0
   0A3E 7E                 3222 	ld	a,(hl)
   0A3F F8 17              3223 	lda	hl,23(sp)
   0A41 77                 3224 	ld	(hl),a ; 3
                           3225 ; genPlus
                           3226 ; AOP_STK for _main_sloc8_1_0
                           3227 ; AOP_STK for _main_sloc25_1_0
   0A42 3E AC              3228 	ld	a,#<_eX
   0A44 86                 3229 	add	a,(hl)
   0A45 F8 00              3230 	lda	hl,0(sp)
   0A47 77                 3231 	ld	(hl),a ; 3
   0A48 3E 00              3232 	ld	a,#>_eX
   0A4A CE 00              3233 	adc	a,#0x00
   0A4C 23                 3234 	inc	hl
   0A4D 77                 3235 	ld	(hl),a ; 3
                           3236 ; genAssign
                           3237 ; AOP_HL for _i
                           3238 ; AOP_STK for _main_sloc10_1_0
   0A4E 21 0B 00           3239 	ld	hl,#_i + 0
   0A51 7E                 3240 	ld	a,(hl)
   0A52 F8 14              3241 	lda	hl,20(sp)
   0A54 77                 3242 	ld	(hl),a ; 3
                           3243 ; genPlus
                           3244 ; AOP_STK for _main_sloc10_1_0
   0A55 3E AC              3245 	ld	a,#<_eX
   0A57 86                 3246 	add	a,(hl)
   0A58 5F                 3247 	ld	e,a
   0A59 3E 00              3248 	ld	a,#>_eX
   0A5B CE 00              3249 	adc	a,#0x00
   0A5D 57                 3250 	ld	d,a
                           3251 ; genPointerGet
                           3252 ; AOP_STK for _main_sloc5_1_0
   0A5E 1A                 3253 	ld	a,(de)
   0A5F F8 1A              3254 	lda	hl,26(sp)
   0A61 77                 3255 	ld	(hl),a ; 3
                           3256 ; genMinus
                           3257 ; AOP_STK for _main_sloc5_1_0
                           3258 ; AOP_STK for _main_sloc7_1_0
   0A62 7E                 3259 	ld	a,(hl)
   0A63 C6 F8              3260 	add	a,#0xF8
   0A65 2B                 3261 	dec	hl
   0A66 2B                 3262 	dec	hl
   0A67 77                 3263 	ld	(hl),a ; 3
                           3264 ; genAssign (pointer)
                           3265 ; AOP_STK for _main_sloc25_1_0
                           3266 ; AOP_STK for _main_sloc7_1_0
   0A68 F8 00              3267 	lda	hl,0(sp)
   0A6A 5E                 3268 	ld	e,(hl)
   0A6B 23                 3269 	inc	hl
   0A6C 56                 3270 	ld	d,(hl)
   0A6D F8 18              3271 	lda	hl,24(sp)
   0A6F 7E                 3272 	ld	a,(hl)
   0A70 12                 3273 	ld	(de),a
                           3274 ;	ishallbequeen.c 473
                           3275 ; genAssign
                           3276 ; AOP_HL for _screenShake
   0A71 21 20 00           3277 	ld	hl,#_screenShake + 0
   0A74 36 03              3278 	ld	(hl),#0x03
                           3279 ;	ishallbequeen.c 474
                           3280 ; genAssign
                           3281 ; AOP_HL for _shakeDir
   0A76 21 21 00           3282 	ld	hl,#_shakeDir + 0
   0A79 36 01              3283 	ld	(hl),#0x01
                           3284 ;	ishallbequeen.c 477
                           3285 ; genAssign
                           3286 ; AOP_HL for _eHitIndex
                           3287 ; AOP_STK for _main_sloc6_1_0
   0A7B 21 8A 00           3288 	ld	hl,#_eHitIndex + 0
   0A7E 7E                 3289 	ld	a,(hl)
   0A7F F8 19              3290 	lda	hl,25(sp)
   0A81 77                 3291 	ld	(hl),a ; 3
                           3292 ; genPlus
                           3293 ; AOP_STK for _main_sloc6_1_0
   0A82 3E B8              3294 	ld	a,#<_eHP
   0A84 86                 3295 	add	a,(hl)
   0A85 5F                 3296 	ld	e,a
   0A86 3E 00              3297 	ld	a,#>_eHP
   0A88 CE 00              3298 	adc	a,#0x00
   0A8A 57                 3299 	ld	d,a
                           3300 ; genPointerGet
                           3301 ; AOP_STK for _main_sloc3_1_0
   0A8B 1A                 3302 	ld	a,(de)
   0A8C F8 1C              3303 	lda	hl,28(sp)
   0A8E 77                 3304 	ld	(hl),a ; 3
                           3305 ; genCmpGt
                           3306 ; AOP_STK for _main_sloc3_1_0
                           3307 ; AOP_STK for _main_sloc4_1_0
   0A8F AF                 3308 	xor	a,a
   0A90 3E DC              3309 	ld	a,#0xDC
   0A92 9E                 3310 	sbc	a,(hl) ; 2
   0A93 3E 00              3311 	ld	a,#0x00
   0A95 17                 3312 	rla
   0A96 2B                 3313 	dec	hl
   0A97 77                 3314 	ld	(hl),a ; 3
                           3315 ; genIfx
                           3316 ; AOP_STK for _main_sloc4_1_0
                           3317 ; Removed redundent or a,a
   0A98 AF                 3318 	xor	a,a
   0A99 B6                 3319 	or	a,(hl)
   0A9A CA AD 0A           3320 	jp	z,00302$
                           3321 ;	ishallbequeen.c 478
                           3322 ; genAssign
                           3323 ; AOP_HL for _screenShake
   0A9D 21 20 00           3324 	ld	hl,#_screenShake + 0
   0AA0 36 03              3325 	ld	(hl),#0x03
                           3326 ;	ishallbequeen.c 479
                           3327 ; genIpush
                           3328 ; AOP_HL for _eHitIndex
   0AA2 21 8A 00           3329 	ld	hl,#_eHitIndex + 0
   0AA5 7E                 3330 	ld	a,(hl)
   0AA6 F5                 3331 	push	af
   0AA7 33                 3332 	inc	sp
                           3333 ; genCall
   0AA8 CD 77 29           3334 	call	_destroyEnemy
   0AAB E8 01              3335 	lda	sp,1(sp)
                           3336 ; genLabel
   0AAD                    3337 00302$:
                           3338 ;	ishallbequeen.c 467
                           3339 ; genPlus
                           3340 ; AOP_HL for _i
                           3341 ; genPlusIncr
   0AAD 21 0B 00           3342 	ld	hl,#_i + 0
   0AB0 7E                 3343 	ld	a,(hl)
   0AB1 C6 01              3344 	add	a,#0x01
   0AB3 47                 3345 	ld	b,a
                           3346 ; genAssign
   0AB4 48                 3347 	ld	c,b
                           3348 ; genAssign
                           3349 ; AOP_HL for _i
   0AB5 71                 3350 	ld	(hl),c
                           3351 ; genGoto
   0AB6 C3 72 09           3352 	jp	00300$
                           3353 ;	ishallbequeen.c 487
                           3354 ; genLabel
   0AB9                    3355 00196$:
                           3356 ;	ishallbequeen.c 495
                           3357 ; genCmpEq
                           3358 ; AOP_HL for _punchWindDown
   0AB9 21 86 00           3359 	ld	hl,#_punchWindDown + 0
   0ABC 7E                 3360 	ld	a,(hl) ; 2
   0ABD FE 01              3361 	cp	a,#0x01
                           3362 ; Rule 5
   0ABF CA CF 0A           3363 	jp	z,00197$
   0AC2                    3364 00487$:
                           3365 ; genCmpEq
                           3366 ; AOP_HL for _pState
   0AC2 21 82 00           3367 	ld	hl,#_pState + 0
   0AC5 7E                 3368 	ld	a,(hl)
   0AC6 B7                 3369 	or	a,a
   0AC7 C2 CC 0A           3370 	jp	nz,00488$
   0ACA 18 03              3371 	jr	00489$
   0ACC                    3372 00488$:
   0ACC C3 14 0B           3373 	jp	00202$
   0ACF                    3374 00489$:
                           3375 ; genLabel
   0ACF                    3376 00197$:
                           3377 ;	ishallbequeen.c 496
                           3378 ; genAssign
                           3379 ; AOP_HL for _playerFrame
   0ACF 21 83 00           3380 	ld	hl,#_playerFrame + 0
   0AD2 36 00              3381 	ld	(hl),#0x00
                           3382 ;	ishallbequeen.c 497
                           3383 ; genCall
   0AD4 CD 6D 1B           3384 	call	_updatePlayerFrame
                           3385 ;	ishallbequeen.c 498
                           3386 ; genIpush
   0AD7 3E 00              3387 	ld	a,#0x00
   0AD9 F5                 3388 	push	af
   0ADA 33                 3389 	inc	sp
                           3390 ; genIpush
   0ADB 3E 00              3391 	ld	a,#0x00
   0ADD F5                 3392 	push	af
   0ADE 33                 3393 	inc	sp
                           3394 ; genIpush
   0ADF 3E 25              3395 	ld	a,#0x25
   0AE1 F5                 3396 	push	af
   0AE2 33                 3397 	inc	sp
                           3398 ; genCall
   0AE3 CD 00 00           3399 	call	_move_sprite
   0AE6 E8 03              3400 	lda	sp,3(sp)
                           3401 ;	ishallbequeen.c 499
                           3402 ; genIpush
   0AE8 3E 00              3403 	ld	a,#0x00
   0AEA F5                 3404 	push	af
   0AEB 33                 3405 	inc	sp
                           3406 ; genIpush
   0AEC 3E 00              3407 	ld	a,#0x00
   0AEE F5                 3408 	push	af
   0AEF 33                 3409 	inc	sp
                           3410 ; genIpush
   0AF0 3E 26              3411 	ld	a,#0x26
   0AF2 F5                 3412 	push	af
   0AF3 33                 3413 	inc	sp
                           3414 ; genCall
   0AF4 CD 00 00           3415 	call	_move_sprite
   0AF7 E8 03              3416 	lda	sp,3(sp)
                           3417 ;	ishallbequeen.c 500
                           3418 ; genIpush
   0AF9 3E 00              3419 	ld	a,#0x00
   0AFB F5                 3420 	push	af
   0AFC 33                 3421 	inc	sp
                           3422 ; genIpush
   0AFD 3E 00              3423 	ld	a,#0x00
   0AFF F5                 3424 	push	af
   0B00 33                 3425 	inc	sp
                           3426 ; genIpush
   0B01 3E 27              3427 	ld	a,#0x27
   0B03 F5                 3428 	push	af
   0B04 33                 3429 	inc	sp
                           3430 ; genCall
   0B05 CD 00 00           3431 	call	_move_sprite
   0B08 E8 03              3432 	lda	sp,3(sp)
                           3433 ;	ishallbequeen.c 501
                           3434 ; genAssign
                           3435 ; AOP_HL for _punchWindDown
   0B0A 21 86 00           3436 	ld	hl,#_punchWindDown + 0
   0B0D 36 00              3437 	ld	(hl),#0x00
                           3438 ;	ishallbequeen.c 502
                           3439 ; genAssign
                           3440 ; AOP_HL for _attackDelay
   0B0F 21 23 00           3441 	ld	hl,#_attackDelay + 0
   0B12 36 0F              3442 	ld	(hl),#0x0F
                           3443 ; genLabel
   0B14                    3444 00202$:
                           3445 ;	ishallbequeen.c 507
                           3446 ; genCmpEq
                           3447 ; AOP_HL for _punchWindDown
   0B14 21 86 00           3448 	ld	hl,#_punchWindDown + 0
   0B17 7E                 3449 	ld	a,(hl) ; 2
   0B18 FE 01              3450 	cp	a,#0x01
   0B1A C2 1F 0B           3451 	jp	nz,00490$
   0B1D 18 03              3452 	jr	00491$
   0B1F                    3453 00490$:
   0B1F C3 6F 0B           3454 	jp	00207$
   0B22                    3455 00491$:
                           3456 ; genCmpEq
                           3457 ; AOP_HL for _pState
   0B22 21 82 00           3458 	ld	hl,#_pState + 0
   0B25 7E                 3459 	ld	a,(hl)
   0B26 B7                 3460 	or	a,a
   0B27 C2 2C 0B           3461 	jp	nz,00492$
   0B2A 18 03              3462 	jr	00493$
   0B2C                    3463 00492$:
   0B2C C3 6F 0B           3464 	jp	00207$
   0B2F                    3465 00493$:
                           3466 ;	ishallbequeen.c 508
                           3467 ; genAssign
                           3468 ; AOP_HL for _playerFrame
   0B2F 21 83 00           3469 	ld	hl,#_playerFrame + 0
   0B32 36 00              3470 	ld	(hl),#0x00
                           3471 ;	ishallbequeen.c 509
                           3472 ; genCall
   0B34 CD 6D 1B           3473 	call	_updatePlayerFrame
                           3474 ;	ishallbequeen.c 510
                           3475 ; genIpush
   0B37 3E 00              3476 	ld	a,#0x00
   0B39 F5                 3477 	push	af
   0B3A 33                 3478 	inc	sp
                           3479 ; genIpush
   0B3B 3E 00              3480 	ld	a,#0x00
   0B3D F5                 3481 	push	af
   0B3E 33                 3482 	inc	sp
                           3483 ; genIpush
   0B3F 3E 27              3484 	ld	a,#0x27
   0B41 F5                 3485 	push	af
   0B42 33                 3486 	inc	sp
                           3487 ; genCall
   0B43 CD 00 00           3488 	call	_move_sprite
   0B46 E8 03              3489 	lda	sp,3(sp)
                           3490 ;	ishallbequeen.c 511
                           3491 ; genIpush
   0B48 3E 00              3492 	ld	a,#0x00
   0B4A F5                 3493 	push	af
   0B4B 33                 3494 	inc	sp
                           3495 ; genIpush
   0B4C 3E 00              3496 	ld	a,#0x00
   0B4E F5                 3497 	push	af
   0B4F 33                 3498 	inc	sp
                           3499 ; genIpush
   0B50 3E 25              3500 	ld	a,#0x25
   0B52 F5                 3501 	push	af
   0B53 33                 3502 	inc	sp
                           3503 ; genCall
   0B54 CD 00 00           3504 	call	_move_sprite
   0B57 E8 03              3505 	lda	sp,3(sp)
                           3506 ;	ishallbequeen.c 512
                           3507 ; genIpush
   0B59 3E 00              3508 	ld	a,#0x00
   0B5B F5                 3509 	push	af
   0B5C 33                 3510 	inc	sp
                           3511 ; genIpush
   0B5D 3E 00              3512 	ld	a,#0x00
   0B5F F5                 3513 	push	af
   0B60 33                 3514 	inc	sp
                           3515 ; genIpush
   0B61 3E 26              3516 	ld	a,#0x26
   0B63 F5                 3517 	push	af
   0B64 33                 3518 	inc	sp
                           3519 ; genCall
   0B65 CD 00 00           3520 	call	_move_sprite
   0B68 E8 03              3521 	lda	sp,3(sp)
                           3522 ;	ishallbequeen.c 513
                           3523 ; genAssign
                           3524 ; AOP_HL for _attackDelay
   0B6A 21 23 00           3525 	ld	hl,#_attackDelay + 0
   0B6D 36 05              3526 	ld	(hl),#0x05
                           3527 ; genLabel
   0B6F                    3528 00207$:
                           3529 ;	ishallbequeen.c 520
                           3530 ; genCmpEq
                           3531 ; AOP_HL for _pState
   0B6F 21 82 00           3532 	ld	hl,#_pState + 0
   0B72 7E                 3533 	ld	a,(hl) ; 2
   0B73 FE 02              3534 	cp	a,#0x02
   0B75 C2 7A 0B           3535 	jp	nz,00494$
   0B78 18 03              3536 	jr	00495$
   0B7A                    3537 00494$:
   0B7A C3 4C 0C           3538 	jp	00218$
   0B7D                    3539 00495$:
                           3540 ;	ishallbequeen.c 521
                           3541 ; genMinus
                           3542 ; AOP_HL for _jumpTime
   0B7D 21 84 00           3543 	ld	hl,#_jumpTime + 0
   0B80 35                 3544 	dec	(hl)
                           3545 ;	ishallbequeen.c 523
                           3546 ; genCmpGt
                           3547 ; AOP_HL for _jumpTime
   0B81 AF                 3548 	xor	a,a
   0B82 3E 17              3549 	ld	a,#0x17
   0B84 9E                 3550 	sbc	a,(hl) ; 2
   0B85 D2 BC 0B           3551 	jp	nc,00213$
                           3552 ;	ishallbequeen.c 524
                           3553 ; genMinus
                           3554 ; AOP_HL for _pY
   0B88 21 81 00           3555 	ld	hl,#_pY + 0
   0B8B 35                 3556 	dec	(hl)
                           3557 ;	ishallbequeen.c 526
                           3558 ; genCmpGt
                           3559 ; AOP_HL for _jumpTime
   0B8C AF                 3560 	xor	a,a
   0B8D 3E 23              3561 	ld	a,#0x23
   0B8F 21 84 00           3562 	ld	hl,#_jumpTime + 0
   0B92 9E                 3563 	sbc	a,(hl) ; 2
   0B93 D2 D1 0B           3564 	jp	nc,00214$
                           3565 ;	ishallbequeen.c 527
                           3566 ; genMinus
                           3567 ; AOP_HL for _pY
   0B96 21 81 00           3568 	ld	hl,#_pY + 0
   0B99 35                 3569 	dec	(hl)
                           3570 ;	ishallbequeen.c 529
                           3571 ; genAssign
                           3572 ; AOP_SFR for _NR21_REG
   0B9A 3E 7F              3573 	ld	a,#0x7F
   0B9C E0 00              3574 	ldh	(_NR21_REG+0),a
                           3575 ;	ishallbequeen.c 530
                           3576 ; genAssign
                           3577 ; AOP_HL for _jumpTime
                           3578 ; AOP_SFR for _NR22_REG
   0B9E 21 84 00           3579 	ld	hl,#_jumpTime + 0
   0BA1 7E                 3580 	ld	a,(hl)
   0BA2 E0 00              3581 	ldh	(_NR22_REG+0),a
                           3582 ;	ishallbequeen.c 531
                           3583 ; genLeftShift
                           3584 ; AOP_HL for _jumpTime
   0BA4 7E                 3585 	ld	a,(hl)
   0BA5 CB 17              3586 	rl	a
   0BA7 CB 17              3587 	rl	a
   0BA9 CB 17              3588 	rl	a
   0BAB CB 17              3589 	rl	a
   0BAD E6 F0              3590 	and	a,#0xF0
   0BAF 4F                 3591 	ld	c,a
                           3592 ; genMinus
                           3593 ; AOP_SFR for _NR23_REG
   0BB0 3E FF              3594 	ld	a,#0xFF
   0BB2 91                 3595 	sub	a,c
   0BB3 E0 00              3596 	ldh	(_NR23_REG+0),a
                           3597 ;	ishallbequeen.c 532
                           3598 ; genAssign
                           3599 ; AOP_SFR for _NR24_REG
   0BB5 3E 86              3600 	ld	a,#0x86
   0BB7 E0 00              3601 	ldh	(_NR24_REG+0),a
                           3602 ; genGoto
   0BB9 C3 D1 0B           3603 	jp	00214$
                           3604 ; genLabel
   0BBC                    3605 00213$:
                           3606 ;	ishallbequeen.c 537
                           3607 ; genAssign
                           3608 ; AOP_SFR for _NR22_REG
   0BBC 3E 00              3609 	ld	a,#0x00
   0BBE E0 00              3610 	ldh	(_NR22_REG+0),a
                           3611 ;	ishallbequeen.c 538
                           3612 ; genPlus
                           3613 ; AOP_HL for _pY
                           3614 ; genPlusIncr
   0BC0 21 81 00           3615 	ld	hl,#_pY + 0
   0BC3 34                 3616 	inc	(hl)
                           3617 ;	ishallbequeen.c 541
                           3618 ; genCmpLt
                           3619 ; AOP_HL for _jumpTime
   0BC4 21 84 00           3620 	ld	hl,#_jumpTime + 0
   0BC7 7E                 3621 	ld	a,(hl)
   0BC8 FE 0D              3622 	cp	#0x0D
   0BCA D2 D1 0B           3623 	jp	nc,00214$
                           3624 ;	ishallbequeen.c 542
                           3625 ; genPlus
                           3626 ; AOP_HL for _pY
                           3627 ; genPlusIncr
   0BCD 21 81 00           3628 	ld	hl,#_pY + 0
   0BD0 34                 3629 	inc	(hl)
                           3630 ; genLabel
   0BD1                    3631 00214$:
                           3632 ;	ishallbequeen.c 549
                           3633 ; genPlus
                           3634 ; AOP_HL for _pX
                           3635 ; genPlusIncr
   0BD1 21 80 00           3636 	ld	hl,#_pX + 0
   0BD4 7E                 3637 	ld	a,(hl)
   0BD5 C6 04              3638 	add	a,#0x04
   0BD7 4F                 3639 	ld	c,a
                           3640 ; genIpush
                           3641 ; AOP_HL for _shadowY
   0BD8 21 2A 00           3642 	ld	hl,#_shadowY + 0
   0BDB 7E                 3643 	ld	a,(hl)
   0BDC F5                 3644 	push	af
   0BDD 33                 3645 	inc	sp
                           3646 ; genIpush
   0BDE 79                 3647 	ld	a,c
   0BDF F5                 3648 	push	af
   0BE0 33                 3649 	inc	sp
                           3650 ; genIpush
   0BE1 3E 23              3651 	ld	a,#0x23
   0BE3 F5                 3652 	push	af
   0BE4 33                 3653 	inc	sp
                           3654 ; genCall
   0BE5 CD 00 00           3655 	call	_move_sprite
   0BE8 E8 03              3656 	lda	sp,3(sp)
                           3657 ;	ishallbequeen.c 550
                           3658 ; genPlus
                           3659 ; AOP_HL for _pX
                           3660 ; genPlusIncr
   0BEA 21 80 00           3661 	ld	hl,#_pX + 0
   0BED 7E                 3662 	ld	a,(hl)
   0BEE C6 0C              3663 	add	a,#0x0C
   0BF0 4F                 3664 	ld	c,a
                           3665 ; genIpush
                           3666 ; AOP_HL for _shadowY
   0BF1 21 2A 00           3667 	ld	hl,#_shadowY + 0
   0BF4 7E                 3668 	ld	a,(hl)
   0BF5 F5                 3669 	push	af
   0BF6 33                 3670 	inc	sp
                           3671 ; genIpush
   0BF7 79                 3672 	ld	a,c
   0BF8 F5                 3673 	push	af
   0BF9 33                 3674 	inc	sp
                           3675 ; genIpush
   0BFA 3E 24              3676 	ld	a,#0x24
   0BFC F5                 3677 	push	af
   0BFD 33                 3678 	inc	sp
                           3679 ; genCall
   0BFE CD 00 00           3680 	call	_move_sprite
   0C01 E8 03              3681 	lda	sp,3(sp)
                           3682 ;	ishallbequeen.c 552
                           3683 ; genCmpEq
                           3684 ; AOP_HL for _jumpTime
   0C03 21 84 00           3685 	ld	hl,#_jumpTime + 0
   0C06 7E                 3686 	ld	a,(hl)
   0C07 B7                 3687 	or	a,a
   0C08 C2 0D 0C           3688 	jp	nz,00496$
   0C0B 18 03              3689 	jr	00497$
   0C0D                    3690 00496$:
   0C0D C3 4C 0C           3691 	jp	00218$
   0C10                    3692 00497$:
                           3693 ;	ishallbequeen.c 553
                           3694 ; genAssign
                           3695 ; AOP_HL for _screenShake
   0C10 21 20 00           3696 	ld	hl,#_screenShake + 0
   0C13 36 05              3697 	ld	(hl),#0x05
                           3698 ;	ishallbequeen.c 554
                           3699 ; genAssign
                           3700 ; AOP_HL for _shakeDir
   0C15 21 21 00           3701 	ld	hl,#_shakeDir + 0
   0C18 36 00              3702 	ld	(hl),#0x00
                           3703 ;	ishallbequeen.c 555
                           3704 ; genIpush
   0C1A 3E 00              3705 	ld	a,#0x00
   0C1C F5                 3706 	push	af
   0C1D 33                 3707 	inc	sp
                           3708 ; genIpush
   0C1E 3E 00              3709 	ld	a,#0x00
   0C20 F5                 3710 	push	af
   0C21 33                 3711 	inc	sp
                           3712 ; genIpush
   0C22 3E 23              3713 	ld	a,#0x23
   0C24 F5                 3714 	push	af
   0C25 33                 3715 	inc	sp
                           3716 ; genCall
   0C26 CD 00 00           3717 	call	_move_sprite
   0C29 E8 03              3718 	lda	sp,3(sp)
                           3719 ;	ishallbequeen.c 556
                           3720 ; genIpush
   0C2B 3E 00              3721 	ld	a,#0x00
   0C2D F5                 3722 	push	af
   0C2E 33                 3723 	inc	sp
                           3724 ; genIpush
   0C2F 3E 00              3725 	ld	a,#0x00
   0C31 F5                 3726 	push	af
   0C32 33                 3727 	inc	sp
                           3728 ; genIpush
   0C33 3E 24              3729 	ld	a,#0x24
   0C35 F5                 3730 	push	af
   0C36 33                 3731 	inc	sp
                           3732 ; genCall
   0C37 CD 00 00           3733 	call	_move_sprite
   0C3A E8 03              3734 	lda	sp,3(sp)
                           3735 ;	ishallbequeen.c 557
                           3736 ; genAssign
                           3737 ; AOP_HL for _pState
   0C3C 21 82 00           3738 	ld	hl,#_pState + 0
   0C3F 36 00              3739 	ld	(hl),#0x00
                           3740 ;	ishallbequeen.c 558
                           3741 ; genAssign
                           3742 ; AOP_HL for _playerFrame
   0C41 21 83 00           3743 	ld	hl,#_playerFrame + 0
   0C44 36 00              3744 	ld	(hl),#0x00
                           3745 ;	ishallbequeen.c 559
                           3746 ; genCall
   0C46 CD 6D 1B           3747 	call	_updatePlayerFrame
                           3748 ;	ishallbequeen.c 560
                           3749 ; genCall
   0C49 CD E4 27           3750 	call	_performStateChange
                           3751 ; genLabel
   0C4C                    3752 00218$:
                           3753 ;	ishallbequeen.c 564
                           3754 ; genCall
   0C4C CD 00 00           3755 	call	_joypad
   0C4F 4B                 3756 	ld	c,e
                           3757 ; genAnd
   0C50 79                 3758 	ld	a,c
   0C51 CB 67              3759 	bit	4,a
   0C53 CA 7E 0C           3760 	jp	z,00220$
                           3761 ; genCmpEq
                           3762 ; AOP_HL for _pState
   0C56 21 82 00           3763 	ld	hl,#_pState + 0
   0C59 7E                 3764 	ld	a,(hl) ; 2
   0C5A FE 02              3765 	cp	a,#0x02
                           3766 ; Rule 5
   0C5C CA 7E 0C           3767 	jp	z,00220$
   0C5F                    3768 00498$:
                           3769 ;	ishallbequeen.c 565
                           3770 ; genAssign
                           3771 ; AOP_HL for _pState
   0C5F 21 82 00           3772 	ld	hl,#_pState + 0
   0C62 36 02              3773 	ld	(hl),#0x02
                           3774 ;	ishallbequeen.c 566
                           3775 ; genAssign
                           3776 ; AOP_HL for _playerFrame
   0C64 21 83 00           3777 	ld	hl,#_playerFrame + 0
   0C67 36 06              3778 	ld	(hl),#0x06
                           3779 ;	ishallbequeen.c 567
                           3780 ; genPlus
                           3781 ; AOP_HL for _pY
                           3782 ; AOP_HL for _shadowY
                           3783 ; genPlusIncr
   0C69 21 81 00           3784 	ld	hl,#_pY + 0
   0C6C 7E                 3785 	ld	a,(hl)
   0C6D C6 24              3786 	add	a,#0x24
   0C6F 21 2A 00           3787 	ld	hl,#_shadowY + 0
   0C72 77                 3788 	ld	(hl),a
                           3789 ;	ishallbequeen.c 568
                           3790 ; genCall
   0C73 CD 6D 1B           3791 	call	_updatePlayerFrame
                           3792 ;	ishallbequeen.c 569
                           3793 ; genCall
   0C76 CD E4 27           3794 	call	_performStateChange
                           3795 ;	ishallbequeen.c 570
                           3796 ; genAssign
                           3797 ; AOP_HL for _jumpTime
   0C79 21 84 00           3798 	ld	hl,#_jumpTime + 0
   0C7C 36 30              3799 	ld	(hl),#0x30
                           3800 ; genLabel
   0C7E                    3801 00220$:
                           3802 ;	ishallbequeen.c 573
                           3803 ; genCall
   0C7E CD 00 00           3804 	call	_joypad
   0C81 4B                 3805 	ld	c,e
                           3806 ; genAnd
   0C82 79                 3807 	ld	a,c
   0C83 CB 77              3808 	bit	6,a
   0C85 CA C6 0C           3809 	jp	z,00228$
                           3810 ;	ishallbequeen.c 574
                           3811 ; genCmpEq
                           3812 ; AOP_HL for _pState
   0C88 21 82 00           3813 	ld	hl,#_pState + 0
   0C8B 7E                 3814 	ld	a,(hl) ; 2
   0C8C FE 02              3815 	cp	a,#0x02
                           3816 ; Rule 5
   0C8E CA C6 0C           3817 	jp	z,00228$
   0C91                    3818 00499$:
                           3819 ; genIfx
                           3820 ; AOP_STK for _main_sloc15_1_0
   0C91 AF                 3821 	xor	a,a
   0C92 F8 0F              3822 	lda	hl,15(sp)
   0C94 B6                 3823 	or	a,(hl)
   0C95 B7                 3824 	or	a,a
   0C96 CA C6 0C           3825 	jp	z,00228$
                           3826 ; genCmpGt
                           3827 ; AOP_HL for _MP
   0C99 AF                 3828 	xor	a,a
   0C9A 3E 04              3829 	ld	a,#0x04
   0C9C 21 89 00           3830 	ld	hl,#_MP + 0
   0C9F 9E                 3831 	sbc	a,(hl) ; 2
   0CA0 D2 C6 0C           3832 	jp	nc,00228$
                           3833 ; genCmpEq
                           3834 ; AOP_HL for _fireBallLife
   0CA3 21 02 00           3835 	ld	hl,#_fireBallLife + 0
   0CA6 7E                 3836 	ld	a,(hl)
   0CA7 B7                 3837 	or	a,a
   0CA8 C2 AD 0C           3838 	jp	nz,00500$
   0CAB 18 03              3839 	jr	00501$
   0CAD                    3840 00500$:
   0CAD C3 C6 0C           3841 	jp	00228$
   0CB0                    3842 00501$:
                           3843 ;	ishallbequeen.c 575
                           3844 ; genMinus
                           3845 ; AOP_HL for _MP
   0CB0 21 89 00           3846 	ld	hl,#_MP + 0
   0CB3 7E                 3847 	ld	a,(hl)
   0CB4 C6 FC              3848 	add	a,#0xFC
   0CB6 77                 3849 	ld	(hl),a
                           3850 ;	ishallbequeen.c 576
                           3851 ; genIpush
                           3852 ; AOP_HL for _MP
   0CB7 7E                 3853 	ld	a,(hl)
   0CB8 F5                 3854 	push	af
   0CB9 33                 3855 	inc	sp
                           3856 ; genIpush
   0CBA 3E 01              3857 	ld	a,#0x01
   0CBC F5                 3858 	push	af
   0CBD 33                 3859 	inc	sp
                           3860 ; genCall
   0CBE CD 1C 0F           3861 	call	_updateBar
   0CC1 E8 02              3862 	lda	sp,2(sp)
                           3863 ;	ishallbequeen.c 577
                           3864 ; genCall
   0CC3 CD 44 2E           3865 	call	_launchFireBall
                           3866 ; genLabel
   0CC6                    3867 00228$:
                           3868 ;	ishallbequeen.c 582
                           3869 ; genIfx
                           3870 ; AOP_STK for _main_sloc15_1_0
   0CC6 AF                 3871 	xor	a,a
   0CC7 F8 0F              3872 	lda	hl,15(sp)
   0CC9 B6                 3873 	or	a,(hl)
   0CCA B7                 3874 	or	a,a
   0CCB CA E7 0D           3875 	jp	z,00253$
                           3876 ;	ishallbequeen.c 584
                           3877 ; genCall
   0CCE CD 00 00           3878 	call	_joypad
   0CD1 4B                 3879 	ld	c,e
                           3880 ; genAnd
   0CD2 79                 3881 	ld	a,c
   0CD3 CB 47              3882 	bit	0,a
   0CD5 CA 77 0D           3883 	jp	z,00235$
                           3884 ;	ishallbequeen.c 586
                           3885 ; genCmpEq
                           3886 ; AOP_HL for _pX
   0CD8 21 80 00           3887 	ld	hl,#_pX + 0
   0CDB 7E                 3888 	ld	a,(hl) ; 2
   0CDC FE 64              3889 	cp	a,#0x64
                           3890 ; Rule 5
   0CDE CA ED 0C           3891 	jp	z,00232$
   0CE1                    3892 00502$:
                           3893 ;	ishallbequeen.c 587
                           3894 ; genAssign
                           3895 ; AOP_HL for _flipX
   0CE1 21 8B 00           3896 	ld	hl,#_flipX + 0
   0CE4 36 00              3897 	ld	(hl),#0x00
                           3898 ;	ishallbequeen.c 588
                           3899 ; genPlus
                           3900 ; AOP_HL for _pX
                           3901 ; genPlusIncr
   0CE6 21 80 00           3902 	ld	hl,#_pX + 0
   0CE9 34                 3903 	inc	(hl)
                           3904 ; genGoto
   0CEA C3 72 0D           3905 	jp	00233$
                           3906 ; genLabel
   0CED                    3907 00232$:
                           3908 ;	ishallbequeen.c 590
                           3909 ; genIpush
   0CED 3E 00              3910 	ld	a,#0x00
   0CEF F5                 3911 	push	af
   0CF0 33                 3912 	inc	sp
                           3913 ; genIpush
   0CF1 3E 01              3914 	ld	a,#0x01
   0CF3 F5                 3915 	push	af
   0CF4 33                 3916 	inc	sp
                           3917 ; genCall
   0CF5 CD 00 00           3918 	call	_scroll_bkg
   0CF8 E8 02              3919 	lda	sp,2(sp)
                           3920 ;	ishallbequeen.c 591
                           3921 ; genPlus
                           3922 ; AOP_HL for _globalY
                           3923 ; genPlusIncr
   0CFA 21 1F 00           3924 	ld	hl,#_globalY + 0
   0CFD 34                 3925 	inc	(hl)
                           3926 ;	ishallbequeen.c 592
                           3927 ; genMinus
                           3928 ; AOP_HL for _powerUpX
   0CFE 21 26 00           3929 	ld	hl,#_powerUpX + 0
   0D01 35                 3930 	dec	(hl)
                           3931 ;	ishallbequeen.c 594
                           3932 ; genCmpGt
                           3933 ; AOP_HL for _powerUpX
   0D02 AF                 3934 	xor	a,a
   0D03 3E B4              3935 	ld	a,#0xB4
   0D05 9E                 3936 	sbc	a,(hl) ; 2
   0D06 D2 0E 0D           3937 	jp	nc,00230$
                           3938 ;	ishallbequeen.c 595
                           3939 ; genAssign
                           3940 ; AOP_HL for _powerUpY
   0D09 21 27 00           3941 	ld	hl,#_powerUpY + 0
   0D0C 36 BE              3942 	ld	(hl),#0xBE
                           3943 ; genLabel
   0D0E                    3944 00230$:
                           3945 ;	ishallbequeen.c 598
                           3946 ; genIpush
                           3947 ; AOP_HL for _powerUpY
   0D0E 21 27 00           3948 	ld	hl,#_powerUpY + 0
   0D11 7E                 3949 	ld	a,(hl)
   0D12 F5                 3950 	push	af
   0D13 33                 3951 	inc	sp
                           3952 ; genIpush
                           3953 ; AOP_HL for _powerUpX
   0D14 21 26 00           3954 	ld	hl,#_powerUpX + 0
   0D17 7E                 3955 	ld	a,(hl)
   0D18 F5                 3956 	push	af
   0D19 33                 3957 	inc	sp
                           3958 ; genIpush
   0D1A 3E 22              3959 	ld	a,#0x22
   0D1C F5                 3960 	push	af
   0D1D 33                 3961 	inc	sp
                           3962 ; genCall
   0D1E CD 00 00           3963 	call	_move_sprite
   0D21 E8 03              3964 	lda	sp,3(sp)
                           3965 ;	ishallbequeen.c 599
                           3966 ; genPointerGet
   0D23 11 AC 00           3967 	ld	de,#_eX + 0
   0D26 1A                 3968 	ld	a,(de)
   0D27 4F                 3969 	ld	c,a
                           3970 ; genMinus
   0D28 0D                 3971 	dec	c
                           3972 ; genAssign (pointer)
   0D29 11 AC 00           3973 	ld	de,#_eX + 0
   0D2C 79                 3974 	ld	a,c
   0D2D 12                 3975 	ld	(de),a
                           3976 ;	ishallbequeen.c 600
                           3977 ; genPlus
                           3978 ; AOP_STK for _main_sloc24_1_0
                           3979 ; genPlusIncr
   0D2E 3E AC              3980 	ld	a,#<_eX
   0D30 C6 01              3981 	add	a,#0x01
   0D32 F8 02              3982 	lda	hl,2(sp)
   0D34 77                 3983 	ld	(hl),a ; 3
   0D35 3E 00              3984 	ld	a,#>_eX
   0D37 CE 00              3985 	adc	a,#0x00
   0D39 23                 3986 	inc	hl
   0D3A 77                 3987 	ld	(hl),a ; 3
                           3988 ; genPointerGet
                           3989 ; AOP_STK for _main_sloc24_1_0
                           3990 ; AOP_STK for _main_sloc25_1_0
   0D3B 2B                 3991 	dec	hl
   0D3C 5E                 3992 	ld	e,(hl)
   0D3D 23                 3993 	inc	hl
   0D3E 56                 3994 	ld	d,(hl)
   0D3F 1A                 3995 	ld	a,(de)
   0D40 F8 00              3996 	lda	hl,0(sp)
   0D42 77                 3997 	ld	(hl),a ; 3
                           3998 ; genMinus
                           3999 ; AOP_STK for _main_sloc25_1_0
   0D43 7E                 4000 	ld	a,(hl)
   0D44 C6 FF              4001 	add	a,#0xFF
   0D46 4F                 4002 	ld	c,a
                           4003 ; genAssign (pointer)
                           4004 ; AOP_STK for _main_sloc24_1_0
   0D47 23                 4005 	inc	hl
   0D48 23                 4006 	inc	hl
   0D49 5E                 4007 	ld	e,(hl)
   0D4A 23                 4008 	inc	hl
   0D4B 56                 4009 	ld	d,(hl)
   0D4C 79                 4010 	ld	a,c
   0D4D 12                 4011 	ld	(de),a
                           4012 ;	ishallbequeen.c 601
                           4013 ; genPlus
                           4014 ; AOP_STK for _main_sloc24_1_0
                           4015 ; genPlusIncr
   0D4E 3E AC              4016 	ld	a,#<_eX
   0D50 C6 02              4017 	add	a,#0x02
   0D52 2B                 4018 	dec	hl
   0D53 77                 4019 	ld	(hl),a ; 3
   0D54 3E 00              4020 	ld	a,#>_eX
   0D56 CE 00              4021 	adc	a,#0x00
   0D58 23                 4022 	inc	hl
   0D59 77                 4023 	ld	(hl),a ; 3
                           4024 ; genPointerGet
                           4025 ; AOP_STK for _main_sloc24_1_0
                           4026 ; AOP_STK for _main_sloc25_1_0
   0D5A 2B                 4027 	dec	hl
   0D5B 5E                 4028 	ld	e,(hl)
   0D5C 23                 4029 	inc	hl
   0D5D 56                 4030 	ld	d,(hl)
   0D5E 1A                 4031 	ld	a,(de)
   0D5F F8 00              4032 	lda	hl,0(sp)
   0D61 77                 4033 	ld	(hl),a ; 3
                           4034 ; genMinus
                           4035 ; AOP_STK for _main_sloc25_1_0
   0D62 7E                 4036 	ld	a,(hl)
   0D63 C6 FF              4037 	add	a,#0xFF
   0D65 4F                 4038 	ld	c,a
                           4039 ; genAssign (pointer)
                           4040 ; AOP_STK for _main_sloc24_1_0
   0D66 23                 4041 	inc	hl
   0D67 23                 4042 	inc	hl
   0D68 5E                 4043 	ld	e,(hl)
   0D69 23                 4044 	inc	hl
   0D6A 56                 4045 	ld	d,(hl)
   0D6B 79                 4046 	ld	a,c
   0D6C 12                 4047 	ld	(de),a
                           4048 ;	ishallbequeen.c 602
                           4049 ; genAssign
                           4050 ; AOP_HL for _pX
   0D6D 21 80 00           4051 	ld	hl,#_pX + 0
   0D70 36 64              4052 	ld	(hl),#0x64
                           4053 ; genLabel
   0D72                    4054 00233$:
                           4055 ;	ishallbequeen.c 605
                           4056 ; genAssign
                           4057 ; AOP_HL for _isMoving
   0D72 21 7F 00           4058 	ld	hl,#_isMoving + 0
   0D75 36 01              4059 	ld	(hl),#0x01
                           4060 ; genLabel
   0D77                    4061 00235$:
                           4062 ;	ishallbequeen.c 610
                           4063 ; genCall
   0D77 CD 00 00           4064 	call	_joypad
   0D7A 4B                 4065 	ld	c,e
                           4066 ; genAnd
   0D7B 79                 4067 	ld	a,c
   0D7C CB 4F              4068 	bit	1,a
   0D7E CA 98 0D           4069 	jp	z,00239$
                           4070 ;	ishallbequeen.c 612
                           4071 ; genCmpEq
                           4072 ; AOP_HL for _pX
   0D81 21 80 00           4073 	ld	hl,#_pX + 0
   0D84 7E                 4074 	ld	a,(hl) ; 2
   0D85 FE 08              4075 	cp	a,#0x08
                           4076 ; Rule 5
   0D87 CA 98 0D           4077 	jp	z,00239$
   0D8A                    4078 00503$:
                           4079 ;	ishallbequeen.c 613
                           4080 ; genAssign
                           4081 ; AOP_HL for _flipX
   0D8A 21 8B 00           4082 	ld	hl,#_flipX + 0
   0D8D 36 01              4083 	ld	(hl),#0x01
                           4084 ;	ishallbequeen.c 614
                           4085 ; genMinus
                           4086 ; AOP_HL for _pX
   0D8F 21 80 00           4087 	ld	hl,#_pX + 0
   0D92 35                 4088 	dec	(hl)
                           4089 ;	ishallbequeen.c 615
                           4090 ; genAssign
                           4091 ; AOP_HL for _isMoving
   0D93 21 7F 00           4092 	ld	hl,#_isMoving + 0
   0D96 36 01              4093 	ld	(hl),#0x01
                           4094 ; genLabel
   0D98                    4095 00239$:
                           4096 ;	ishallbequeen.c 620
                           4097 ; genCall
   0D98 CD 00 00           4098 	call	_joypad
   0D9B 4B                 4099 	ld	c,e
                           4100 ; genAnd
   0D9C 79                 4101 	ld	a,c
   0D9D CB 57              4102 	bit	2,a
   0D9F CA C1 0D           4103 	jp	z,00245$
                           4104 ;	ishallbequeen.c 622
                           4105 ; genCmpEq
                           4106 ; AOP_HL for _pState
   0DA2 21 82 00           4107 	ld	hl,#_pState + 0
   0DA5 7E                 4108 	ld	a,(hl)
   0DA6 B7                 4109 	or	a,a
   0DA7 C2 AC 0D           4110 	jp	nz,00504$
   0DAA 18 03              4111 	jr	00505$
   0DAC                    4112 00504$:
   0DAC C3 C1 0D           4113 	jp	00245$
   0DAF                    4114 00505$:
                           4115 ;	ishallbequeen.c 624
                           4116 ; genCmpEq
                           4117 ; AOP_HL for _pY
   0DAF 21 81 00           4118 	ld	hl,#_pY + 0
   0DB2 7E                 4119 	ld	a,(hl) ; 2
   0DB3 FE 18              4120 	cp	a,#0x18
                           4121 ; Rule 5
   0DB5 CA C1 0D           4122 	jp	z,00245$
   0DB8                    4123 00506$:
                           4124 ;	ishallbequeen.c 625
                           4125 ; genMinus
                           4126 ; AOP_HL for _pY
   0DB8 21 81 00           4127 	ld	hl,#_pY + 0
   0DBB 35                 4128 	dec	(hl)
                           4129 ;	ishallbequeen.c 626
                           4130 ; genAssign
                           4131 ; AOP_HL for _isMoving
   0DBC 21 7F 00           4132 	ld	hl,#_isMoving + 0
   0DBF 36 01              4133 	ld	(hl),#0x01
                           4134 ;	ishallbequeen.c 629
                           4135 ; genLabel
   0DC1                    4136 00245$:
                           4137 ;	ishallbequeen.c 633
                           4138 ; genCall
   0DC1 CD 00 00           4139 	call	_joypad
   0DC4 4B                 4140 	ld	c,e
                           4141 ; genAnd
   0DC5 79                 4142 	ld	a,c
   0DC6 CB 5F              4143 	bit	3,a
   0DC8 CA E7 0D           4144 	jp	z,00253$
                           4145 ;	ishallbequeen.c 635
                           4146 ; genCmpEq
                           4147 ; AOP_HL for _pState
   0DCB 21 82 00           4148 	ld	hl,#_pState + 0
   0DCE 7E                 4149 	ld	a,(hl)
   0DCF B7                 4150 	or	a,a
   0DD0 C2 D5 0D           4151 	jp	nz,00507$
   0DD3 18 03              4152 	jr	00508$
   0DD5                    4153 00507$:
   0DD5 C3 E7 0D           4154 	jp	00253$
   0DD8                    4155 00508$:
                           4156 ;	ishallbequeen.c 640
                           4157 ; genCmpLt
                           4158 ; AOP_HL for _pY
   0DD8 21 81 00           4159 	ld	hl,#_pY + 0
   0DDB 7E                 4160 	ld	a,(hl)
   0DDC FE 5C              4161 	cp	#0x5C
   0DDE D2 E7 0D           4162 	jp	nc,00253$
                           4163 ;	ishallbequeen.c 641
                           4164 ; genPlus
                           4165 ; AOP_HL for _pY
                           4166 ; genPlusIncr
   0DE1 34                 4167 	inc	(hl)
                           4168 ;	ishallbequeen.c 642
                           4169 ; genAssign
                           4170 ; AOP_HL for _isMoving
   0DE2 21 7F 00           4171 	ld	hl,#_isMoving + 0
   0DE5 36 01              4172 	ld	(hl),#0x01
                           4173 ;	ishallbequeen.c 646
                           4174 ; genLabel
   0DE7                    4175 00253$:
                           4176 ;	ishallbequeen.c 651
                           4177 ; genCmpGt
                           4178 ; AOP_HL for _pY
   0DE7 AF                 4179 	xor	a,a
   0DE8 3E 5B              4180 	ld	a,#0x5B
   0DEA 21 81 00           4181 	ld	hl,#_pY + 0
   0DED 9E                 4182 	sbc	a,(hl) ; 2
   0DEE D2 F9 0D           4183 	jp	nc,00255$
                           4184 ; genCmpLt
                           4185 ; AOP_HL for _pY
   0DF1 7E                 4186 	ld	a,(hl)
   0DF2 FE A0              4187 	cp	#0xA0
   0DF4 D2 F9 0D           4188 	jp	nc,00255$
                           4189 ;	ishallbequeen.c 652
                           4190 ; genAssign
                           4191 ; AOP_HL for _pY
   0DF7 36 5B              4192 	ld	(hl),#0x5B
                           4193 ; genLabel
   0DF9                    4194 00255$:
                           4195 ;	ishallbequeen.c 655
                           4196 ; genCmpEq
                           4197 ; AOP_HL for _isMoving
   0DF9 21 7F 00           4198 	ld	hl,#_isMoving + 0
   0DFC 7E                 4199 	ld	a,(hl) ; 2
   0DFD FE 01              4200 	cp	a,#0x01
   0DFF C2 04 0E           4201 	jp	nz,00509$
   0E02 18 03              4202 	jr	00510$
   0E04                    4203 00509$:
   0E04 C3 0B 0E           4204 	jp	00258$
   0E07                    4205 00510$:
                           4206 ;	ishallbequeen.c 656
                           4207 ; genPlus
                           4208 ; AOP_HL for _move
                           4209 ; genPlusIncr
   0E07 21 7E 00           4210 	ld	hl,#_move + 0
   0E0A 34                 4211 	inc	(hl)
                           4212 ; genLabel
   0E0B                    4213 00258$:
                           4214 ;	ishallbequeen.c 659
                           4215 ; genCmpEq
                           4216 ; AOP_HL for _pState
   0E0B 21 82 00           4217 	ld	hl,#_pState + 0
   0E0E 7E                 4218 	ld	a,(hl)
   0E0F B7                 4219 	or	a,a
   0E10 C2 15 0E           4220 	jp	nz,00511$
   0E13 18 03              4221 	jr	00512$
   0E15                    4222 00511$:
   0E15 C3 8D 0E           4223 	jp	00267$
   0E18                    4224 00512$:
                           4225 ;	ishallbequeen.c 660
                           4226 ; genIpush
   0E18 3E 1E              4227 	ld	a,#0x1E
   0E1A F5                 4228 	push	af
   0E1B 33                 4229 	inc	sp
                           4230 ; genIpush
                           4231 ; AOP_HL for _move
   0E1C 21 7E 00           4232 	ld	hl,#_move + 0
   0E1F 7E                 4233 	ld	a,(hl)
   0E20 F5                 4234 	push	af
   0E21 33                 4235 	inc	sp
                           4236 ; genCall
   0E22 CD 00 00           4237 	call	__moduchar
                           4238 ; AOP_HL for _wn
   0E25 21 12 00           4239 	ld	hl,#_wn + 0
   0E28 73                 4240 	ld	(hl),e
   0E29 E8 02              4241 	lda	sp,2(sp)
                           4242 ;	ishallbequeen.c 662
                           4243 ; genCmpEq
                           4244 ; AOP_HL for _wn
   0E2B 7E                 4245 	ld	a,(hl) ; 2
   0E2C FE 09              4246 	cp	a,#0x09
   0E2E C2 33 0E           4247 	jp	nz,00513$
   0E31 18 03              4248 	jr	00514$
   0E33                    4249 00513$:
   0E33 C3 3E 0E           4250 	jp	00260$
   0E36                    4251 00514$:
                           4252 ;	ishallbequeen.c 663
                           4253 ; genAssign
                           4254 ; AOP_HL for _playerFrame
   0E36 21 83 00           4255 	ld	hl,#_playerFrame + 0
   0E39 36 01              4256 	ld	(hl),#0x01
                           4257 ;	ishallbequeen.c 664
                           4258 ; genCall
   0E3B CD 6D 1B           4259 	call	_updatePlayerFrame
                           4260 ; genLabel
   0E3E                    4261 00260$:
                           4262 ;	ishallbequeen.c 667
                           4263 ; genCmpEq
                           4264 ; AOP_HL for _wn
   0E3E 21 12 00           4265 	ld	hl,#_wn + 0
   0E41 7E                 4266 	ld	a,(hl) ; 2
   0E42 FE 13              4267 	cp	a,#0x13
   0E44 C2 49 0E           4268 	jp	nz,00515$
   0E47 18 03              4269 	jr	00516$
   0E49                    4270 00515$:
   0E49 C3 67 0E           4271 	jp	00262$
   0E4C                    4272 00516$:
                           4273 ;	ishallbequeen.c 668
                           4274 ; genAssign
                           4275 ; AOP_HL for _playerFrame
   0E4C 21 83 00           4276 	ld	hl,#_playerFrame + 0
   0E4F 36 02              4277 	ld	(hl),#0x02
                           4278 ;	ishallbequeen.c 669
                           4279 ; genCall
   0E51 CD 6D 1B           4280 	call	_updatePlayerFrame
                           4281 ;	ishallbequeen.c 670
                           4282 ; genAssign
                           4283 ; AOP_SFR for _NR21_REG
   0E54 3E 7F              4284 	ld	a,#0x7F
   0E56 E0 00              4285 	ldh	(_NR21_REG+0),a
                           4286 ;	ishallbequeen.c 671
                           4287 ; genAssign
                           4288 ; AOP_SFR for _NR22_REG
   0E58 3E 2F              4289 	ld	a,#0x2F
   0E5A E0 00              4290 	ldh	(_NR22_REG+0),a
                           4291 ;	ishallbequeen.c 672
                           4292 ; genAssign
                           4293 ; AOP_SFR for _NR23_REG
   0E5C 3E 00              4294 	ld	a,#0x00
   0E5E E0 00              4295 	ldh	(_NR23_REG+0),a
                           4296 ;	ishallbequeen.c 673
                           4297 ; genAssign
                           4298 ; AOP_SFR for _NR24_REG
   0E60 3E 82              4299 	ld	a,#0x82
   0E62 E0 00              4300 	ldh	(_NR24_REG+0),a
                           4301 ; genGoto
   0E64 C3 77 0E           4302 	jp	00263$
                           4303 ; genLabel
   0E67                    4304 00262$:
                           4305 ;	ishallbequeen.c 675
                           4306 ; genAssign
                           4307 ; AOP_SFR for _NR21_REG
   0E67 3E 00              4308 	ld	a,#0x00
   0E69 E0 00              4309 	ldh	(_NR21_REG+0),a
                           4310 ;	ishallbequeen.c 676
                           4311 ; genAssign
                           4312 ; AOP_SFR for _NR22_REG
   0E6B 3E 00              4313 	ld	a,#0x00
   0E6D E0 00              4314 	ldh	(_NR22_REG+0),a
                           4315 ;	ishallbequeen.c 677
                           4316 ; genAssign
                           4317 ; AOP_SFR for _NR23_REG
   0E6F 3E 00              4318 	ld	a,#0x00
   0E71 E0 00              4319 	ldh	(_NR23_REG+0),a
                           4320 ;	ishallbequeen.c 678
                           4321 ; genAssign
                           4322 ; AOP_SFR for _NR24_REG
   0E73 3E 00              4323 	ld	a,#0x00
   0E75 E0 00              4324 	ldh	(_NR24_REG+0),a
                           4325 ; genLabel
   0E77                    4326 00263$:
                           4327 ;	ishallbequeen.c 683
                           4328 ; genCmpEq
                           4329 ; AOP_HL for _wn
   0E77 21 12 00           4330 	ld	hl,#_wn + 0
   0E7A 7E                 4331 	ld	a,(hl) ; 2
   0E7B FE 1D              4332 	cp	a,#0x1D
   0E7D C2 82 0E           4333 	jp	nz,00517$
   0E80 18 03              4334 	jr	00518$
   0E82                    4335 00517$:
   0E82 C3 8D 0E           4336 	jp	00267$
   0E85                    4337 00518$:
                           4338 ;	ishallbequeen.c 684
                           4339 ; genAssign
                           4340 ; AOP_HL for _playerFrame
   0E85 21 83 00           4341 	ld	hl,#_playerFrame + 0
   0E88 36 03              4342 	ld	(hl),#0x03
                           4343 ;	ishallbequeen.c 685
                           4344 ; genCall
   0E8A CD 6D 1B           4345 	call	_updatePlayerFrame
                           4346 ; genLabel
   0E8D                    4347 00267$:
                           4348 ;	ishallbequeen.c 690
                           4349 ; genIfx
                           4350 ; AOP_STK for _main_sloc15_1_0
   0E8D AF                 4351 	xor	a,a
   0E8E F8 0F              4352 	lda	hl,15(sp)
   0E90 B6                 4353 	or	a,(hl)
   0E91 B7                 4354 	or	a,a
   0E92 CA B8 0E           4355 	jp	z,00272$
                           4356 ;	ishallbequeen.c 691
                           4357 ; genCall
   0E95 CD 00 00           4358 	call	_joypad
   0E98 4B                 4359 	ld	c,e
                           4360 ; genCmpEq
   0E99 79                 4361 	ld	a,c
   0E9A B7                 4362 	or	a,a
   0E9B C2 A0 0E           4363 	jp	nz,00519$
   0E9E 18 03              4364 	jr	00520$
   0EA0                    4365 00519$:
   0EA0 C3 B8 0E           4366 	jp	00272$
   0EA3                    4367 00520$:
                           4368 ; genCmpEq
                           4369 ; AOP_HL for _lastKeys
   0EA3 21 1E 00           4370 	ld	hl,#_lastKeys + 0
   0EA6 7E                 4371 	ld	a,(hl)
   0EA7 B7                 4372 	or	a,a
                           4373 ; Rule 5
   0EA8 CA B8 0E           4374 	jp	z,00272$
   0EAB                    4375 00521$:
                           4376 ;	ishallbequeen.c 692
                           4377 ; genAssign
                           4378 ; AOP_HL for _playerFrame
   0EAB 21 83 00           4379 	ld	hl,#_playerFrame + 0
   0EAE 36 00              4380 	ld	(hl),#0x00
                           4381 ;	ishallbequeen.c 693
                           4382 ; genAssign
                           4383 ; AOP_HL for _move
   0EB0 21 7E 00           4384 	ld	hl,#_move + 0
   0EB3 36 00              4385 	ld	(hl),#0x00
                           4386 ;	ishallbequeen.c 694
                           4387 ; genCall
   0EB5 CD 6D 1B           4388 	call	_updatePlayerFrame
                           4389 ; genLabel
   0EB8                    4390 00272$:
                           4391 ;	ishallbequeen.c 698
                           4392 ; genCall
   0EB8 CD 00 00           4393 	call	_joypad
   0EBB 4B                 4394 	ld	c,e
                           4395 ; genCmpEq
   0EBC 79                 4396 	ld	a,c
   0EBD B7                 4397 	or	a,a
   0EBE C2 C3 0E           4398 	jp	nz,00522$
   0EC1 18 03              4399 	jr	00523$
   0EC3                    4400 00522$:
   0EC3 C3 D4 0E           4401 	jp	00273$
   0EC6                    4402 00523$:
                           4403 ; genCmpEq
                           4404 ; AOP_HL for _pState
   0EC6 21 82 00           4405 	ld	hl,#_pState + 0
   0EC9 7E                 4406 	ld	a,(hl) ; 2
   0ECA FE 02              4407 	cp	a,#0x02
   0ECC C2 D1 0E           4408 	jp	nz,00524$
   0ECF 18 03              4409 	jr	00525$
   0ED1                    4410 00524$:
   0ED1 C3 D7 0E           4411 	jp	00274$
   0ED4                    4412 00525$:
                           4413 ; genLabel
   0ED4                    4414 00273$:
                           4415 ;	ishallbequeen.c 699
                           4416 ; genCall
   0ED4 CD AC 1B           4417 	call	_updatePlayer
                           4418 ; genLabel
   0ED7                    4419 00274$:
                           4420 ;	ishallbequeen.c 702
                           4421 ; genIpush
   0ED7 3E 04              4422 	ld	a,#0x04
   0ED9 F5                 4423 	push	af
   0EDA 33                 4424 	inc	sp
                           4425 ; genIpush
                           4426 ; AOP_HL for _frameCounter
   0EDB 21 A4 00           4427 	ld	hl,#_frameCounter + 0
   0EDE 7E                 4428 	ld	a,(hl)
   0EDF F5                 4429 	push	af
   0EE0 33                 4430 	inc	sp
                           4431 ; genCall
   0EE1 CD 00 00           4432 	call	__moduchar
                           4433 ; AOP_HL for _i
   0EE4 21 0B 00           4434 	ld	hl,#_i + 0
   0EE7 73                 4435 	ld	(hl),e
   0EE8 E8 02              4436 	lda	sp,2(sp)
                           4437 ;	ishallbequeen.c 703
                           4438 ; genCmpEq
                           4439 ; AOP_HL for _i
   0EEA 7E                 4440 	ld	a,(hl) ; 2
   0EEB FE 03              4441 	cp	a,#0x03
   0EED C2 F4 0E           4442 	jp	nz,00526$
   0EF0 3E 01              4443 	ld	a,#0x01
   0EF2 18 01              4444 	jr	00527$
   0EF4                    4445 00526$:
   0EF4 AF                 4446 	xor	a,a
   0EF5                    4447 00527$:
   0EF5 4F                 4448 	ld	c,a
                           4449 ; genIfx
                           4450 ; Removed redundent or a,a
   0EF6 AF                 4451 	xor	a,a
   0EF7 B1                 4452 	or	a,c
   0EF8 C2 FE 0E           4453 	jp	nz,00277$
                           4454 ;	ishallbequeen.c 704
                           4455 ; genCall
   0EFB CD D3 0F           4456 	call	_updateEnemies
                           4457 ; genLabel
   0EFE                    4458 00277$:
                           4459 ;	ishallbequeen.c 707
                           4460 ; genIfx
                           4461 ; Removed redundent or a,a
   0EFE AF                 4462 	xor	a,a
   0EFF B1                 4463 	or	a,c
   0F00 CA 0B 0F           4464 	jp	z,00280$
                           4465 ;	ishallbequeen.c 708
                           4466 ; genCall
   0F03 CD 62 21           4467 	call	_checkCollisions
                           4468 ;	ishallbequeen.c 709
                           4469 ; genAssign
                           4470 ; AOP_HL for _frameCounter
   0F06 21 A4 00           4471 	ld	hl,#_frameCounter + 0
   0F09 36 00              4472 	ld	(hl),#0x00
                           4473 ;	ishallbequeen.c 712
                           4474 ; genLabel
   0F0B                    4475 00280$:
                           4476 ;	ishallbequeen.c 714
                           4477 ; genCall
   0F0B CD 00 00           4478 	call	_joypad
                           4479 ; AOP_HL for _lastKeys
   0F0E 21 1E 00           4480 	ld	hl,#_lastKeys + 0
   0F11 73                 4481 	ld	(hl),e
                           4482 ;	ishallbequeen.c 715
                           4483 ; genCall
   0F12 CD 00 00           4484 	call	_wait_vbl_done
                           4485 ; genGoto
   0F15 C3 3D 00           4486 	jp	00282$
                           4487 ; genLabel
   0F18                    4488 00304$:
                           4489 ; genEndFunction
   0F18 E8 20              4490 	lda	sp,32(sp)
   0F1A C1                 4491 	pop bc
   0F1B C9                 4492 	ret
   0F1C                    4493 ___main_end:
                           4494 ;	ishallbequeen.c 721
                           4495 ; genLabel
                           4496 ; genFunction
                           4497 ;	---------------------------------
                           4498 ; Function updateBar
                           4499 ; ---------------------------------
   0F1C                    4500 ___updateBar_start:
   0F1C                    4501 _updateBar:
   0F1C C5                 4502 	push	bc
                           4503 ;	ishallbequeen.c 722
                           4504 ; genRightShift
                           4505 ; AOP_STK for 
                           4506 ; AOP_HL for _j
                           4507 ; shift right 	result 1, left 1
   0F1D F8 05              4508 	lda	hl,5(sp)
   0F1F 7E                 4509 	ld	a,(hl)
   0F20 CB 3F              4510 	srl	a
   0F22 CB 3F              4511 	srl	a
   0F24 CB 3F              4512 	srl	a
   0F26 21 0C 00           4513 	ld	hl,#_j + 0
   0F29 77                 4514 	ld	(hl),a
                           4515 ;	ishallbequeen.c 724
                           4516 ; genAssign (pointer)
   0F2A 11 8C 00           4517 	ld	de,#_barArray + 0
   0F2D 3E 2F              4518 	ld	a,#0x2F
   0F2F 12                 4519 	ld	(de),a
                           4520 ;	ishallbequeen.c 725
                           4521 ; genPlus
                           4522 ; genPlusIncr
   0F30 11 8D 00           4523 	ld	de,#_barArray + 1
                           4524 ; genAssign (pointer)
   0F33 3E 2F              4525 	ld	a,#0x2F
   0F35 12                 4526 	ld	(de),a
                           4527 ;	ishallbequeen.c 726
                           4528 ; genPlus
                           4529 ; genPlusIncr
   0F36 11 8E 00           4530 	ld	de,#_barArray + 2
                           4531 ; genAssign (pointer)
   0F39 3E 2F              4532 	ld	a,#0x2F
   0F3B 12                 4533 	ld	(de),a
                           4534 ;	ishallbequeen.c 727
                           4535 ; genPlus
                           4536 ; genPlusIncr
   0F3C 11 8F 00           4537 	ld	de,#_barArray + 3
                           4538 ; genAssign (pointer)
   0F3F 3E 2F              4539 	ld	a,#0x2F
   0F41 12                 4540 	ld	(de),a
                           4541 ;	ishallbequeen.c 729
                           4542 ; genAssign
                           4543 ; AOP_HL for _i
   0F42 21 0B 00           4544 	ld	hl,#_i + 0
   0F45 36 00              4545 	ld	(hl),#0x00
                           4546 ; genLabel
   0F47                    4547 00104$:
                           4548 ; genCmpEq
                           4549 ; AOP_HL for _i
                           4550 ; AOP_HL for _j
   0F47 21 0C 00           4551 	ld	hl,#_j + 0
   0F4A 7E                 4552 	ld	a,(hl)
   0F4B 21 0B 00           4553 	ld	hl,#_i + 0
   0F4E BE                 4554 	cp	(hl) ; 5
   0F4F 20 03              4555 	jr	nz,00113$
   0F51 C3 68 0F           4556 	jp	00107$
   0F54                    4557 00113$:
                           4558 ;	ishallbequeen.c 730
                           4559 ; genAssign
                           4560 ; AOP_HL for _i
   0F54 21 0B 00           4561 	ld	hl,#_i + 0
   0F57 4E                 4562 	ld	c,(hl)
                           4563 ; genPlus
   0F58 3E 8C              4564 	ld	a,#<_barArray
   0F5A 81                 4565 	add	a,c
   0F5B 5F                 4566 	ld	e,a
   0F5C 3E 00              4567 	ld	a,#>_barArray
   0F5E CE 00              4568 	adc	a,#0x00
   0F60 57                 4569 	ld	d,a
                           4570 ; genAssign (pointer)
   0F61 3E 27              4571 	ld	a,#0x27
   0F63 12                 4572 	ld	(de),a
                           4573 ;	ishallbequeen.c 729
                           4574 ; genPlus
                           4575 ; AOP_HL for _i
                           4576 ; genPlusIncr
   0F64 34                 4577 	inc	(hl)
                           4578 ; genGoto
   0F65 C3 47 0F           4579 	jp	00104$
                           4580 ; genLabel
   0F68                    4581 00107$:
                           4582 ;	ishallbequeen.c 733
                           4583 ; genIpush
   0F68 3E 08              4584 	ld	a,#0x08
   0F6A F5                 4585 	push	af
   0F6B 33                 4586 	inc	sp
                           4587 ; genIpush
                           4588 ; AOP_STK for 
   0F6C F8 06              4589 	lda	hl,6(sp)
   0F6E 7E                 4590 	ld	a,(hl)
   0F6F F5                 4591 	push	af
   0F70 33                 4592 	inc	sp
                           4593 ; genCall
   0F71 CD 00 00           4594 	call	__moduchar
                           4595 ; AOP_HL for _k
   0F74 21 0D 00           4596 	ld	hl,#_k + 0
   0F77 73                 4597 	ld	(hl),e
   0F78 E8 02              4598 	lda	sp,2(sp)
                           4599 ;	ishallbequeen.c 734
                           4600 ; genAssign
                           4601 ; AOP_HL for _i
   0F7A 21 0B 00           4602 	ld	hl,#_i + 0
   0F7D 4E                 4603 	ld	c,(hl)
                           4604 ; genPlus
   0F7E 3E 8C              4605 	ld	a,#<_barArray
   0F80 81                 4606 	add	a,c
   0F81 5F                 4607 	ld	e,a
   0F82 3E 00              4608 	ld	a,#>_barArray
   0F84 CE 00              4609 	adc	a,#0x00
   0F86 57                 4610 	ld	d,a
                           4611 ; genMinus
                           4612 ; AOP_HL for _k
   0F87 3E 2F              4613 	ld	a,#0x2F
   0F89 21 0D 00           4614 	ld	hl,#_k + 0
   0F8C 96                 4615 	sub	a,(hl)
   0F8D 4F                 4616 	ld	c,a
                           4617 ; genAssign (pointer)
   0F8E 79                 4618 	ld	a,c
   0F8F 12                 4619 	ld	(de),a
                           4620 ;	ishallbequeen.c 736
                           4621 ; genCmpEq
                           4622 ; AOP_STK for 
   0F90 F8 04              4623 	lda	hl,4(sp)
   0F92 7E                 4624 	ld	a,(hl)
   0F93 B7                 4625 	or	a,a
   0F94 C2 99 0F           4626 	jp	nz,00114$
   0F97 18 03              4627 	jr	00115$
   0F99                    4628 00114$:
   0F99 C3 B8 0F           4629 	jp	00102$
   0F9C                    4630 00115$:
                           4631 ;	ishallbequeen.c 737
                           4632 ; genIpush
   0F9C 21 8C 00           4633 	ld	hl,#_barArray + 0
   0F9F E5                 4634 	push	hl
                           4635 ; genIpush
   0FA0 3E 01              4636 	ld	a,#0x01
   0FA2 F5                 4637 	push	af
   0FA3 33                 4638 	inc	sp
                           4639 ; genIpush
   0FA4 3E 04              4640 	ld	a,#0x04
   0FA6 F5                 4641 	push	af
   0FA7 33                 4642 	inc	sp
                           4643 ; genIpush
   0FA8 3E 02              4644 	ld	a,#0x02
   0FAA F5                 4645 	push	af
   0FAB 33                 4646 	inc	sp
                           4647 ; genIpush
   0FAC 3E 02              4648 	ld	a,#0x02
   0FAE F5                 4649 	push	af
   0FAF 33                 4650 	inc	sp
                           4651 ; genCall
   0FB0 CD 00 00           4652 	call	_set_win_tiles
   0FB3 E8 06              4653 	lda	sp,6(sp)
                           4654 ; genGoto
   0FB5 C3 D1 0F           4655 	jp	00108$
                           4656 ; genLabel
   0FB8                    4657 00102$:
                           4658 ;	ishallbequeen.c 739
                           4659 ; genIpush
   0FB8 21 8C 00           4660 	ld	hl,#_barArray + 0
   0FBB E5                 4661 	push	hl
                           4662 ; genIpush
   0FBC 3E 01              4663 	ld	a,#0x01
   0FBE F5                 4664 	push	af
   0FBF 33                 4665 	inc	sp
                           4666 ; genIpush
   0FC0 3E 04              4667 	ld	a,#0x04
   0FC2 F5                 4668 	push	af
   0FC3 33                 4669 	inc	sp
                           4670 ; genIpush
   0FC4 3E 02              4671 	ld	a,#0x02
   0FC6 F5                 4672 	push	af
   0FC7 33                 4673 	inc	sp
                           4674 ; genIpush
   0FC8 3E 08              4675 	ld	a,#0x08
   0FCA F5                 4676 	push	af
   0FCB 33                 4677 	inc	sp
                           4678 ; genCall
   0FCC CD 00 00           4679 	call	_set_win_tiles
   0FCF E8 06              4680 	lda	sp,6(sp)
                           4681 ; genLabel
   0FD1                    4682 00108$:
                           4683 ; genEndFunction
   0FD1 C1                 4684 	pop	bc
   0FD2 C9                 4685 	ret
   0FD3                    4686 ___updateBar_end:
                           4687 ;	ishallbequeen.c 745
                           4688 ; genLabel
                           4689 ; genFunction
                           4690 ;	---------------------------------
                           4691 ; Function updateEnemies
                           4692 ; ---------------------------------
   0FD3                    4693 ___updateEnemies_start:
   0FD3                    4694 _updateEnemies:
   0FD3 C5                 4695 	push	bc
   0FD4 E8 FC              4696 	lda sp,-4(sp)
                           4697 ;	ishallbequeen.c 747
                           4698 ; genIpush
   0FD6 3E 14              4699 	ld	a,#0x14
   0FD8 F5                 4700 	push	af
   0FD9 33                 4701 	inc	sp
                           4702 ; genIpush
                           4703 ; AOP_HL for _frameCounter
   0FDA 21 A4 00           4704 	ld	hl,#_frameCounter + 0
   0FDD 7E                 4705 	ld	a,(hl)
   0FDE F5                 4706 	push	af
   0FDF 33                 4707 	inc	sp
                           4708 ; genCall
   0FE0 CD 00 00           4709 	call	__moduchar
                           4710 ; AOP_HL for _j
   0FE3 21 0C 00           4711 	ld	hl,#_j + 0
   0FE6 73                 4712 	ld	(hl),e
   0FE7 E8 02              4713 	lda	sp,2(sp)
                           4714 ;	ishallbequeen.c 748
                           4715 ; genIpush
   0FE9 3E 02              4716 	ld	a,#0x02
   0FEB F5                 4717 	push	af
   0FEC 33                 4718 	inc	sp
                           4719 ; genIpush
                           4720 ; AOP_SFR for _DIV_REG
   0FED F0 00              4721 	ldh	a,(_DIV_REG+0) ; x
                           4722 ; Removed redundent load
   0FEF F5                 4723 	push	af
   0FF0 33                 4724 	inc	sp
                           4725 ; genCall
   0FF1 CD 00 00           4726 	call	__moduchar
                           4727 ; AOP_HL for _k
   0FF4 21 0D 00           4728 	ld	hl,#_k + 0
   0FF7 73                 4729 	ld	(hl),e
   0FF8 E8 02              4730 	lda	sp,2(sp)
                           4731 ;	ishallbequeen.c 752
                           4732 ; genAssign
                           4733 ; AOP_HL for _i
   0FFA 21 0B 00           4734 	ld	hl,#_i + 0
   0FFD 36 00              4735 	ld	(hl),#0x00
                           4736 ; genCmpEq
                           4737 ; AOP_HL for _k
                           4738 ; AOP_STK for _updateEnemies_sloc0_1_0
   0FFF 21 0D 00           4739 	ld	hl,#_k + 0
   1002 7E                 4740 	ld	a,(hl) ; 2
   1003 FE 01              4741 	cp	a,#0x01
   1005 C2 0C 10           4742 	jp	nz,00224$
   1008 3E 01              4743 	ld	a,#0x01
   100A 18 01              4744 	jr	00225$
   100C                    4745 00224$:
   100C AF                 4746 	xor	a,a
   100D                    4747 00225$:
   100D F8 03              4748 	lda	hl,3(sp)
   100F 77                 4749 	ld	(hl),a ; 3
                           4750 ; genLabel
   1010                    4751 00182$:
                           4752 ; genCmpEq
                           4753 ; AOP_HL for _i
   1010 21 0B 00           4754 	ld	hl,#_i + 0
   1013 7E                 4755 	ld	a,(hl) ; 2
   1014 FE 03              4756 	cp	a,#0x03
                           4757 ; Rule 5
   1016 CA 1D 1A           4758 	jp	z,00186$
   1019                    4759 00226$:
                           4760 ;	ishallbequeen.c 754
                           4761 ; genAssign
                           4762 ; AOP_HL for _i
   1019 21 0B 00           4763 	ld	hl,#_i + 0
   101C 46                 4764 	ld	b,(hl)
                           4765 ; genPlus
   101D 3E C4              4766 	ld	a,#<_eRealType
   101F 80                 4767 	add	a,b
   1020 5F                 4768 	ld	e,a
   1021 3E 00              4769 	ld	a,#>_eRealType
   1023 CE 00              4770 	adc	a,#0x00
   1025 57                 4771 	ld	d,a
                           4772 ; genPointerGet
   1026 1A                 4773 	ld	a,(de)
   1027 47                 4774 	ld	b,a
                           4775 ; genCmpGt
   1028 AF                 4776 	xor	a,a
   1029 3E 03              4777 	ld	a,#0x03
   102B 98                 4778 	sbc	a,b ; 2
   102C DA 16 1A           4779 	jp	c,00184$
                           4780 ; genJumpTab
   102F 58                 4781 	ld	e,b
   1030 16 00              4782 	ld	d,#0x00
   1032 21 39 10           4783 	ld	hl,#00227$
   1035 19                 4784 	add	hl,de
   1036 19                 4785 	add	hl,de
   1037 19                 4786 	add	hl,de
   1038 E9                 4787 	jp	(hl)
   1039                    4788 00227$:
   1039 C3 45 10           4789 	jp	00101$
   103C C3 FE 11           4790 	jp	00116$
   103F C3 FE 11           4791 	jp	00115$
   1042 C3 EF 18           4792 	jp	00175$
                           4793 ;	ishallbequeen.c 757
                           4794 ; genLabel
   1045                    4795 00101$:
                           4796 ; genAssign
                           4797 ; AOP_HL for _i
   1045 21 0B 00           4798 	ld	hl,#_i + 0
   1048 46                 4799 	ld	b,(hl)
                           4800 ; genPlus
   1049 3E A9              4801 	ld	a,#<_eTargetY
   104B 80                 4802 	add	a,b
   104C 5F                 4803 	ld	e,a
   104D 3E 00              4804 	ld	a,#>_eTargetY
   104F CE 00              4805 	adc	a,#0x00
   1051 57                 4806 	ld	d,a
                           4807 ; genPlus
                           4808 ; AOP_HL for _pY
                           4809 ; genPlusIncr
   1052 21 81 00           4810 	ld	hl,#_pY + 0
   1055 7E                 4811 	ld	a,(hl)
   1056 C6 10              4812 	add	a,#0x10
   1058 47                 4813 	ld	b,a
                           4814 ; genAssign (pointer)
   1059 78                 4815 	ld	a,b
   105A 12                 4816 	ld	(de),a
                           4817 ;	ishallbequeen.c 761
                           4818 ; genCmpEq
                           4819 ; AOP_HL for _j
   105B 21 0C 00           4820 	ld	hl,#_j + 0
   105E 7E                 4821 	ld	a,(hl) ; 2
   105F FE 01              4822 	cp	a,#0x01
   1061 C2 66 10           4823 	jp	nz,00228$
   1064 18 03              4824 	jr	00229$
   1066                    4825 00228$:
   1066 C3 1D 11           4826 	jp	00105$
   1069                    4827 00229$:
                           4828 ;	ishallbequeen.c 764
                           4829 ; genAssign
                           4830 ; AOP_HL for _i
   1069 21 0B 00           4831 	ld	hl,#_i + 0
   106C 46                 4832 	ld	b,(hl)
                           4833 ; genPlus
                           4834 ; AOP_STK for _updateEnemies_sloc1_1_0
   106D 3E BE              4835 	ld	a,#<_eType
   106F 80                 4836 	add	a,b
   1070 F8 01              4837 	lda	hl,1(sp)
   1072 77                 4838 	ld	(hl),a ; 3
   1073 3E 00              4839 	ld	a,#>_eType
   1075 CE 00              4840 	adc	a,#0x00
   1077 23                 4841 	inc	hl
   1078 77                 4842 	ld	(hl),a ; 3
                           4843 ; genAssign
                           4844 ; AOP_HL for _i
   1079 21 0B 00           4845 	ld	hl,#_i + 0
   107C 4E                 4846 	ld	c,(hl)
                           4847 ; genPlus
   107D 3E BE              4848 	ld	a,#<_eType
   107F 81                 4849 	add	a,c
   1080 5F                 4850 	ld	e,a
   1081 3E 00              4851 	ld	a,#>_eType
   1083 CE 00              4852 	adc	a,#0x00
   1085 57                 4853 	ld	d,a
                           4854 ; genPointerGet
   1086 1A                 4855 	ld	a,(de)
   1087 4F                 4856 	ld	c,a
                           4857 ; genPlus
                           4858 ; genPlusIncr
   1088 0C                 4859 	inc	c
   1089 0C                 4860 	inc	c
   108A 0C                 4861 	inc	c
   108B 0C                 4862 	inc	c
                           4863 ; genAssign (pointer)
                           4864 ; AOP_STK for _updateEnemies_sloc1_1_0
   108C F8 01              4865 	lda	hl,1(sp)
   108E 5E                 4866 	ld	e,(hl)
   108F 23                 4867 	inc	hl
   1090 56                 4868 	ld	d,(hl)
   1091 79                 4869 	ld	a,c
   1092 12                 4870 	ld	(de),a
                           4871 ;	ishallbequeen.c 766
                           4872 ; genAssign
                           4873 ; AOP_HL for _i
   1093 21 0B 00           4874 	ld	hl,#_i + 0
   1096 4E                 4875 	ld	c,(hl)
                           4876 ; genPlus
   1097 3E BE              4877 	ld	a,#<_eType
   1099 81                 4878 	add	a,c
   109A 5F                 4879 	ld	e,a
   109B 3E 00              4880 	ld	a,#>_eType
   109D CE 00              4881 	adc	a,#0x00
   109F 57                 4882 	ld	d,a
                           4883 ; genPointerGet
   10A0 1A                 4884 	ld	a,(de)
   10A1 4F                 4885 	ld	c,a
                           4886 ; genCmpEq
   10A2 79                 4887 	ld	a,c ; 2
   10A3 FE D0              4888 	cp	a,#0xD0
   10A5 C2 AA 10           4889 	jp	nz,00230$
   10A8 18 03              4890 	jr	00231$
   10AA                    4891 00230$:
   10AA C3 BD 10           4892 	jp	00103$
   10AD                    4893 00231$:
                           4894 ;	ishallbequeen.c 767
                           4895 ; genAssign
                           4896 ; AOP_HL for _i
   10AD 21 0B 00           4897 	ld	hl,#_i + 0
   10B0 4E                 4898 	ld	c,(hl)
                           4899 ; genPlus
   10B1 3E BE              4900 	ld	a,#<_eType
   10B3 81                 4901 	add	a,c
   10B4 5F                 4902 	ld	e,a
   10B5 3E 00              4903 	ld	a,#>_eType
   10B7 CE 00              4904 	adc	a,#0x00
   10B9 57                 4905 	ld	d,a
                           4906 ; genAssign (pointer)
   10BA 3E C0              4907 	ld	a,#0xC0
   10BC 12                 4908 	ld	(de),a
                           4909 ; genLabel
   10BD                    4910 00103$:
                           4911 ;	ishallbequeen.c 770
                           4912 ; genPointerGet
                           4913 ; AOP_STK for _updateEnemies_sloc1_1_0
   10BD 11 BE 00           4914 	ld	de,#_eType + 0
   10C0 1A                 4915 	ld	a,(de)
   10C1 F8 01              4916 	lda	hl,1(sp)
   10C3 77                 4917 	ld	(hl),a ; 3
                           4918 ; genLeftShift
                           4919 ; AOP_HL for _i
   10C4 21 0B 00           4920 	ld	hl,#_i + 0
   10C7 7E                 4921 	ld	a,(hl)
   10C8 87                 4922 	add	a,a
   10C9 87                 4923 	add	a,a
   10CA 47                 4924 	ld	b,a
                           4925 ; genPlus
                           4926 ; genPlusIncr
   10CB 78                 4927 	ld	a,b
   10CC C6 12              4928 	add	a,#0x12
   10CE 4F                 4929 	ld	c,a
                           4930 ; genIpush
                           4931 ; AOP_STK for _updateEnemies_sloc1_1_0
   10CF F8 01              4932 	lda	hl,1(sp)
   10D1 7E                 4933 	ld	a,(hl)
   10D2 F5                 4934 	push	af
   10D3 33                 4935 	inc	sp
                           4936 ; genIpush
   10D4 79                 4937 	ld	a,c
   10D5 F5                 4938 	push	af
   10D6 33                 4939 	inc	sp
                           4940 ; genCall
   10D7 CD 00 00           4941 	call	_set_sprite_tile
   10DA E8 02              4942 	lda	sp,2(sp)
                           4943 ;	ishallbequeen.c 771
                           4944 ; genPlus
                           4945 ; AOP_STK for _updateEnemies_sloc1_1_0
                           4946 ; AOP_STK for _updateEnemies_sloc2_1_0
                           4947 ; genPlusIncr
   10DC F8 01              4948 	lda	hl,1(sp)
   10DE 7E                 4949 	ld	a,(hl)
   10DF C6 01              4950 	add	a,#0x01
   10E1 2B                 4951 	dec	hl
   10E2 77                 4952 	ld	(hl),a ; 3
                           4953 ; genPlus
                           4954 ; genPlusIncr
   10E3 78                 4955 	ld	a,b
   10E4 C6 13              4956 	add	a,#0x13
   10E6 4F                 4957 	ld	c,a
                           4958 ; genIpush
                           4959 ; AOP_STK for _updateEnemies_sloc2_1_0
   10E7 7E                 4960 	ld	a,(hl)
   10E8 F5                 4961 	push	af
   10E9 33                 4962 	inc	sp
                           4963 ; genIpush
   10EA 79                 4964 	ld	a,c
   10EB F5                 4965 	push	af
   10EC 33                 4966 	inc	sp
                           4967 ; genCall
   10ED CD 00 00           4968 	call	_set_sprite_tile
   10F0 E8 02              4969 	lda	sp,2(sp)
                           4970 ;	ishallbequeen.c 772
                           4971 ; genPlus
                           4972 ; AOP_STK for _updateEnemies_sloc1_1_0
                           4973 ; AOP_STK for _updateEnemies_sloc2_1_0
                           4974 ; genPlusIncr
   10F2 F8 01              4975 	lda	hl,1(sp)
   10F4 7E                 4976 	ld	a,(hl)
   10F5 C6 02              4977 	add	a,#0x02
   10F7 2B                 4978 	dec	hl
   10F8 77                 4979 	ld	(hl),a ; 3
                           4980 ; genPlus
                           4981 ; genPlusIncr
   10F9 78                 4982 	ld	a,b
   10FA C6 14              4983 	add	a,#0x14
   10FC 4F                 4984 	ld	c,a
                           4985 ; genIpush
                           4986 ; AOP_STK for _updateEnemies_sloc2_1_0
   10FD 7E                 4987 	ld	a,(hl)
   10FE F5                 4988 	push	af
   10FF 33                 4989 	inc	sp
                           4990 ; genIpush
   1100 79                 4991 	ld	a,c
   1101 F5                 4992 	push	af
   1102 33                 4993 	inc	sp
                           4994 ; genCall
   1103 CD 00 00           4995 	call	_set_sprite_tile
   1106 E8 02              4996 	lda	sp,2(sp)
                           4997 ;	ishallbequeen.c 773
                           4998 ; genPlus
                           4999 ; AOP_STK for _updateEnemies_sloc1_1_0
                           5000 ; genPlusIncr
   1108 F8 01              5001 	lda	hl,1(sp)
   110A 7E                 5002 	ld	a,(hl)
   110B C6 03              5003 	add	a,#0x03
   110D 4F                 5004 	ld	c,a
                           5005 ; genPlus
                           5006 ; genPlusIncr
   110E 78                 5007 	ld	a,b
   110F C6 15              5008 	add	a,#0x15
   1111 47                 5009 	ld	b,a
                           5010 ; genIpush
   1112 79                 5011 	ld	a,c
   1113 F5                 5012 	push	af
   1114 33                 5013 	inc	sp
                           5014 ; genIpush
   1115 78                 5015 	ld	a,b
   1116 F5                 5016 	push	af
   1117 33                 5017 	inc	sp
                           5018 ; genCall
   1118 CD 00 00           5019 	call	_set_sprite_tile
   111B E8 02              5020 	lda	sp,2(sp)
                           5021 ; genLabel
   111D                    5022 00105$:
                           5023 ;	ishallbequeen.c 776
                           5024 ; genIfx
                           5025 ; AOP_STK for _updateEnemies_sloc0_1_0
   111D AF                 5026 	xor	a,a
   111E F8 03              5027 	lda	hl,3(sp)
   1120 B6                 5028 	or	a,(hl)
   1121 B7                 5029 	or	a,a
   1122 CA 8F 11           5030 	jp	z,00113$
                           5031 ;	ishallbequeen.c 777
                           5032 ; genAssign
                           5033 ; AOP_HL for _i
   1125 21 0B 00           5034 	ld	hl,#_i + 0
   1128 4E                 5035 	ld	c,(hl)
                           5036 ; genPlus
   1129 3E AC              5037 	ld	a,#<_eX
   112B 81                 5038 	add	a,c
   112C 5F                 5039 	ld	e,a
   112D 3E 00              5040 	ld	a,#>_eX
   112F CE 00              5041 	adc	a,#0x00
   1131 57                 5042 	ld	d,a
                           5043 ; genPointerGet
   1132 1A                 5044 	ld	a,(de)
   1133 4F                 5045 	ld	c,a
                           5046 ; genPlus
                           5047 ; genPlusIncr
   1134 79                 5048 	ld	a,c
   1135 C6 20              5049 	add	a,#0x20
   1137 4F                 5050 	ld	c,a
                           5051 ; genPlus
                           5052 ; AOP_HL for _pX
                           5053 ; genPlusIncr
   1138 21 80 00           5054 	ld	hl,#_pX + 0
   113B 7E                 5055 	ld	a,(hl)
   113C C6 2A              5056 	add	a,#0x2A
   113E 47                 5057 	ld	b,a
                           5058 ; genCmpLt
   113F AF                 5059 	xor	a,a
   1140 79                 5060 	ld	a,c
   1141 98                 5061 	sbc	a,b ; 2
   1142 D2 6A 11           5062 	jp	nc,00107$
                           5063 ;	ishallbequeen.c 778
                           5064 ; genAssign
                           5065 ; AOP_HL for _i
   1145 21 0B 00           5066 	ld	hl,#_i + 0
   1148 4E                 5067 	ld	c,(hl)
                           5068 ; genPlus
                           5069 ; AOP_STK for _updateEnemies_sloc1_1_0
   1149 3E AC              5070 	ld	a,#<_eX
   114B 81                 5071 	add	a,c
   114C F8 01              5072 	lda	hl,1(sp)
   114E 77                 5073 	ld	(hl),a ; 3
   114F 3E 00              5074 	ld	a,#>_eX
   1151 CE 00              5075 	adc	a,#0x00
   1153 23                 5076 	inc	hl
   1154 77                 5077 	ld	(hl),a ; 3
                           5078 ; genPointerGet
                           5079 ; AOP_STK for _updateEnemies_sloc1_1_0
                           5080 ; AOP_STK for _updateEnemies_sloc2_1_0
   1155 2B                 5081 	dec	hl
   1156 5E                 5082 	ld	e,(hl)
   1157 23                 5083 	inc	hl
   1158 56                 5084 	ld	d,(hl)
   1159 1A                 5085 	ld	a,(de)
   115A 2B                 5086 	dec	hl
   115B 2B                 5087 	dec	hl
   115C 77                 5088 	ld	(hl),a ; 3
                           5089 ; genPlus
                           5090 ; AOP_STK for _updateEnemies_sloc2_1_0
                           5091 ; genPlusIncr
   115D 7E                 5092 	ld	a,(hl)
   115E C6 01              5093 	add	a,#0x01
   1160 4F                 5094 	ld	c,a
                           5095 ; genAssign (pointer)
                           5096 ; AOP_STK for _updateEnemies_sloc1_1_0
   1161 23                 5097 	inc	hl
   1162 5E                 5098 	ld	e,(hl)
   1163 23                 5099 	inc	hl
   1164 56                 5100 	ld	d,(hl)
   1165 79                 5101 	ld	a,c
   1166 12                 5102 	ld	(de),a
                           5103 ; genGoto
   1167 C3 F8 11           5104 	jp	00114$
                           5105 ; genLabel
   116A                    5106 00107$:
                           5107 ;	ishallbequeen.c 780
                           5108 ; genAssign
                           5109 ; AOP_HL for _i
   116A 21 0B 00           5110 	ld	hl,#_i + 0
   116D 4E                 5111 	ld	c,(hl)
                           5112 ; genPlus
                           5113 ; AOP_STK for _updateEnemies_sloc1_1_0
   116E 3E AC              5114 	ld	a,#<_eX
   1170 81                 5115 	add	a,c
   1171 F8 01              5116 	lda	hl,1(sp)
   1173 77                 5117 	ld	(hl),a ; 3
   1174 3E 00              5118 	ld	a,#>_eX
   1176 CE 00              5119 	adc	a,#0x00
   1178 23                 5120 	inc	hl
   1179 77                 5121 	ld	(hl),a ; 3
                           5122 ; genPointerGet
                           5123 ; AOP_STK for _updateEnemies_sloc1_1_0
                           5124 ; AOP_STK for _updateEnemies_sloc2_1_0
   117A 2B                 5125 	dec	hl
   117B 5E                 5126 	ld	e,(hl)
   117C 23                 5127 	inc	hl
   117D 56                 5128 	ld	d,(hl)
   117E 1A                 5129 	ld	a,(de)
   117F 2B                 5130 	dec	hl
   1180 2B                 5131 	dec	hl
   1181 77                 5132 	ld	(hl),a ; 3
                           5133 ; genMinus
                           5134 ; AOP_STK for _updateEnemies_sloc2_1_0
   1182 7E                 5135 	ld	a,(hl)
   1183 C6 FF              5136 	add	a,#0xFF
   1185 4F                 5137 	ld	c,a
                           5138 ; genAssign (pointer)
                           5139 ; AOP_STK for _updateEnemies_sloc1_1_0
   1186 23                 5140 	inc	hl
   1187 5E                 5141 	ld	e,(hl)
   1188 23                 5142 	inc	hl
   1189 56                 5143 	ld	d,(hl)
   118A 79                 5144 	ld	a,c
   118B 12                 5145 	ld	(de),a
                           5146 ; genGoto
   118C C3 F8 11           5147 	jp	00114$
                           5148 ; genLabel
   118F                    5149 00113$:
                           5150 ;	ishallbequeen.c 784
                           5151 ; genAssign
                           5152 ; AOP_HL for _i
   118F 21 0B 00           5153 	ld	hl,#_i + 0
   1192 4E                 5154 	ld	c,(hl)
                           5155 ; genPlus
   1193 3E AF              5156 	ld	a,#<_eY
   1195 81                 5157 	add	a,c
   1196 5F                 5158 	ld	e,a
   1197 3E 00              5159 	ld	a,#>_eY
   1199 CE 00              5160 	adc	a,#0x00
   119B 57                 5161 	ld	d,a
                           5162 ; genPointerGet
   119C 1A                 5163 	ld	a,(de)
   119D 4F                 5164 	ld	c,a
                           5165 ; genAssign
                           5166 ; AOP_HL for _i
   119E 46                 5167 	ld	b,(hl)
                           5168 ; genPlus
   119F 3E A9              5169 	ld	a,#<_eTargetY
   11A1 80                 5170 	add	a,b
   11A2 5F                 5171 	ld	e,a
   11A3 3E 00              5172 	ld	a,#>_eTargetY
   11A5 CE 00              5173 	adc	a,#0x00
   11A7 57                 5174 	ld	d,a
                           5175 ; genPointerGet
   11A8 1A                 5176 	ld	a,(de)
   11A9 47                 5177 	ld	b,a
                           5178 ; genPlus
                           5179 ; genPlusIncr
   11AA 78                 5180 	ld	a,b
   11AB C6 0C              5181 	add	a,#0x0C
   11AD 47                 5182 	ld	b,a
                           5183 ; genCmpLt
   11AE AF                 5184 	xor	a,a
   11AF 79                 5185 	ld	a,c
   11B0 98                 5186 	sbc	a,b ; 2
   11B1 D2 D6 11           5187 	jp	nc,00110$
                           5188 ;	ishallbequeen.c 785
                           5189 ; genAssign
                           5190 ; AOP_HL for _i
   11B4 4E                 5191 	ld	c,(hl)
                           5192 ; genPlus
                           5193 ; AOP_STK for _updateEnemies_sloc1_1_0
   11B5 3E AF              5194 	ld	a,#<_eY
   11B7 81                 5195 	add	a,c
   11B8 F8 01              5196 	lda	hl,1(sp)
   11BA 77                 5197 	ld	(hl),a ; 3
   11BB 3E 00              5198 	ld	a,#>_eY
   11BD CE 00              5199 	adc	a,#0x00
   11BF 23                 5200 	inc	hl
   11C0 77                 5201 	ld	(hl),a ; 3
                           5202 ; genPointerGet
                           5203 ; AOP_STK for _updateEnemies_sloc1_1_0
                           5204 ; AOP_STK for _updateEnemies_sloc2_1_0
   11C1 2B                 5205 	dec	hl
   11C2 5E                 5206 	ld	e,(hl)
   11C3 23                 5207 	inc	hl
   11C4 56                 5208 	ld	d,(hl)
   11C5 1A                 5209 	ld	a,(de)
   11C6 2B                 5210 	dec	hl
   11C7 2B                 5211 	dec	hl
   11C8 77                 5212 	ld	(hl),a ; 3
                           5213 ; genPlus
                           5214 ; AOP_STK for _updateEnemies_sloc2_1_0
                           5215 ; genPlusIncr
   11C9 7E                 5216 	ld	a,(hl)
   11CA C6 01              5217 	add	a,#0x01
   11CC 4F                 5218 	ld	c,a
                           5219 ; genAssign (pointer)
                           5220 ; AOP_STK for _updateEnemies_sloc1_1_0
   11CD 23                 5221 	inc	hl
   11CE 5E                 5222 	ld	e,(hl)
   11CF 23                 5223 	inc	hl
   11D0 56                 5224 	ld	d,(hl)
   11D1 79                 5225 	ld	a,c
   11D2 12                 5226 	ld	(de),a
                           5227 ; genGoto
   11D3 C3 F8 11           5228 	jp	00114$
                           5229 ; genLabel
   11D6                    5230 00110$:
                           5231 ;	ishallbequeen.c 787
                           5232 ; genAssign
                           5233 ; AOP_HL for _i
   11D6 21 0B 00           5234 	ld	hl,#_i + 0
   11D9 4E                 5235 	ld	c,(hl)
                           5236 ; genPlus
                           5237 ; AOP_STK for _updateEnemies_sloc1_1_0
   11DA 3E AF              5238 	ld	a,#<_eY
   11DC 81                 5239 	add	a,c
   11DD F8 01              5240 	lda	hl,1(sp)
   11DF 77                 5241 	ld	(hl),a ; 3
   11E0 3E 00              5242 	ld	a,#>_eY
   11E2 CE 00              5243 	adc	a,#0x00
   11E4 23                 5244 	inc	hl
   11E5 77                 5245 	ld	(hl),a ; 3
                           5246 ; genPointerGet
                           5247 ; AOP_STK for _updateEnemies_sloc1_1_0
                           5248 ; AOP_STK for _updateEnemies_sloc2_1_0
   11E6 2B                 5249 	dec	hl
   11E7 5E                 5250 	ld	e,(hl)
   11E8 23                 5251 	inc	hl
   11E9 56                 5252 	ld	d,(hl)
   11EA 1A                 5253 	ld	a,(de)
   11EB 2B                 5254 	dec	hl
   11EC 2B                 5255 	dec	hl
   11ED 77                 5256 	ld	(hl),a ; 3
                           5257 ; genMinus
                           5258 ; AOP_STK for _updateEnemies_sloc2_1_0
   11EE 7E                 5259 	ld	a,(hl)
   11EF C6 FF              5260 	add	a,#0xFF
   11F1 4F                 5261 	ld	c,a
                           5262 ; genAssign (pointer)
                           5263 ; AOP_STK for _updateEnemies_sloc1_1_0
   11F2 23                 5264 	inc	hl
   11F3 5E                 5265 	ld	e,(hl)
   11F4 23                 5266 	inc	hl
   11F5 56                 5267 	ld	d,(hl)
   11F6 79                 5268 	ld	a,c
   11F7 12                 5269 	ld	(de),a
                           5270 ; genLabel
   11F8                    5271 00114$:
                           5272 ;	ishallbequeen.c 791
                           5273 ; genCall
   11F8 CD 21 1A           5274 	call	_moveEnemySprites
                           5275 ;	ishallbequeen.c 792
                           5276 ; genGoto
   11FB C3 16 1A           5277 	jp	00184$
                           5278 ;	ishallbequeen.c 797
                           5279 ; genLabel
   11FE                    5280 00116$:
                           5281 ; genLabel
   11FE                    5282 00115$:
                           5283 ; genAssign
                           5284 ; AOP_HL for _i
   11FE 21 0B 00           5285 	ld	hl,#_i + 0
   1201 4E                 5286 	ld	c,(hl)
                           5287 ; genPlus
   1202 3E A9              5288 	ld	a,#<_eTargetY
   1204 81                 5289 	add	a,c
   1205 5F                 5290 	ld	e,a
   1206 3E 00              5291 	ld	a,#>_eTargetY
   1208 CE 00              5292 	adc	a,#0x00
   120A 57                 5293 	ld	d,a
                           5294 ; genPlus
                           5295 ; AOP_HL for _pY
                           5296 ; genPlusIncr
   120B 21 81 00           5297 	ld	hl,#_pY + 0
   120E 7E                 5298 	ld	a,(hl)
   120F C6 10              5299 	add	a,#0x10
   1211 4F                 5300 	ld	c,a
                           5301 ; genAssign (pointer)
   1212 79                 5302 	ld	a,c
   1213 12                 5303 	ld	(de),a
                           5304 ;	ishallbequeen.c 799
                           5305 ; genIpush
   1214 3E 3C              5306 	ld	a,#0x3C
   1216 F5                 5307 	push	af
   1217 33                 5308 	inc	sp
                           5309 ; genIpush
                           5310 ; AOP_HL for _frameCounter
   1218 21 A4 00           5311 	ld	hl,#_frameCounter + 0
   121B 7E                 5312 	ld	a,(hl)
   121C F5                 5313 	push	af
   121D 33                 5314 	inc	sp
                           5315 ; genCall
   121E CD 00 00           5316 	call	__moduchar
                           5317 ; AOP_HL for _j
   1221 21 0C 00           5318 	ld	hl,#_j + 0
   1224 73                 5319 	ld	(hl),e
   1225 E8 02              5320 	lda	sp,2(sp)
                           5321 ;	ishallbequeen.c 801
                           5322 ; genCmpEq
                           5323 ; AOP_HL for _j
   1227 7E                 5324 	ld	a,(hl) ; 2
   1228 FE 01              5325 	cp	a,#0x01
   122A C2 2F 12           5326 	jp	nz,00232$
   122D 18 03              5327 	jr	00233$
   122F                    5328 00232$:
   122F C3 89 13           5329 	jp	00133$
   1232                    5330 00233$:
                           5331 ; genIfx
                           5332 ; AOP_STK for _updateEnemies_sloc0_1_0
   1232 AF                 5333 	xor	a,a
   1233 F8 03              5334 	lda	hl,3(sp)
   1235 B6                 5335 	or	a,(hl)
   1236 B7                 5336 	or	a,a
   1237 CA 89 13           5337 	jp	z,00133$
                           5338 ;	ishallbequeen.c 803
                           5339 ; genAssign
                           5340 ; AOP_HL for _i
   123A 21 0B 00           5341 	ld	hl,#_i + 0
   123D 4E                 5342 	ld	c,(hl)
                           5343 ; genPlus
                           5344 ; AOP_STK for _updateEnemies_sloc1_1_0
   123E 3E B5              5345 	ld	a,#<_eState
   1240 81                 5346 	add	a,c
   1241 F8 01              5347 	lda	hl,1(sp)
   1243 77                 5348 	ld	(hl),a ; 3
   1244 3E 00              5349 	ld	a,#>_eState
   1246 CE 00              5350 	adc	a,#0x00
   1248 23                 5351 	inc	hl
   1249 77                 5352 	ld	(hl),a ; 3
                           5353 ; genPointerGet
                           5354 ; AOP_STK for _updateEnemies_sloc1_1_0
                           5355 ; AOP_STK for _updateEnemies_sloc2_1_0
   124A 2B                 5356 	dec	hl
   124B 5E                 5357 	ld	e,(hl)
   124C 23                 5358 	inc	hl
   124D 56                 5359 	ld	d,(hl)
   124E 1A                 5360 	ld	a,(de)
   124F 2B                 5361 	dec	hl
   1250 2B                 5362 	dec	hl
   1251 77                 5363 	ld	(hl),a ; 3
                           5364 ; genPlus
                           5365 ; AOP_STK for _updateEnemies_sloc2_1_0
                           5366 ; genPlusIncr
   1252 7E                 5367 	ld	a,(hl)
   1253 C6 01              5368 	add	a,#0x01
   1255 4F                 5369 	ld	c,a
                           5370 ; genAssign (pointer)
                           5371 ; AOP_STK for _updateEnemies_sloc1_1_0
   1256 23                 5372 	inc	hl
   1257 5E                 5373 	ld	e,(hl)
   1258 23                 5374 	inc	hl
   1259 56                 5375 	ld	d,(hl)
   125A 79                 5376 	ld	a,c
   125B 12                 5377 	ld	(de),a
                           5378 ;	ishallbequeen.c 806
                           5379 ; genAssign
                           5380 ; AOP_HL for _i
   125C 21 0B 00           5381 	ld	hl,#_i + 0
   125F 4E                 5382 	ld	c,(hl)
                           5383 ; genPlus
                           5384 ; AOP_STK for _updateEnemies_sloc1_1_0
   1260 3E BE              5385 	ld	a,#<_eType
   1262 81                 5386 	add	a,c
   1263 F8 01              5387 	lda	hl,1(sp)
   1265 77                 5388 	ld	(hl),a ; 3
   1266 3E 00              5389 	ld	a,#>_eType
   1268 CE 00              5390 	adc	a,#0x00
   126A 23                 5391 	inc	hl
   126B 77                 5392 	ld	(hl),a ; 3
                           5393 ; genAssign
                           5394 ; AOP_HL for _i
   126C 21 0B 00           5395 	ld	hl,#_i + 0
   126F 4E                 5396 	ld	c,(hl)
                           5397 ; genPlus
   1270 3E BE              5398 	ld	a,#<_eType
   1272 81                 5399 	add	a,c
   1273 5F                 5400 	ld	e,a
   1274 3E 00              5401 	ld	a,#>_eType
   1276 CE 00              5402 	adc	a,#0x00
   1278 57                 5403 	ld	d,a
                           5404 ; genPointerGet
   1279 1A                 5405 	ld	a,(de)
   127A 4F                 5406 	ld	c,a
                           5407 ; genPlus
                           5408 ; genPlusIncr
   127B 0C                 5409 	inc	c
   127C 0C                 5410 	inc	c
   127D 0C                 5411 	inc	c
   127E 0C                 5412 	inc	c
                           5413 ; genAssign (pointer)
                           5414 ; AOP_STK for _updateEnemies_sloc1_1_0
   127F F8 01              5415 	lda	hl,1(sp)
   1281 5E                 5416 	ld	e,(hl)
   1282 23                 5417 	inc	hl
   1283 56                 5418 	ld	d,(hl)
   1284 79                 5419 	ld	a,c
   1285 12                 5420 	ld	(de),a
                           5421 ;	ishallbequeen.c 808
                           5422 ; genAssign
                           5423 ; AOP_HL for _i
   1286 21 0B 00           5424 	ld	hl,#_i + 0
   1289 4E                 5425 	ld	c,(hl)
                           5426 ; genPlus
   128A 3E C4              5427 	ld	a,#<_eRealType
   128C 81                 5428 	add	a,c
   128D 5F                 5429 	ld	e,a
   128E 3E 00              5430 	ld	a,#>_eRealType
   1290 CE 00              5431 	adc	a,#0x00
   1292 57                 5432 	ld	d,a
                           5433 ; genPointerGet
   1293 1A                 5434 	ld	a,(de)
   1294 4F                 5435 	ld	c,a
                           5436 ; genCmpEq
   1295 79                 5437 	ld	a,c ; 2
   1296 FE 01              5438 	cp	a,#0x01
   1298 C2 9D 12           5439 	jp	nz,00234$
   129B 18 03              5440 	jr	00235$
   129D                    5441 00234$:
   129D C3 3C 13           5442 	jp	00130$
   12A0                    5443 00235$:
                           5444 ;	ishallbequeen.c 811
                           5445 ; genAssign
                           5446 ; AOP_HL for _i
   12A0 21 0B 00           5447 	ld	hl,#_i + 0
   12A3 4E                 5448 	ld	c,(hl)
                           5449 ; genPlus
   12A4 3E BE              5450 	ld	a,#<_eType
   12A6 81                 5451 	add	a,c
   12A7 5F                 5452 	ld	e,a
   12A8 3E 00              5453 	ld	a,#>_eType
   12AA CE 00              5454 	adc	a,#0x00
   12AC 57                 5455 	ld	d,a
                           5456 ; genPointerGet
   12AD 1A                 5457 	ld	a,(de)
   12AE 4F                 5458 	ld	c,a
                           5459 ; genCmpGt
   12AF AF                 5460 	xor	a,a
   12B0 3E D7              5461 	ld	a,#0xD7
   12B2 99                 5462 	sbc	a,c ; 2
   12B3 D2 C3 12           5463 	jp	nc,00118$
                           5464 ;	ishallbequeen.c 812
                           5465 ; genAssign
                           5466 ; AOP_HL for _i
   12B6 4E                 5467 	ld	c,(hl)
                           5468 ; genPlus
   12B7 3E BE              5469 	ld	a,#<_eType
   12B9 81                 5470 	add	a,c
   12BA 5F                 5471 	ld	e,a
   12BB 3E 00              5472 	ld	a,#>_eType
   12BD CE 00              5473 	adc	a,#0x00
   12BF 57                 5474 	ld	d,a
                           5475 ; genAssign (pointer)
   12C0 3E D0              5476 	ld	a,#0xD0
   12C2 12                 5477 	ld	(de),a
                           5478 ; genLabel
   12C3                    5479 00118$:
                           5480 ;	ishallbequeen.c 815
                           5481 ; genAssign
                           5482 ; AOP_HL for _i
   12C3 21 0B 00           5483 	ld	hl,#_i + 0
   12C6 4E                 5484 	ld	c,(hl)
                           5485 ; genPlus
   12C7 3E B5              5486 	ld	a,#<_eState
   12C9 81                 5487 	add	a,c
   12CA 5F                 5488 	ld	e,a
   12CB 3E 00              5489 	ld	a,#>_eState
   12CD CE 00              5490 	adc	a,#0x00
   12CF 57                 5491 	ld	d,a
                           5492 ; genPointerGet
   12D0 1A                 5493 	ld	a,(de)
   12D1 4F                 5494 	ld	c,a
                           5495 ; genCmpGt
   12D2 AF                 5496 	xor	a,a
   12D3 3E 50              5497 	ld	a,#0x50
   12D5 99                 5498 	sbc	a,c ; 2
   12D6 D2 E6 12           5499 	jp	nc,00120$
                           5500 ;	ishallbequeen.c 816
                           5501 ; genAssign
                           5502 ; AOP_HL for _i
   12D9 4E                 5503 	ld	c,(hl)
                           5504 ; genPlus
   12DA 3E BE              5505 	ld	a,#<_eType
   12DC 81                 5506 	add	a,c
   12DD 5F                 5507 	ld	e,a
   12DE 3E 00              5508 	ld	a,#>_eType
   12E0 CE 00              5509 	adc	a,#0x00
   12E2 57                 5510 	ld	d,a
                           5511 ; genAssign (pointer)
   12E3 3E D8              5512 	ld	a,#0xD8
   12E5 12                 5513 	ld	(de),a
                           5514 ; genLabel
   12E6                    5515 00120$:
                           5516 ;	ishallbequeen.c 819
                           5517 ; genAssign
                           5518 ; AOP_HL for _i
   12E6 21 0B 00           5519 	ld	hl,#_i + 0
   12E9 4E                 5520 	ld	c,(hl)
                           5521 ; genPlus
   12EA 3E B5              5522 	ld	a,#<_eState
   12EC 81                 5523 	add	a,c
   12ED 5F                 5524 	ld	e,a
   12EE 3E 00              5525 	ld	a,#>_eState
   12F0 CE 00              5526 	adc	a,#0x00
   12F2 57                 5527 	ld	d,a
                           5528 ; genPointerGet
   12F3 1A                 5529 	ld	a,(de)
   12F4 4F                 5530 	ld	c,a
                           5531 ; genCmpGt
   12F5 AF                 5532 	xor	a,a
   12F6 3E 64              5533 	ld	a,#0x64
   12F8 99                 5534 	sbc	a,c ; 2
   12F9 D2 09 13           5535 	jp	nc,00122$
                           5536 ;	ishallbequeen.c 820
                           5537 ; genAssign
                           5538 ; AOP_HL for _i
   12FC 4E                 5539 	ld	c,(hl)
                           5540 ; genPlus
   12FD 3E BE              5541 	ld	a,#<_eType
   12FF 81                 5542 	add	a,c
   1300 5F                 5543 	ld	e,a
   1301 3E 00              5544 	ld	a,#>_eType
   1303 CE 00              5545 	adc	a,#0x00
   1305 57                 5546 	ld	d,a
                           5547 ; genAssign (pointer)
   1306 3E DC              5548 	ld	a,#0xDC
   1308 12                 5549 	ld	(de),a
                           5550 ; genLabel
   1309                    5551 00122$:
                           5552 ;	ishallbequeen.c 823
                           5553 ; genAssign
                           5554 ; AOP_HL for _i
   1309 21 0B 00           5555 	ld	hl,#_i + 0
   130C 4E                 5556 	ld	c,(hl)
                           5557 ; genPlus
   130D 3E B5              5558 	ld	a,#<_eState
   130F 81                 5559 	add	a,c
   1310 5F                 5560 	ld	e,a
   1311 3E 00              5561 	ld	a,#>_eState
   1313 CE 00              5562 	adc	a,#0x00
   1315 57                 5563 	ld	d,a
                           5564 ; genPointerGet
   1316 1A                 5565 	ld	a,(de)
   1317 4F                 5566 	ld	c,a
                           5567 ; genCmpGt
   1318 AF                 5568 	xor	a,a
   1319 3E 8C              5569 	ld	a,#0x8C
   131B 99                 5570 	sbc	a,c ; 2
   131C D2 89 13           5571 	jp	nc,00133$
                           5572 ;	ishallbequeen.c 824
                           5573 ; genAssign
                           5574 ; AOP_HL for _i
   131F 4E                 5575 	ld	c,(hl)
                           5576 ; genPlus
   1320 3E B5              5577 	ld	a,#<_eState
   1322 81                 5578 	add	a,c
   1323 5F                 5579 	ld	e,a
   1324 3E 00              5580 	ld	a,#>_eState
   1326 CE 00              5581 	adc	a,#0x00
   1328 57                 5582 	ld	d,a
                           5583 ; genAssign (pointer)
   1329 3E 00              5584 	ld	a,#0x00
   132B 12                 5585 	ld	(de),a
                           5586 ;	ishallbequeen.c 825
                           5587 ; genAssign
                           5588 ; AOP_HL for _i
   132C 4E                 5589 	ld	c,(hl)
                           5590 ; genPlus
   132D 3E BE              5591 	ld	a,#<_eType
   132F 81                 5592 	add	a,c
   1330 5F                 5593 	ld	e,a
   1331 3E 00              5594 	ld	a,#>_eType
   1333 CE 00              5595 	adc	a,#0x00
   1335 57                 5596 	ld	d,a
                           5597 ; genAssign (pointer)
   1336 3E D0              5598 	ld	a,#0xD0
   1338 12                 5599 	ld	(de),a
                           5600 ; genGoto
   1339 C3 89 13           5601 	jp	00133$
                           5602 ; genLabel
   133C                    5603 00130$:
                           5604 ;	ishallbequeen.c 830
                           5605 ; genAssign
                           5606 ; AOP_HL for _i
   133C 21 0B 00           5607 	ld	hl,#_i + 0
   133F 4E                 5608 	ld	c,(hl)
                           5609 ; genPlus
   1340 3E B5              5610 	ld	a,#<_eState
   1342 81                 5611 	add	a,c
   1343 5F                 5612 	ld	e,a
   1344 3E 00              5613 	ld	a,#>_eState
   1346 CE 00              5614 	adc	a,#0x00
   1348 57                 5615 	ld	d,a
                           5616 ; genPointerGet
   1349 1A                 5617 	ld	a,(de)
   134A 4F                 5618 	ld	c,a
                           5619 ; genCmpGt
   134B AF                 5620 	xor	a,a
   134C 3E 28              5621 	ld	a,#0x28
   134E 99                 5622 	sbc	a,c ; 2
   134F D2 5F 13           5623 	jp	nc,00126$
                           5624 ;	ishallbequeen.c 831
                           5625 ; genAssign
                           5626 ; AOP_HL for _i
   1352 4E                 5627 	ld	c,(hl)
                           5628 ; genPlus
   1353 3E B5              5629 	ld	a,#<_eState
   1355 81                 5630 	add	a,c
   1356 5F                 5631 	ld	e,a
   1357 3E 00              5632 	ld	a,#>_eState
   1359 CE 00              5633 	adc	a,#0x00
   135B 57                 5634 	ld	d,a
                           5635 ; genAssign (pointer)
   135C 3E 00              5636 	ld	a,#0x00
   135E 12                 5637 	ld	(de),a
                           5638 ; genLabel
   135F                    5639 00126$:
                           5640 ;	ishallbequeen.c 834
                           5641 ; genAssign
                           5642 ; AOP_HL for _i
   135F 21 0B 00           5643 	ld	hl,#_i + 0
   1362 4E                 5644 	ld	c,(hl)
                           5645 ; genPlus
   1363 3E BE              5646 	ld	a,#<_eType
   1365 81                 5647 	add	a,c
   1366 5F                 5648 	ld	e,a
   1367 3E 00              5649 	ld	a,#>_eType
   1369 CE 00              5650 	adc	a,#0x00
   136B 57                 5651 	ld	d,a
                           5652 ; genPointerGet
   136C 1A                 5653 	ld	a,(de)
   136D 4F                 5654 	ld	c,a
                           5655 ; genCmpEq
   136E 79                 5656 	ld	a,c ; 2
   136F FE F0              5657 	cp	a,#0xF0
   1371 C2 76 13           5658 	jp	nz,00236$
   1374 18 03              5659 	jr	00237$
   1376                    5660 00236$:
   1376 C3 89 13           5661 	jp	00133$
   1379                    5662 00237$:
                           5663 ;	ishallbequeen.c 835
                           5664 ; genAssign
                           5665 ; AOP_HL for _i
   1379 21 0B 00           5666 	ld	hl,#_i + 0
   137C 4E                 5667 	ld	c,(hl)
                           5668 ; genPlus
   137D 3E BE              5669 	ld	a,#<_eType
   137F 81                 5670 	add	a,c
   1380 5F                 5671 	ld	e,a
   1381 3E 00              5672 	ld	a,#>_eType
   1383 CE 00              5673 	adc	a,#0x00
   1385 57                 5674 	ld	d,a
                           5675 ; genAssign (pointer)
   1386 3E E0              5676 	ld	a,#0xE0
   1388 12                 5677 	ld	(de),a
                           5678 ; genLabel
   1389                    5679 00133$:
                           5680 ;	ishallbequeen.c 841
                           5681 ; genIfx
                           5682 ; AOP_STK for _updateEnemies_sloc0_1_0
   1389 AF                 5683 	xor	a,a
   138A F8 03              5684 	lda	hl,3(sp)
   138C B6                 5685 	or	a,(hl)
   138D B7                 5686 	or	a,a
   138E CA FE 17           5687 	jp	z,00174$
                           5688 ;	ishallbequeen.c 842
                           5689 ; genLeftShift
                           5690 ; AOP_HL for _i
                           5691 ; AOP_HL for _j
   1391 21 0B 00           5692 	ld	hl,#_i + 0
   1394 7E                 5693 	ld	a,(hl)
   1395 87                 5694 	add	a,a
   1396 87                 5695 	add	a,a
   1397 21 0C 00           5696 	ld	hl,#_j + 0
   139A 77                 5697 	ld	(hl),a
                           5698 ;	ishallbequeen.c 844
                           5699 ; genAssign
                           5700 ; AOP_HL for _i
   139B 21 0B 00           5701 	ld	hl,#_i + 0
   139E 4E                 5702 	ld	c,(hl)
                           5703 ; genPlus
   139F 3E AC              5704 	ld	a,#<_eX
   13A1 81                 5705 	add	a,c
   13A2 5F                 5706 	ld	e,a
   13A3 3E 00              5707 	ld	a,#>_eX
   13A5 CE 00              5708 	adc	a,#0x00
   13A7 57                 5709 	ld	d,a
                           5710 ; genPointerGet
   13A8 1A                 5711 	ld	a,(de)
   13A9 4F                 5712 	ld	c,a
                           5713 ; genPlus
                           5714 ; genPlusIncr
   13AA 79                 5715 	ld	a,c
   13AB C6 20              5716 	add	a,#0x20
   13AD 4F                 5717 	ld	c,a
                           5718 ; genPlus
                           5719 ; AOP_HL for _pX
                           5720 ; genPlusIncr
   13AE 21 80 00           5721 	ld	hl,#_pX + 0
   13B1 7E                 5722 	ld	a,(hl)
   13B2 C6 2A              5723 	add	a,#0x2A
   13B4 47                 5724 	ld	b,a
                           5725 ; genCmpLt
   13B5 AF                 5726 	xor	a,a
   13B6 79                 5727 	ld	a,c
   13B7 98                 5728 	sbc	a,b ; 2
   13B8 D2 57 15           5729 	jp	nc,00158$
                           5730 ;	ishallbequeen.c 846
                           5731 ; genPlus
                           5732 ; AOP_HL for _j
                           5733 ; genPlusIncr
   13BB 21 0C 00           5734 	ld	hl,#_j + 0
   13BE 7E                 5735 	ld	a,(hl)
   13BF C6 12              5736 	add	a,#0x12
   13C1 4F                 5737 	ld	c,a
                           5738 ; genIpush
   13C2 79                 5739 	ld	a,c
   13C3 F5                 5740 	push	af
   13C4 33                 5741 	inc	sp
                           5742 ; genCall
   13C5 CD 00 00           5743 	call	_get_sprite_prop
   13C8 43                 5744 	ld	b,e
   13C9 E8 01              5745 	lda	sp,1(sp)
                           5746 ; genCmpLt
   13CB 78                 5747 	ld	a,b
   13CC FE 20              5748 	cp	#0x20
   13CE D2 E4 13           5749 	jp	nc,00136$
                           5750 ;	ishallbequeen.c 847
                           5751 ; genIpush
   13D1 79                 5752 	ld	a,c
   13D2 F5                 5753 	push	af
   13D3 33                 5754 	inc	sp
                           5755 ; genCall
   13D4 CD 00 00           5756 	call	_get_sprite_prop
                           5757 ; AOP_HL for _tempVal
   13D7 21 11 00           5758 	ld	hl,#_tempVal + 0
   13DA 73                 5759 	ld	(hl),e
   13DB E8 01              5760 	lda	sp,1(sp)
                           5761 ;	ishallbequeen.c 848
                           5762 ; genPlus
                           5763 ; AOP_HL for _tempVal
                           5764 ; genPlusIncr
   13DD 7E                 5765 	ld	a,(hl)
   13DE C6 20              5766 	add	a,#0x20
   13E0 77                 5767 	ld	(hl),a
                           5768 ;	ishallbequeen.c 849
                           5769 ; genCall
   13E1 CD 16 1B           5770 	call	_setProps
                           5771 ; genLabel
   13E4                    5772 00136$:
                           5773 ;	ishallbequeen.c 853
                           5774 ; genAssign
                           5775 ; AOP_HL for _i
   13E4 21 0B 00           5776 	ld	hl,#_i + 0
   13E7 46                 5777 	ld	b,(hl)
                           5778 ; genPlus
   13E8 3E BE              5779 	ld	a,#<_eType
   13EA 80                 5780 	add	a,b
   13EB 5F                 5781 	ld	e,a
   13EC 3E 00              5782 	ld	a,#>_eType
   13EE CE 00              5783 	adc	a,#0x00
   13F0 57                 5784 	ld	d,a
                           5785 ; genPointerGet
   13F1 1A                 5786 	ld	a,(de)
   13F2 47                 5787 	ld	b,a
                           5788 ; genPlus
                           5789 ; genPlusIncr
   13F3 04                 5790 	inc	b
                           5791 ; genIpush
   13F4 78                 5792 	ld	a,b
   13F5 F5                 5793 	push	af
   13F6 33                 5794 	inc	sp
                           5795 ; genIpush
   13F7 79                 5796 	ld	a,c
   13F8 F5                 5797 	push	af
   13F9 33                 5798 	inc	sp
                           5799 ; genCall
   13FA CD 00 00           5800 	call	_set_sprite_tile
   13FD E8 02              5801 	lda	sp,2(sp)
                           5802 ;	ishallbequeen.c 854
                           5803 ; genAssign
                           5804 ; AOP_HL for _i
   13FF 21 0B 00           5805 	ld	hl,#_i + 0
   1402 4E                 5806 	ld	c,(hl)
                           5807 ; genPlus
   1403 3E BE              5808 	ld	a,#<_eType
   1405 81                 5809 	add	a,c
   1406 5F                 5810 	ld	e,a
   1407 3E 00              5811 	ld	a,#>_eType
   1409 CE 00              5812 	adc	a,#0x00
   140B 57                 5813 	ld	d,a
                           5814 ; genPointerGet
   140C 1A                 5815 	ld	a,(de)
   140D 4F                 5816 	ld	c,a
                           5817 ; genPlus
                           5818 ; AOP_HL for _j
                           5819 ; genPlusIncr
   140E 21 0C 00           5820 	ld	hl,#_j + 0
   1411 7E                 5821 	ld	a,(hl)
   1412 C6 13              5822 	add	a,#0x13
   1414 47                 5823 	ld	b,a
                           5824 ; genIpush
   1415 79                 5825 	ld	a,c
   1416 F5                 5826 	push	af
   1417 33                 5827 	inc	sp
                           5828 ; genIpush
   1418 78                 5829 	ld	a,b
   1419 F5                 5830 	push	af
   141A 33                 5831 	inc	sp
                           5832 ; genCall
   141B CD 00 00           5833 	call	_set_sprite_tile
   141E E8 02              5834 	lda	sp,2(sp)
                           5835 ;	ishallbequeen.c 855
                           5836 ; genAssign
                           5837 ; AOP_HL for _i
   1420 21 0B 00           5838 	ld	hl,#_i + 0
   1423 4E                 5839 	ld	c,(hl)
                           5840 ; genPlus
   1424 3E BE              5841 	ld	a,#<_eType
   1426 81                 5842 	add	a,c
   1427 5F                 5843 	ld	e,a
   1428 3E 00              5844 	ld	a,#>_eType
   142A CE 00              5845 	adc	a,#0x00
   142C 57                 5846 	ld	d,a
                           5847 ; genPointerGet
   142D 1A                 5848 	ld	a,(de)
   142E 4F                 5849 	ld	c,a
                           5850 ; genPlus
                           5851 ; genPlusIncr
   142F 0C                 5852 	inc	c
   1430 0C                 5853 	inc	c
   1431 0C                 5854 	inc	c
                           5855 ; genPlus
                           5856 ; AOP_HL for _j
                           5857 ; genPlusIncr
   1432 21 0C 00           5858 	ld	hl,#_j + 0
   1435 7E                 5859 	ld	a,(hl)
   1436 C6 14              5860 	add	a,#0x14
   1438 47                 5861 	ld	b,a
                           5862 ; genIpush
   1439 79                 5863 	ld	a,c
   143A F5                 5864 	push	af
   143B 33                 5865 	inc	sp
                           5866 ; genIpush
   143C 78                 5867 	ld	a,b
   143D F5                 5868 	push	af
   143E 33                 5869 	inc	sp
                           5870 ; genCall
   143F CD 00 00           5871 	call	_set_sprite_tile
   1442 E8 02              5872 	lda	sp,2(sp)
                           5873 ;	ishallbequeen.c 856
                           5874 ; genAssign
                           5875 ; AOP_HL for _i
   1444 21 0B 00           5876 	ld	hl,#_i + 0
   1447 4E                 5877 	ld	c,(hl)
                           5878 ; genPlus
   1448 3E BE              5879 	ld	a,#<_eType
   144A 81                 5880 	add	a,c
   144B 5F                 5881 	ld	e,a
   144C 3E 00              5882 	ld	a,#>_eType
   144E CE 00              5883 	adc	a,#0x00
   1450 57                 5884 	ld	d,a
                           5885 ; genPointerGet
   1451 1A                 5886 	ld	a,(de)
   1452 4F                 5887 	ld	c,a
                           5888 ; genPlus
                           5889 ; genPlusIncr
   1453 0C                 5890 	inc	c
   1454 0C                 5891 	inc	c
                           5892 ; genPlus
                           5893 ; AOP_HL for _j
                           5894 ; genPlusIncr
   1455 21 0C 00           5895 	ld	hl,#_j + 0
   1458 7E                 5896 	ld	a,(hl)
   1459 C6 15              5897 	add	a,#0x15
   145B 47                 5898 	ld	b,a
                           5899 ; genIpush
   145C 79                 5900 	ld	a,c
   145D F5                 5901 	push	af
   145E 33                 5902 	inc	sp
                           5903 ; genIpush
   145F 78                 5904 	ld	a,b
   1460 F5                 5905 	push	af
   1461 33                 5906 	inc	sp
                           5907 ; genCall
   1462 CD 00 00           5908 	call	_set_sprite_tile
   1465 E8 02              5909 	lda	sp,2(sp)
                           5910 ;	ishallbequeen.c 858
                           5911 ; genAssign
                           5912 ; AOP_HL for _i
   1467 21 0B 00           5913 	ld	hl,#_i + 0
   146A 4E                 5914 	ld	c,(hl)
                           5915 ; genPlus
   146B 3E C4              5916 	ld	a,#<_eRealType
   146D 81                 5917 	add	a,c
   146E 5F                 5918 	ld	e,a
   146F 3E 00              5919 	ld	a,#>_eRealType
   1471 CE 00              5920 	adc	a,#0x00
   1473 57                 5921 	ld	d,a
                           5922 ; genPointerGet
   1474 1A                 5923 	ld	a,(de)
   1475 4F                 5924 	ld	c,a
                           5925 ; genCmpEq
   1476 79                 5926 	ld	a,c ; 2
   1477 FE 01              5927 	cp	a,#0x01
   1479 C2 7E 14           5928 	jp	nz,00238$
   147C 18 03              5929 	jr	00239$
   147E                    5930 00238$:
   147E C3 20 15           5931 	jp	00144$
   1481                    5932 00239$:
                           5933 ;	ishallbequeen.c 860
                           5934 ; genAssign
                           5935 ; AOP_HL for _i
   1481 21 0B 00           5936 	ld	hl,#_i + 0
   1484 4E                 5937 	ld	c,(hl)
                           5938 ; genPlus
   1485 3E BE              5939 	ld	a,#<_eType
   1487 81                 5940 	add	a,c
   1488 5F                 5941 	ld	e,a
   1489 3E 00              5942 	ld	a,#>_eType
   148B CE 00              5943 	adc	a,#0x00
   148D 57                 5944 	ld	d,a
                           5945 ; genPointerGet
   148E 1A                 5946 	ld	a,(de)
   148F 4F                 5947 	ld	c,a
                           5948 ; genCmpEq
   1490 79                 5949 	ld	a,c ; 2
   1491 FE D8              5950 	cp	a,#0xD8
                           5951 ; Rule 5
   1493 CA B8 14           5952 	jp	z,00138$
   1496                    5953 00240$:
                           5954 ;	ishallbequeen.c 861
                           5955 ; genAssign
                           5956 ; AOP_HL for _i
   1496 21 0B 00           5957 	ld	hl,#_i + 0
   1499 4E                 5958 	ld	c,(hl)
                           5959 ; genPlus
                           5960 ; AOP_STK for _updateEnemies_sloc1_1_0
   149A 3E AC              5961 	ld	a,#<_eX
   149C 81                 5962 	add	a,c
   149D F8 01              5963 	lda	hl,1(sp)
   149F 77                 5964 	ld	(hl),a ; 3
   14A0 3E 00              5965 	ld	a,#>_eX
   14A2 CE 00              5966 	adc	a,#0x00
   14A4 23                 5967 	inc	hl
   14A5 77                 5968 	ld	(hl),a ; 3
                           5969 ; genPointerGet
                           5970 ; AOP_STK for _updateEnemies_sloc1_1_0
                           5971 ; AOP_STK for _updateEnemies_sloc2_1_0
   14A6 2B                 5972 	dec	hl
   14A7 5E                 5973 	ld	e,(hl)
   14A8 23                 5974 	inc	hl
   14A9 56                 5975 	ld	d,(hl)
   14AA 1A                 5976 	ld	a,(de)
   14AB 2B                 5977 	dec	hl
   14AC 2B                 5978 	dec	hl
   14AD 77                 5979 	ld	(hl),a ; 3
                           5980 ; genPlus
                           5981 ; AOP_STK for _updateEnemies_sloc2_1_0
                           5982 ; genPlusIncr
   14AE 7E                 5983 	ld	a,(hl)
   14AF C6 01              5984 	add	a,#0x01
   14B1 4F                 5985 	ld	c,a
                           5986 ; genAssign (pointer)
                           5987 ; AOP_STK for _updateEnemies_sloc1_1_0
   14B2 23                 5988 	inc	hl
   14B3 5E                 5989 	ld	e,(hl)
   14B4 23                 5990 	inc	hl
   14B5 56                 5991 	ld	d,(hl)
   14B6 79                 5992 	ld	a,c
   14B7 12                 5993 	ld	(de),a
                           5994 ; genLabel
   14B8                    5995 00138$:
                           5996 ;	ishallbequeen.c 864
                           5997 ; genAssign
                           5998 ; AOP_HL for _i
   14B8 21 0B 00           5999 	ld	hl,#_i + 0
   14BB 4E                 6000 	ld	c,(hl)
                           6001 ; genPlus
   14BC 3E BE              6002 	ld	a,#<_eType
   14BE 81                 6003 	add	a,c
   14BF 5F                 6004 	ld	e,a
   14C0 3E 00              6005 	ld	a,#>_eType
   14C2 CE 00              6006 	adc	a,#0x00
   14C4 57                 6007 	ld	d,a
                           6008 ; genPointerGet
   14C5 1A                 6009 	ld	a,(de)
   14C6 4F                 6010 	ld	c,a
                           6011 ; genCmpEq
   14C7 79                 6012 	ld	a,c ; 2
   14C8 FE DC              6013 	cp	a,#0xDC
   14CA C2 CF 14           6014 	jp	nz,00241$
   14CD 18 03              6015 	jr	00242$
   14CF                    6016 00241$:
   14CF C3 EA 16           6017 	jp	00159$
   14D2                    6018 00242$:
                           6019 ;	ishallbequeen.c 865
                           6020 ; genAssign
                           6021 ; AOP_HL for _i
   14D2 21 0B 00           6022 	ld	hl,#_i + 0
   14D5 4E                 6023 	ld	c,(hl)
                           6024 ; genPlus
                           6025 ; AOP_STK for _updateEnemies_sloc1_1_0
   14D6 3E AC              6026 	ld	a,#<_eX
   14D8 81                 6027 	add	a,c
   14D9 F8 01              6028 	lda	hl,1(sp)
   14DB 77                 6029 	ld	(hl),a ; 3
   14DC 3E 00              6030 	ld	a,#>_eX
   14DE CE 00              6031 	adc	a,#0x00
   14E0 23                 6032 	inc	hl
   14E1 77                 6033 	ld	(hl),a ; 3
                           6034 ; genAssign
                           6035 ; AOP_HL for _i
   14E2 21 0B 00           6036 	ld	hl,#_i + 0
   14E5 4E                 6037 	ld	c,(hl)
                           6038 ; genPlus
   14E6 3E AC              6039 	ld	a,#<_eX
   14E8 81                 6040 	add	a,c
   14E9 5F                 6041 	ld	e,a
   14EA 3E 00              6042 	ld	a,#>_eX
   14EC CE 00              6043 	adc	a,#0x00
   14EE 57                 6044 	ld	d,a
                           6045 ; genPointerGet
   14EF 1A                 6046 	ld	a,(de)
   14F0 4F                 6047 	ld	c,a
                           6048 ; genPlus
                           6049 ; genPlusIncr
   14F1 0C                 6050 	inc	c
   14F2 0C                 6051 	inc	c
   14F3 0C                 6052 	inc	c
                           6053 ; genAssign (pointer)
                           6054 ; AOP_STK for _updateEnemies_sloc1_1_0
   14F4 F8 01              6055 	lda	hl,1(sp)
   14F6 5E                 6056 	ld	e,(hl)
   14F7 23                 6057 	inc	hl
   14F8 56                 6058 	ld	d,(hl)
   14F9 79                 6059 	ld	a,c
   14FA 12                 6060 	ld	(de),a
                           6061 ;	ishallbequeen.c 866
                           6062 ; genAssign
                           6063 ; AOP_HL for _i
   14FB 21 0B 00           6064 	ld	hl,#_i + 0
   14FE 4E                 6065 	ld	c,(hl)
                           6066 ; genPlus
                           6067 ; AOP_STK for _updateEnemies_sloc1_1_0
   14FF 3E B5              6068 	ld	a,#<_eState
   1501 81                 6069 	add	a,c
   1502 F8 01              6070 	lda	hl,1(sp)
   1504 77                 6071 	ld	(hl),a ; 3
   1505 3E 00              6072 	ld	a,#>_eState
   1507 CE 00              6073 	adc	a,#0x00
   1509 23                 6074 	inc	hl
   150A 77                 6075 	ld	(hl),a ; 3
                           6076 ; genPointerGet
                           6077 ; AOP_STK for _updateEnemies_sloc1_1_0
                           6078 ; AOP_STK for _updateEnemies_sloc2_1_0
   150B 2B                 6079 	dec	hl
   150C 5E                 6080 	ld	e,(hl)
   150D 23                 6081 	inc	hl
   150E 56                 6082 	ld	d,(hl)
   150F 1A                 6083 	ld	a,(de)
   1510 2B                 6084 	dec	hl
   1511 2B                 6085 	dec	hl
   1512 77                 6086 	ld	(hl),a ; 3
                           6087 ; genPlus
                           6088 ; AOP_STK for _updateEnemies_sloc2_1_0
                           6089 ; genPlusIncr
   1513 7E                 6090 	ld	a,(hl)
   1514 C6 01              6091 	add	a,#0x01
   1516 4F                 6092 	ld	c,a
                           6093 ; genAssign (pointer)
                           6094 ; AOP_STK for _updateEnemies_sloc1_1_0
   1517 23                 6095 	inc	hl
   1518 5E                 6096 	ld	e,(hl)
   1519 23                 6097 	inc	hl
   151A 56                 6098 	ld	d,(hl)
   151B 79                 6099 	ld	a,c
   151C 12                 6100 	ld	(de),a
                           6101 ; genGoto
   151D C3 EA 16           6102 	jp	00159$
                           6103 ; genLabel
   1520                    6104 00144$:
                           6105 ;	ishallbequeen.c 870
                           6106 ; genAssign
                           6107 ; AOP_HL for _i
   1520 21 0B 00           6108 	ld	hl,#_i + 0
   1523 4E                 6109 	ld	c,(hl)
                           6110 ; genPlus
   1524 3E B5              6111 	ld	a,#<_eState
   1526 81                 6112 	add	a,c
   1527 5F                 6113 	ld	e,a
   1528 3E 00              6114 	ld	a,#>_eState
   152A CE 00              6115 	adc	a,#0x00
   152C 57                 6116 	ld	d,a
                           6117 ; genPointerGet
   152D 1A                 6118 	ld	a,(de)
   152E 4F                 6119 	ld	c,a
                           6120 ; genCmpLt
   152F 79                 6121 	ld	a,c
   1530 FE 14              6122 	cp	#0x14
   1532 D2 EA 16           6123 	jp	nc,00159$
                           6124 ;	ishallbequeen.c 871
                           6125 ; genAssign
                           6126 ; AOP_HL for _i
   1535 4E                 6127 	ld	c,(hl)
                           6128 ; genPlus
                           6129 ; AOP_STK for _updateEnemies_sloc1_1_0
   1536 3E AC              6130 	ld	a,#<_eX
   1538 81                 6131 	add	a,c
   1539 F8 01              6132 	lda	hl,1(sp)
   153B 77                 6133 	ld	(hl),a ; 3
   153C 3E 00              6134 	ld	a,#>_eX
   153E CE 00              6135 	adc	a,#0x00
   1540 23                 6136 	inc	hl
   1541 77                 6137 	ld	(hl),a ; 3
                           6138 ; genPointerGet
                           6139 ; AOP_STK for _updateEnemies_sloc1_1_0
                           6140 ; AOP_STK for _updateEnemies_sloc2_1_0
   1542 2B                 6141 	dec	hl
   1543 5E                 6142 	ld	e,(hl)
   1544 23                 6143 	inc	hl
   1545 56                 6144 	ld	d,(hl)
   1546 1A                 6145 	ld	a,(de)
   1547 2B                 6146 	dec	hl
   1548 2B                 6147 	dec	hl
   1549 77                 6148 	ld	(hl),a ; 3
                           6149 ; genPlus
                           6150 ; AOP_STK for _updateEnemies_sloc2_1_0
                           6151 ; genPlusIncr
   154A 7E                 6152 	ld	a,(hl)
   154B C6 01              6153 	add	a,#0x01
   154D 4F                 6154 	ld	c,a
                           6155 ; genAssign (pointer)
                           6156 ; AOP_STK for _updateEnemies_sloc1_1_0
   154E 23                 6157 	inc	hl
   154F 5E                 6158 	ld	e,(hl)
   1550 23                 6159 	inc	hl
   1551 56                 6160 	ld	d,(hl)
   1552 79                 6161 	ld	a,c
   1553 12                 6162 	ld	(de),a
                           6163 ; genGoto
   1554 C3 EA 16           6164 	jp	00159$
                           6165 ; genLabel
   1557                    6166 00158$:
                           6167 ;	ishallbequeen.c 877
                           6168 ; genPlus
                           6169 ; AOP_HL for _j
                           6170 ; genPlusIncr
   1557 21 0C 00           6171 	ld	hl,#_j + 0
   155A 7E                 6172 	ld	a,(hl)
   155B C6 12              6173 	add	a,#0x12
   155D 4F                 6174 	ld	c,a
                           6175 ; genIpush
   155E 79                 6176 	ld	a,c
   155F F5                 6177 	push	af
   1560 33                 6178 	inc	sp
                           6179 ; genCall
   1561 CD 00 00           6180 	call	_get_sprite_prop
   1564 43                 6181 	ld	b,e
   1565 E8 01              6182 	lda	sp,1(sp)
                           6183 ; genCmpGt
   1567 AF                 6184 	xor	a,a
   1568 3E 1F              6185 	ld	a,#0x1F
   156A 98                 6186 	sbc	a,b ; 2
   156B D2 81 15           6187 	jp	nc,00147$
                           6188 ;	ishallbequeen.c 878
                           6189 ; genIpush
   156E 79                 6190 	ld	a,c
   156F F5                 6191 	push	af
   1570 33                 6192 	inc	sp
                           6193 ; genCall
   1571 CD 00 00           6194 	call	_get_sprite_prop
                           6195 ; AOP_HL for _tempVal
   1574 21 11 00           6196 	ld	hl,#_tempVal + 0
   1577 73                 6197 	ld	(hl),e
   1578 E8 01              6198 	lda	sp,1(sp)
                           6199 ;	ishallbequeen.c 879
                           6200 ; genMinus
                           6201 ; AOP_HL for _tempVal
   157A 7E                 6202 	ld	a,(hl)
   157B C6 E0              6203 	add	a,#0xE0
   157D 77                 6204 	ld	(hl),a
                           6205 ;	ishallbequeen.c 880
                           6206 ; genCall
   157E CD 16 1B           6207 	call	_setProps
                           6208 ; genLabel
   1581                    6209 00147$:
                           6210 ;	ishallbequeen.c 883
                           6211 ; genAssign
                           6212 ; AOP_HL for _i
   1581 21 0B 00           6213 	ld	hl,#_i + 0
   1584 46                 6214 	ld	b,(hl)
                           6215 ; genPlus
   1585 3E BE              6216 	ld	a,#<_eType
   1587 80                 6217 	add	a,b
   1588 5F                 6218 	ld	e,a
   1589 3E 00              6219 	ld	a,#>_eType
   158B CE 00              6220 	adc	a,#0x00
   158D 57                 6221 	ld	d,a
                           6222 ; genPointerGet
   158E 1A                 6223 	ld	a,(de)
   158F 47                 6224 	ld	b,a
                           6225 ; genIpush
   1590 78                 6226 	ld	a,b
   1591 F5                 6227 	push	af
   1592 33                 6228 	inc	sp
                           6229 ; genIpush
   1593 79                 6230 	ld	a,c
   1594 F5                 6231 	push	af
   1595 33                 6232 	inc	sp
                           6233 ; genCall
   1596 CD 00 00           6234 	call	_set_sprite_tile
   1599 E8 02              6235 	lda	sp,2(sp)
                           6236 ;	ishallbequeen.c 884
                           6237 ; genAssign
                           6238 ; AOP_HL for _i
   159B 21 0B 00           6239 	ld	hl,#_i + 0
   159E 4E                 6240 	ld	c,(hl)
                           6241 ; genPlus
   159F 3E BE              6242 	ld	a,#<_eType
   15A1 81                 6243 	add	a,c
   15A2 5F                 6244 	ld	e,a
   15A3 3E 00              6245 	ld	a,#>_eType
   15A5 CE 00              6246 	adc	a,#0x00
   15A7 57                 6247 	ld	d,a
                           6248 ; genPointerGet
   15A8 1A                 6249 	ld	a,(de)
   15A9 4F                 6250 	ld	c,a
                           6251 ; genPlus
                           6252 ; genPlusIncr
   15AA 0C                 6253 	inc	c
                           6254 ; genPlus
                           6255 ; AOP_HL for _j
                           6256 ; genPlusIncr
   15AB 21 0C 00           6257 	ld	hl,#_j + 0
   15AE 7E                 6258 	ld	a,(hl)
   15AF C6 13              6259 	add	a,#0x13
   15B1 47                 6260 	ld	b,a
                           6261 ; genIpush
   15B2 79                 6262 	ld	a,c
   15B3 F5                 6263 	push	af
   15B4 33                 6264 	inc	sp
                           6265 ; genIpush
   15B5 78                 6266 	ld	a,b
   15B6 F5                 6267 	push	af
   15B7 33                 6268 	inc	sp
                           6269 ; genCall
   15B8 CD 00 00           6270 	call	_set_sprite_tile
   15BB E8 02              6271 	lda	sp,2(sp)
                           6272 ;	ishallbequeen.c 885
                           6273 ; genAssign
                           6274 ; AOP_HL for _i
   15BD 21 0B 00           6275 	ld	hl,#_i + 0
   15C0 4E                 6276 	ld	c,(hl)
                           6277 ; genPlus
   15C1 3E BE              6278 	ld	a,#<_eType
   15C3 81                 6279 	add	a,c
   15C4 5F                 6280 	ld	e,a
   15C5 3E 00              6281 	ld	a,#>_eType
   15C7 CE 00              6282 	adc	a,#0x00
   15C9 57                 6283 	ld	d,a
                           6284 ; genPointerGet
   15CA 1A                 6285 	ld	a,(de)
   15CB 4F                 6286 	ld	c,a
                           6287 ; genPlus
                           6288 ; genPlusIncr
   15CC 0C                 6289 	inc	c
   15CD 0C                 6290 	inc	c
                           6291 ; genPlus
                           6292 ; AOP_HL for _j
                           6293 ; genPlusIncr
   15CE 21 0C 00           6294 	ld	hl,#_j + 0
   15D1 7E                 6295 	ld	a,(hl)
   15D2 C6 14              6296 	add	a,#0x14
   15D4 47                 6297 	ld	b,a
                           6298 ; genIpush
   15D5 79                 6299 	ld	a,c
   15D6 F5                 6300 	push	af
   15D7 33                 6301 	inc	sp
                           6302 ; genIpush
   15D8 78                 6303 	ld	a,b
   15D9 F5                 6304 	push	af
   15DA 33                 6305 	inc	sp
                           6306 ; genCall
   15DB CD 00 00           6307 	call	_set_sprite_tile
   15DE E8 02              6308 	lda	sp,2(sp)
                           6309 ;	ishallbequeen.c 886
                           6310 ; genAssign
                           6311 ; AOP_HL for _i
   15E0 21 0B 00           6312 	ld	hl,#_i + 0
   15E3 4E                 6313 	ld	c,(hl)
                           6314 ; genPlus
   15E4 3E BE              6315 	ld	a,#<_eType
   15E6 81                 6316 	add	a,c
   15E7 5F                 6317 	ld	e,a
   15E8 3E 00              6318 	ld	a,#>_eType
   15EA CE 00              6319 	adc	a,#0x00
   15EC 57                 6320 	ld	d,a
                           6321 ; genPointerGet
   15ED 1A                 6322 	ld	a,(de)
   15EE 4F                 6323 	ld	c,a
                           6324 ; genPlus
                           6325 ; genPlusIncr
   15EF 0C                 6326 	inc	c
   15F0 0C                 6327 	inc	c
   15F1 0C                 6328 	inc	c
                           6329 ; genPlus
                           6330 ; AOP_HL for _j
                           6331 ; genPlusIncr
   15F2 21 0C 00           6332 	ld	hl,#_j + 0
   15F5 7E                 6333 	ld	a,(hl)
   15F6 C6 15              6334 	add	a,#0x15
   15F8 47                 6335 	ld	b,a
                           6336 ; genIpush
   15F9 79                 6337 	ld	a,c
   15FA F5                 6338 	push	af
   15FB 33                 6339 	inc	sp
                           6340 ; genIpush
   15FC 78                 6341 	ld	a,b
   15FD F5                 6342 	push	af
   15FE 33                 6343 	inc	sp
                           6344 ; genCall
   15FF CD 00 00           6345 	call	_set_sprite_tile
   1602 E8 02              6346 	lda	sp,2(sp)
                           6347 ;	ishallbequeen.c 888
                           6348 ; genAssign
                           6349 ; AOP_HL for _i
   1604 21 0B 00           6350 	ld	hl,#_i + 0
   1607 4E                 6351 	ld	c,(hl)
                           6352 ; genPlus
   1608 3E C4              6353 	ld	a,#<_eRealType
   160A 81                 6354 	add	a,c
   160B 5F                 6355 	ld	e,a
   160C 3E 00              6356 	ld	a,#>_eRealType
   160E CE 00              6357 	adc	a,#0x00
   1610 57                 6358 	ld	d,a
                           6359 ; genPointerGet
   1611 1A                 6360 	ld	a,(de)
   1612 4F                 6361 	ld	c,a
                           6362 ; genCmpEq
   1613 79                 6363 	ld	a,c ; 2
   1614 FE 01              6364 	cp	a,#0x01
   1616 C2 1B 16           6365 	jp	nz,00243$
   1619 18 03              6366 	jr	00244$
   161B                    6367 00243$:
   161B C3 B6 16           6368 	jp	00155$
   161E                    6369 00244$:
                           6370 ;	ishallbequeen.c 889
                           6371 ; genAssign
                           6372 ; AOP_HL for _i
   161E 21 0B 00           6373 	ld	hl,#_i + 0
   1621 4E                 6374 	ld	c,(hl)
                           6375 ; genPlus
   1622 3E BE              6376 	ld	a,#<_eType
   1624 81                 6377 	add	a,c
   1625 5F                 6378 	ld	e,a
   1626 3E 00              6379 	ld	a,#>_eType
   1628 CE 00              6380 	adc	a,#0x00
   162A 57                 6381 	ld	d,a
                           6382 ; genPointerGet
   162B 1A                 6383 	ld	a,(de)
   162C 4F                 6384 	ld	c,a
                           6385 ; genCmpEq
   162D 79                 6386 	ld	a,c ; 2
   162E FE D8              6387 	cp	a,#0xD8
                           6388 ; Rule 5
   1630 CA 55 16           6389 	jp	z,00149$
   1633                    6390 00245$:
                           6391 ;	ishallbequeen.c 890
                           6392 ; genAssign
                           6393 ; AOP_HL for _i
   1633 21 0B 00           6394 	ld	hl,#_i + 0
   1636 4E                 6395 	ld	c,(hl)
                           6396 ; genPlus
                           6397 ; AOP_STK for _updateEnemies_sloc1_1_0
   1637 3E AC              6398 	ld	a,#<_eX
   1639 81                 6399 	add	a,c
   163A F8 01              6400 	lda	hl,1(sp)
   163C 77                 6401 	ld	(hl),a ; 3
   163D 3E 00              6402 	ld	a,#>_eX
   163F CE 00              6403 	adc	a,#0x00
   1641 23                 6404 	inc	hl
   1642 77                 6405 	ld	(hl),a ; 3
                           6406 ; genPointerGet
                           6407 ; AOP_STK for _updateEnemies_sloc1_1_0
                           6408 ; AOP_STK for _updateEnemies_sloc2_1_0
   1643 2B                 6409 	dec	hl
   1644 5E                 6410 	ld	e,(hl)
   1645 23                 6411 	inc	hl
   1646 56                 6412 	ld	d,(hl)
   1647 1A                 6413 	ld	a,(de)
   1648 2B                 6414 	dec	hl
   1649 2B                 6415 	dec	hl
   164A 77                 6416 	ld	(hl),a ; 3
                           6417 ; genMinus
                           6418 ; AOP_STK for _updateEnemies_sloc2_1_0
   164B 7E                 6419 	ld	a,(hl)
   164C C6 FF              6420 	add	a,#0xFF
   164E 4F                 6421 	ld	c,a
                           6422 ; genAssign (pointer)
                           6423 ; AOP_STK for _updateEnemies_sloc1_1_0
   164F 23                 6424 	inc	hl
   1650 5E                 6425 	ld	e,(hl)
   1651 23                 6426 	inc	hl
   1652 56                 6427 	ld	d,(hl)
   1653 79                 6428 	ld	a,c
   1654 12                 6429 	ld	(de),a
                           6430 ; genLabel
   1655                    6431 00149$:
                           6432 ;	ishallbequeen.c 893
                           6433 ; genAssign
                           6434 ; AOP_HL for _i
   1655 21 0B 00           6435 	ld	hl,#_i + 0
   1658 4E                 6436 	ld	c,(hl)
                           6437 ; genPlus
   1659 3E BE              6438 	ld	a,#<_eType
   165B 81                 6439 	add	a,c
   165C 5F                 6440 	ld	e,a
   165D 3E 00              6441 	ld	a,#>_eType
   165F CE 00              6442 	adc	a,#0x00
   1661 57                 6443 	ld	d,a
                           6444 ; genPointerGet
   1662 1A                 6445 	ld	a,(de)
   1663 4F                 6446 	ld	c,a
                           6447 ; genCmpEq
   1664 79                 6448 	ld	a,c ; 2
   1665 FE DC              6449 	cp	a,#0xDC
   1667 C2 6C 16           6450 	jp	nz,00246$
   166A 18 03              6451 	jr	00247$
   166C                    6452 00246$:
   166C C3 EA 16           6453 	jp	00159$
   166F                    6454 00247$:
                           6455 ;	ishallbequeen.c 894
                           6456 ; genAssign
                           6457 ; AOP_HL for _i
   166F 21 0B 00           6458 	ld	hl,#_i + 0
   1672 4E                 6459 	ld	c,(hl)
                           6460 ; genPlus
                           6461 ; AOP_STK for _updateEnemies_sloc1_1_0
   1673 3E AC              6462 	ld	a,#<_eX
   1675 81                 6463 	add	a,c
   1676 F8 01              6464 	lda	hl,1(sp)
   1678 77                 6465 	ld	(hl),a ; 3
   1679 3E 00              6466 	ld	a,#>_eX
   167B CE 00              6467 	adc	a,#0x00
   167D 23                 6468 	inc	hl
   167E 77                 6469 	ld	(hl),a ; 3
                           6470 ; genPointerGet
                           6471 ; AOP_STK for _updateEnemies_sloc1_1_0
                           6472 ; AOP_STK for _updateEnemies_sloc2_1_0
   167F 2B                 6473 	dec	hl
   1680 5E                 6474 	ld	e,(hl)
   1681 23                 6475 	inc	hl
   1682 56                 6476 	ld	d,(hl)
   1683 1A                 6477 	ld	a,(de)
   1684 2B                 6478 	dec	hl
   1685 2B                 6479 	dec	hl
   1686 77                 6480 	ld	(hl),a ; 3
                           6481 ; genMinus
                           6482 ; AOP_STK for _updateEnemies_sloc2_1_0
   1687 7E                 6483 	ld	a,(hl)
   1688 C6 FF              6484 	add	a,#0xFF
   168A 4F                 6485 	ld	c,a
                           6486 ; genAssign (pointer)
                           6487 ; AOP_STK for _updateEnemies_sloc1_1_0
   168B 23                 6488 	inc	hl
   168C 5E                 6489 	ld	e,(hl)
   168D 23                 6490 	inc	hl
   168E 56                 6491 	ld	d,(hl)
   168F 79                 6492 	ld	a,c
   1690 12                 6493 	ld	(de),a
                           6494 ;	ishallbequeen.c 895
                           6495 ; genAssign
                           6496 ; AOP_HL for _i
   1691 21 0B 00           6497 	ld	hl,#_i + 0
   1694 4E                 6498 	ld	c,(hl)
                           6499 ; genPlus
                           6500 ; AOP_STK for _updateEnemies_sloc1_1_0
   1695 3E B5              6501 	ld	a,#<_eState
   1697 81                 6502 	add	a,c
   1698 F8 01              6503 	lda	hl,1(sp)
   169A 77                 6504 	ld	(hl),a ; 3
   169B 3E 00              6505 	ld	a,#>_eState
   169D CE 00              6506 	adc	a,#0x00
   169F 23                 6507 	inc	hl
   16A0 77                 6508 	ld	(hl),a ; 3
                           6509 ; genPointerGet
                           6510 ; AOP_STK for _updateEnemies_sloc1_1_0
                           6511 ; AOP_STK for _updateEnemies_sloc2_1_0
   16A1 2B                 6512 	dec	hl
   16A2 5E                 6513 	ld	e,(hl)
   16A3 23                 6514 	inc	hl
   16A4 56                 6515 	ld	d,(hl)
   16A5 1A                 6516 	ld	a,(de)
   16A6 2B                 6517 	dec	hl
   16A7 2B                 6518 	dec	hl
   16A8 77                 6519 	ld	(hl),a ; 3
                           6520 ; genPlus
                           6521 ; AOP_STK for _updateEnemies_sloc2_1_0
                           6522 ; genPlusIncr
   16A9 7E                 6523 	ld	a,(hl)
   16AA C6 01              6524 	add	a,#0x01
   16AC 4F                 6525 	ld	c,a
                           6526 ; genAssign (pointer)
                           6527 ; AOP_STK for _updateEnemies_sloc1_1_0
   16AD 23                 6528 	inc	hl
   16AE 5E                 6529 	ld	e,(hl)
   16AF 23                 6530 	inc	hl
   16B0 56                 6531 	ld	d,(hl)
   16B1 79                 6532 	ld	a,c
   16B2 12                 6533 	ld	(de),a
                           6534 ; genGoto
   16B3 C3 EA 16           6535 	jp	00159$
                           6536 ; genLabel
   16B6                    6537 00155$:
                           6538 ;	ishallbequeen.c 899
                           6539 ; genAssign
                           6540 ; AOP_HL for _i
   16B6 21 0B 00           6541 	ld	hl,#_i + 0
   16B9 4E                 6542 	ld	c,(hl)
                           6543 ; genPlus
   16BA 3E B5              6544 	ld	a,#<_eState
   16BC 81                 6545 	add	a,c
   16BD 5F                 6546 	ld	e,a
   16BE 3E 00              6547 	ld	a,#>_eState
   16C0 CE 00              6548 	adc	a,#0x00
   16C2 57                 6549 	ld	d,a
                           6550 ; genPointerGet
   16C3 1A                 6551 	ld	a,(de)
   16C4 4F                 6552 	ld	c,a
                           6553 ; genCmpLt
   16C5 79                 6554 	ld	a,c
   16C6 FE 14              6555 	cp	#0x14
   16C8 D2 EA 16           6556 	jp	nc,00159$
                           6557 ;	ishallbequeen.c 900
                           6558 ; genAssign
                           6559 ; AOP_HL for _i
   16CB 4E                 6560 	ld	c,(hl)
                           6561 ; genPlus
                           6562 ; AOP_STK for _updateEnemies_sloc1_1_0
   16CC 3E AC              6563 	ld	a,#<_eX
   16CE 81                 6564 	add	a,c
   16CF F8 01              6565 	lda	hl,1(sp)
   16D1 77                 6566 	ld	(hl),a ; 3
   16D2 3E 00              6567 	ld	a,#>_eX
   16D4 CE 00              6568 	adc	a,#0x00
   16D6 23                 6569 	inc	hl
   16D7 77                 6570 	ld	(hl),a ; 3
                           6571 ; genPointerGet
                           6572 ; AOP_STK for _updateEnemies_sloc1_1_0
                           6573 ; AOP_STK for _updateEnemies_sloc2_1_0
   16D8 2B                 6574 	dec	hl
   16D9 5E                 6575 	ld	e,(hl)
   16DA 23                 6576 	inc	hl
   16DB 56                 6577 	ld	d,(hl)
   16DC 1A                 6578 	ld	a,(de)
   16DD 2B                 6579 	dec	hl
   16DE 2B                 6580 	dec	hl
   16DF 77                 6581 	ld	(hl),a ; 3
                           6582 ; genPlus
                           6583 ; AOP_STK for _updateEnemies_sloc2_1_0
                           6584 ; genPlusIncr
   16E0 7E                 6585 	ld	a,(hl)
   16E1 C6 01              6586 	add	a,#0x01
   16E3 4F                 6587 	ld	c,a
                           6588 ; genAssign (pointer)
                           6589 ; AOP_STK for _updateEnemies_sloc1_1_0
   16E4 23                 6590 	inc	hl
   16E5 5E                 6591 	ld	e,(hl)
   16E6 23                 6592 	inc	hl
   16E7 56                 6593 	ld	d,(hl)
   16E8 79                 6594 	ld	a,c
   16E9 12                 6595 	ld	(de),a
                           6596 ; genLabel
   16EA                    6597 00159$:
                           6598 ;	ishallbequeen.c 906
                           6599 ; genAssign
                           6600 ; AOP_HL for _i
   16EA 21 0B 00           6601 	ld	hl,#_i + 0
   16ED 4E                 6602 	ld	c,(hl)
                           6603 ; genPlus
   16EE 3E C4              6604 	ld	a,#<_eRealType
   16F0 81                 6605 	add	a,c
   16F1 5F                 6606 	ld	e,a
   16F2 3E 00              6607 	ld	a,#>_eRealType
   16F4 CE 00              6608 	adc	a,#0x00
   16F6 57                 6609 	ld	d,a
                           6610 ; genPointerGet
   16F7 1A                 6611 	ld	a,(de)
   16F8 4F                 6612 	ld	c,a
                           6613 ; genCmpEq
   16F9 79                 6614 	ld	a,c ; 2
   16FA FE 01              6615 	cp	a,#0x01
   16FC C2 01 17           6616 	jp	nz,00248$
   16FF 18 03              6617 	jr	00249$
   1701                    6618 00248$:
   1701 C3 82 17           6619 	jp	00171$
   1704                    6620 00249$:
                           6621 ;	ishallbequeen.c 907
                           6622 ; genAssign
                           6623 ; AOP_HL for _i
   1704 21 0B 00           6624 	ld	hl,#_i + 0
   1707 4E                 6625 	ld	c,(hl)
                           6626 ; genPlus
   1708 3E BE              6627 	ld	a,#<_eType
   170A 81                 6628 	add	a,c
   170B 5F                 6629 	ld	e,a
   170C 3E 00              6630 	ld	a,#>_eType
   170E CE 00              6631 	adc	a,#0x00
   1710 57                 6632 	ld	d,a
                           6633 ; genPointerGet
   1711 1A                 6634 	ld	a,(de)
   1712 4F                 6635 	ld	c,a
                           6636 ; genCmpLt
   1713 79                 6637 	ld	a,c
   1714 FE D8              6638 	cp	#0xD8
   1716 D2 FE 17           6639 	jp	nc,00174$
                           6640 ;	ishallbequeen.c 908
                           6641 ; genAssign
                           6642 ; AOP_HL for _i
   1719 4E                 6643 	ld	c,(hl)
                           6644 ; genPlus
   171A 3E AF              6645 	ld	a,#<_eY
   171C 81                 6646 	add	a,c
   171D 5F                 6647 	ld	e,a
   171E 3E 00              6648 	ld	a,#>_eY
   1720 CE 00              6649 	adc	a,#0x00
   1722 57                 6650 	ld	d,a
                           6651 ; genPointerGet
   1723 1A                 6652 	ld	a,(de)
   1724 4F                 6653 	ld	c,a
                           6654 ; genAssign
                           6655 ; AOP_HL for _i
   1725 46                 6656 	ld	b,(hl)
                           6657 ; genPlus
   1726 3E A9              6658 	ld	a,#<_eTargetY
   1728 80                 6659 	add	a,b
   1729 5F                 6660 	ld	e,a
   172A 3E 00              6661 	ld	a,#>_eTargetY
   172C CE 00              6662 	adc	a,#0x00
   172E 57                 6663 	ld	d,a
                           6664 ; genPointerGet
   172F 1A                 6665 	ld	a,(de)
   1730 47                 6666 	ld	b,a
                           6667 ; genPlus
                           6668 ; genPlusIncr
   1731 78                 6669 	ld	a,b
   1732 C6 0C              6670 	add	a,#0x0C
   1734 47                 6671 	ld	b,a
                           6672 ; genCmpLt
   1735 AF                 6673 	xor	a,a
   1736 79                 6674 	ld	a,c
   1737 98                 6675 	sbc	a,b ; 2
   1738 D2 5D 17           6676 	jp	nc,00161$
                           6677 ;	ishallbequeen.c 909
                           6678 ; genAssign
                           6679 ; AOP_HL for _i
   173B 4E                 6680 	ld	c,(hl)
                           6681 ; genPlus
                           6682 ; AOP_STK for _updateEnemies_sloc1_1_0
   173C 3E AF              6683 	ld	a,#<_eY
   173E 81                 6684 	add	a,c
   173F F8 01              6685 	lda	hl,1(sp)
   1741 77                 6686 	ld	(hl),a ; 3
   1742 3E 00              6687 	ld	a,#>_eY
   1744 CE 00              6688 	adc	a,#0x00
   1746 23                 6689 	inc	hl
   1747 77                 6690 	ld	(hl),a ; 3
                           6691 ; genPointerGet
                           6692 ; AOP_STK for _updateEnemies_sloc1_1_0
                           6693 ; AOP_STK for _updateEnemies_sloc2_1_0
   1748 2B                 6694 	dec	hl
   1749 5E                 6695 	ld	e,(hl)
   174A 23                 6696 	inc	hl
   174B 56                 6697 	ld	d,(hl)
   174C 1A                 6698 	ld	a,(de)
   174D 2B                 6699 	dec	hl
   174E 2B                 6700 	dec	hl
   174F 77                 6701 	ld	(hl),a ; 3
                           6702 ; genPlus
                           6703 ; AOP_STK for _updateEnemies_sloc2_1_0
                           6704 ; genPlusIncr
   1750 7E                 6705 	ld	a,(hl)
   1751 C6 01              6706 	add	a,#0x01
   1753 4F                 6707 	ld	c,a
                           6708 ; genAssign (pointer)
                           6709 ; AOP_STK for _updateEnemies_sloc1_1_0
   1754 23                 6710 	inc	hl
   1755 5E                 6711 	ld	e,(hl)
   1756 23                 6712 	inc	hl
   1757 56                 6713 	ld	d,(hl)
   1758 79                 6714 	ld	a,c
   1759 12                 6715 	ld	(de),a
                           6716 ; genGoto
   175A C3 FE 17           6717 	jp	00174$
                           6718 ; genLabel
   175D                    6719 00161$:
                           6720 ;	ishallbequeen.c 911
                           6721 ; genAssign
                           6722 ; AOP_HL for _i
   175D 21 0B 00           6723 	ld	hl,#_i + 0
   1760 4E                 6724 	ld	c,(hl)
                           6725 ; genPlus
                           6726 ; AOP_STK for _updateEnemies_sloc1_1_0
   1761 3E AF              6727 	ld	a,#<_eY
   1763 81                 6728 	add	a,c
   1764 F8 01              6729 	lda	hl,1(sp)
   1766 77                 6730 	ld	(hl),a ; 3
   1767 3E 00              6731 	ld	a,#>_eY
   1769 CE 00              6732 	adc	a,#0x00
   176B 23                 6733 	inc	hl
   176C 77                 6734 	ld	(hl),a ; 3
                           6735 ; genPointerGet
                           6736 ; AOP_STK for _updateEnemies_sloc1_1_0
                           6737 ; AOP_STK for _updateEnemies_sloc2_1_0
   176D 2B                 6738 	dec	hl
   176E 5E                 6739 	ld	e,(hl)
   176F 23                 6740 	inc	hl
   1770 56                 6741 	ld	d,(hl)
   1771 1A                 6742 	ld	a,(de)
   1772 2B                 6743 	dec	hl
   1773 2B                 6744 	dec	hl
   1774 77                 6745 	ld	(hl),a ; 3
                           6746 ; genMinus
                           6747 ; AOP_STK for _updateEnemies_sloc2_1_0
   1775 7E                 6748 	ld	a,(hl)
   1776 C6 FF              6749 	add	a,#0xFF
   1778 4F                 6750 	ld	c,a
                           6751 ; genAssign (pointer)
                           6752 ; AOP_STK for _updateEnemies_sloc1_1_0
   1779 23                 6753 	inc	hl
   177A 5E                 6754 	ld	e,(hl)
   177B 23                 6755 	inc	hl
   177C 56                 6756 	ld	d,(hl)
   177D 79                 6757 	ld	a,c
   177E 12                 6758 	ld	(de),a
                           6759 ; genGoto
   177F C3 FE 17           6760 	jp	00174$
                           6761 ; genLabel
   1782                    6762 00171$:
                           6763 ;	ishallbequeen.c 916
                           6764 ; genAssign
                           6765 ; AOP_HL for _i
   1782 21 0B 00           6766 	ld	hl,#_i + 0
   1785 4E                 6767 	ld	c,(hl)
                           6768 ; genPlus
   1786 3E B5              6769 	ld	a,#<_eState
   1788 81                 6770 	add	a,c
   1789 5F                 6771 	ld	e,a
   178A 3E 00              6772 	ld	a,#>_eState
   178C CE 00              6773 	adc	a,#0x00
   178E 57                 6774 	ld	d,a
                           6775 ; genPointerGet
   178F 1A                 6776 	ld	a,(de)
   1790 4F                 6777 	ld	c,a
                           6778 ; genCmpGt
   1791 AF                 6779 	xor	a,a
   1792 3E 14              6780 	ld	a,#0x14
   1794 99                 6781 	sbc	a,c ; 2
   1795 D2 FE 17           6782 	jp	nc,00174$
                           6783 ;	ishallbequeen.c 917
                           6784 ; genAssign
                           6785 ; AOP_HL for _i
   1798 4E                 6786 	ld	c,(hl)
                           6787 ; genPlus
   1799 3E AF              6788 	ld	a,#<_eY
   179B 81                 6789 	add	a,c
   179C 5F                 6790 	ld	e,a
   179D 3E 00              6791 	ld	a,#>_eY
   179F CE 00              6792 	adc	a,#0x00
   17A1 57                 6793 	ld	d,a
                           6794 ; genPointerGet
   17A2 1A                 6795 	ld	a,(de)
   17A3 4F                 6796 	ld	c,a
                           6797 ; genAssign
                           6798 ; AOP_HL for _i
   17A4 46                 6799 	ld	b,(hl)
                           6800 ; genPlus
   17A5 3E A9              6801 	ld	a,#<_eTargetY
   17A7 80                 6802 	add	a,b
   17A8 5F                 6803 	ld	e,a
   17A9 3E 00              6804 	ld	a,#>_eTargetY
   17AB CE 00              6805 	adc	a,#0x00
   17AD 57                 6806 	ld	d,a
                           6807 ; genPointerGet
   17AE 1A                 6808 	ld	a,(de)
   17AF 47                 6809 	ld	b,a
                           6810 ; genPlus
                           6811 ; genPlusIncr
   17B0 78                 6812 	ld	a,b
   17B1 C6 0C              6813 	add	a,#0x0C
   17B3 47                 6814 	ld	b,a
                           6815 ; genCmpLt
   17B4 AF                 6816 	xor	a,a
   17B5 79                 6817 	ld	a,c
   17B6 98                 6818 	sbc	a,b ; 2
   17B7 D2 DC 17           6819 	jp	nc,00166$
                           6820 ;	ishallbequeen.c 918
                           6821 ; genAssign
                           6822 ; AOP_HL for _i
   17BA 4E                 6823 	ld	c,(hl)
                           6824 ; genPlus
                           6825 ; AOP_STK for _updateEnemies_sloc1_1_0
   17BB 3E AF              6826 	ld	a,#<_eY
   17BD 81                 6827 	add	a,c
   17BE F8 01              6828 	lda	hl,1(sp)
   17C0 77                 6829 	ld	(hl),a ; 3
   17C1 3E 00              6830 	ld	a,#>_eY
   17C3 CE 00              6831 	adc	a,#0x00
   17C5 23                 6832 	inc	hl
   17C6 77                 6833 	ld	(hl),a ; 3
                           6834 ; genPointerGet
                           6835 ; AOP_STK for _updateEnemies_sloc1_1_0
                           6836 ; AOP_STK for _updateEnemies_sloc2_1_0
   17C7 2B                 6837 	dec	hl
   17C8 5E                 6838 	ld	e,(hl)
   17C9 23                 6839 	inc	hl
   17CA 56                 6840 	ld	d,(hl)
   17CB 1A                 6841 	ld	a,(de)
   17CC 2B                 6842 	dec	hl
   17CD 2B                 6843 	dec	hl
   17CE 77                 6844 	ld	(hl),a ; 3
                           6845 ; genPlus
                           6846 ; AOP_STK for _updateEnemies_sloc2_1_0
                           6847 ; genPlusIncr
   17CF 7E                 6848 	ld	a,(hl)
   17D0 C6 01              6849 	add	a,#0x01
   17D2 4F                 6850 	ld	c,a
                           6851 ; genAssign (pointer)
                           6852 ; AOP_STK for _updateEnemies_sloc1_1_0
   17D3 23                 6853 	inc	hl
   17D4 5E                 6854 	ld	e,(hl)
   17D5 23                 6855 	inc	hl
   17D6 56                 6856 	ld	d,(hl)
   17D7 79                 6857 	ld	a,c
   17D8 12                 6858 	ld	(de),a
                           6859 ; genGoto
   17D9 C3 FE 17           6860 	jp	00174$
                           6861 ; genLabel
   17DC                    6862 00166$:
                           6863 ;	ishallbequeen.c 920
                           6864 ; genAssign
                           6865 ; AOP_HL for _i
   17DC 21 0B 00           6866 	ld	hl,#_i + 0
   17DF 4E                 6867 	ld	c,(hl)
                           6868 ; genPlus
                           6869 ; AOP_STK for _updateEnemies_sloc1_1_0
   17E0 3E AF              6870 	ld	a,#<_eY
   17E2 81                 6871 	add	a,c
   17E3 F8 01              6872 	lda	hl,1(sp)
   17E5 77                 6873 	ld	(hl),a ; 3
   17E6 3E 00              6874 	ld	a,#>_eY
   17E8 CE 00              6875 	adc	a,#0x00
   17EA 23                 6876 	inc	hl
   17EB 77                 6877 	ld	(hl),a ; 3
                           6878 ; genPointerGet
                           6879 ; AOP_STK for _updateEnemies_sloc1_1_0
                           6880 ; AOP_STK for _updateEnemies_sloc2_1_0
   17EC 2B                 6881 	dec	hl
   17ED 5E                 6882 	ld	e,(hl)
   17EE 23                 6883 	inc	hl
   17EF 56                 6884 	ld	d,(hl)
   17F0 1A                 6885 	ld	a,(de)
   17F1 2B                 6886 	dec	hl
   17F2 2B                 6887 	dec	hl
   17F3 77                 6888 	ld	(hl),a ; 3
                           6889 ; genMinus
                           6890 ; AOP_STK for _updateEnemies_sloc2_1_0
   17F4 7E                 6891 	ld	a,(hl)
   17F5 C6 FF              6892 	add	a,#0xFF
   17F7 4F                 6893 	ld	c,a
                           6894 ; genAssign (pointer)
                           6895 ; AOP_STK for _updateEnemies_sloc1_1_0
   17F8 23                 6896 	inc	hl
   17F9 5E                 6897 	ld	e,(hl)
   17FA 23                 6898 	inc	hl
   17FB 56                 6899 	ld	d,(hl)
   17FC 79                 6900 	ld	a,c
   17FD 12                 6901 	ld	(de),a
                           6902 ; genLabel
   17FE                    6903 00174$:
                           6904 ;	ishallbequeen.c 928
                           6905 ; genAssign
                           6906 ; AOP_HL for _i
   17FE 21 0B 00           6907 	ld	hl,#_i + 0
   1801 4E                 6908 	ld	c,(hl)
                           6909 ; genPlus
   1802 3E AF              6910 	ld	a,#<_eY
   1804 81                 6911 	add	a,c
   1805 5F                 6912 	ld	e,a
   1806 3E 00              6913 	ld	a,#>_eY
   1808 CE 00              6914 	adc	a,#0x00
   180A 57                 6915 	ld	d,a
                           6916 ; genPointerGet
                           6917 ; AOP_STK for _updateEnemies_sloc1_1_0
   180B 1A                 6918 	ld	a,(de)
   180C F8 01              6919 	lda	hl,1(sp)
   180E 77                 6920 	ld	(hl),a ; 3
                           6921 ; genAssign
                           6922 ; AOP_HL for _i
   180F 21 0B 00           6923 	ld	hl,#_i + 0
   1812 46                 6924 	ld	b,(hl)
                           6925 ; genPlus
   1813 3E AC              6926 	ld	a,#<_eX
   1815 80                 6927 	add	a,b
   1816 5F                 6928 	ld	e,a
   1817 3E 00              6929 	ld	a,#>_eX
   1819 CE 00              6930 	adc	a,#0x00
   181B 57                 6931 	ld	d,a
                           6932 ; genPointerGet
                           6933 ; AOP_STK for _updateEnemies_sloc2_1_0
   181C 1A                 6934 	ld	a,(de)
   181D F8 00              6935 	lda	hl,0(sp)
   181F 77                 6936 	ld	(hl),a ; 3
                           6937 ; genLeftShift
                           6938 ; AOP_HL for _i
   1820 21 0B 00           6939 	ld	hl,#_i + 0
   1823 7E                 6940 	ld	a,(hl)
   1824 87                 6941 	add	a,a
   1825 87                 6942 	add	a,a
   1826 47                 6943 	ld	b,a
                           6944 ; genPlus
                           6945 ; genPlusIncr
   1827 78                 6946 	ld	a,b
   1828 C6 12              6947 	add	a,#0x12
   182A 4F                 6948 	ld	c,a
                           6949 ; genIpush
                           6950 ; AOP_STK for _updateEnemies_sloc1_1_0
   182B F8 01              6951 	lda	hl,1(sp)
   182D 7E                 6952 	ld	a,(hl)
   182E F5                 6953 	push	af
   182F 33                 6954 	inc	sp
                           6955 ; genIpush
                           6956 ; AOP_STK for _updateEnemies_sloc2_1_0
   1830 2B                 6957 	dec	hl
   1831 7E                 6958 	ld	a,(hl)
   1832 F5                 6959 	push	af
   1833 33                 6960 	inc	sp
                           6961 ; genIpush
   1834 79                 6962 	ld	a,c
   1835 F5                 6963 	push	af
   1836 33                 6964 	inc	sp
                           6965 ; genCall
   1837 CD 00 00           6966 	call	_move_sprite
   183A E8 03              6967 	lda	sp,3(sp)
                           6968 ;	ishallbequeen.c 929
                           6969 ; genAssign
                           6970 ; AOP_HL for _i
   183C 21 0B 00           6971 	ld	hl,#_i + 0
   183F 4E                 6972 	ld	c,(hl)
                           6973 ; genPlus
   1840 3E AF              6974 	ld	a,#<_eY
   1842 81                 6975 	add	a,c
   1843 5F                 6976 	ld	e,a
   1844 3E 00              6977 	ld	a,#>_eY
   1846 CE 00              6978 	adc	a,#0x00
   1848 57                 6979 	ld	d,a
                           6980 ; genPointerGet
                           6981 ; AOP_STK for _updateEnemies_sloc2_1_0
   1849 1A                 6982 	ld	a,(de)
   184A F8 00              6983 	lda	hl,0(sp)
   184C 77                 6984 	ld	(hl),a ; 3
                           6985 ; genAssign
                           6986 ; AOP_HL for _i
   184D 21 0B 00           6987 	ld	hl,#_i + 0
   1850 4E                 6988 	ld	c,(hl)
                           6989 ; genPlus
   1851 3E AC              6990 	ld	a,#<_eX
   1853 81                 6991 	add	a,c
   1854 5F                 6992 	ld	e,a
   1855 3E 00              6993 	ld	a,#>_eX
   1857 CE 00              6994 	adc	a,#0x00
   1859 57                 6995 	ld	d,a
                           6996 ; genPointerGet
   185A 1A                 6997 	ld	a,(de)
   185B 4F                 6998 	ld	c,a
                           6999 ; genPlus
                           7000 ; AOP_STK for _updateEnemies_sloc1_1_0
                           7001 ; genPlusIncr
   185C 79                 7002 	ld	a,c
   185D C6 08              7003 	add	a,#0x08
   185F F8 01              7004 	lda	hl,1(sp)
   1861 77                 7005 	ld	(hl),a ; 3
                           7006 ; genPlus
                           7007 ; genPlusIncr
   1862 78                 7008 	ld	a,b
   1863 C6 13              7009 	add	a,#0x13
   1865 4F                 7010 	ld	c,a
                           7011 ; genIpush
                           7012 ; AOP_STK for _updateEnemies_sloc2_1_0
   1866 2B                 7013 	dec	hl
   1867 7E                 7014 	ld	a,(hl)
   1868 F5                 7015 	push	af
   1869 33                 7016 	inc	sp
                           7017 ; genIpush
                           7018 ; AOP_STK for _updateEnemies_sloc1_1_0
   186A 23                 7019 	inc	hl
   186B 7E                 7020 	ld	a,(hl)
   186C F5                 7021 	push	af
   186D 33                 7022 	inc	sp
                           7023 ; genIpush
   186E 79                 7024 	ld	a,c
   186F F5                 7025 	push	af
   1870 33                 7026 	inc	sp
                           7027 ; genCall
   1871 CD 00 00           7028 	call	_move_sprite
   1874 E8 03              7029 	lda	sp,3(sp)
                           7030 ;	ishallbequeen.c 930
                           7031 ; genAssign
                           7032 ; AOP_HL for _i
   1876 21 0B 00           7033 	ld	hl,#_i + 0
   1879 4E                 7034 	ld	c,(hl)
                           7035 ; genPlus
   187A 3E AF              7036 	ld	a,#<_eY
   187C 81                 7037 	add	a,c
   187D 5F                 7038 	ld	e,a
   187E 3E 00              7039 	ld	a,#>_eY
   1880 CE 00              7040 	adc	a,#0x00
   1882 57                 7041 	ld	d,a
                           7042 ; genPointerGet
   1883 1A                 7043 	ld	a,(de)
   1884 4F                 7044 	ld	c,a
                           7045 ; genPlus
                           7046 ; AOP_STK for _updateEnemies_sloc2_1_0
                           7047 ; genPlusIncr
   1885 79                 7048 	ld	a,c
   1886 C6 08              7049 	add	a,#0x08
   1888 F8 00              7050 	lda	hl,0(sp)
   188A 77                 7051 	ld	(hl),a ; 3
                           7052 ; genAssign
                           7053 ; AOP_HL for _i
   188B 21 0B 00           7054 	ld	hl,#_i + 0
   188E 4E                 7055 	ld	c,(hl)
                           7056 ; genPlus
   188F 3E AC              7057 	ld	a,#<_eX
   1891 81                 7058 	add	a,c
   1892 5F                 7059 	ld	e,a
   1893 3E 00              7060 	ld	a,#>_eX
   1895 CE 00              7061 	adc	a,#0x00
   1897 57                 7062 	ld	d,a
                           7063 ; genPointerGet
                           7064 ; AOP_STK for _updateEnemies_sloc1_1_0
   1898 1A                 7065 	ld	a,(de)
   1899 F8 01              7066 	lda	hl,1(sp)
   189B 77                 7067 	ld	(hl),a ; 3
                           7068 ; genPlus
                           7069 ; genPlusIncr
   189C 78                 7070 	ld	a,b
   189D C6 14              7071 	add	a,#0x14
   189F 4F                 7072 	ld	c,a
                           7073 ; genIpush
                           7074 ; AOP_STK for _updateEnemies_sloc2_1_0
   18A0 2B                 7075 	dec	hl
   18A1 7E                 7076 	ld	a,(hl)
   18A2 F5                 7077 	push	af
   18A3 33                 7078 	inc	sp
                           7079 ; genIpush
                           7080 ; AOP_STK for _updateEnemies_sloc1_1_0
   18A4 23                 7081 	inc	hl
   18A5 7E                 7082 	ld	a,(hl)
   18A6 F5                 7083 	push	af
   18A7 33                 7084 	inc	sp
                           7085 ; genIpush
   18A8 79                 7086 	ld	a,c
   18A9 F5                 7087 	push	af
   18AA 33                 7088 	inc	sp
                           7089 ; genCall
   18AB CD 00 00           7090 	call	_move_sprite
   18AE E8 03              7091 	lda	sp,3(sp)
                           7092 ;	ishallbequeen.c 931
                           7093 ; genAssign
                           7094 ; AOP_HL for _i
   18B0 21 0B 00           7095 	ld	hl,#_i + 0
   18B3 4E                 7096 	ld	c,(hl)
                           7097 ; genPlus
   18B4 3E AF              7098 	ld	a,#<_eY
   18B6 81                 7099 	add	a,c
   18B7 5F                 7100 	ld	e,a
   18B8 3E 00              7101 	ld	a,#>_eY
   18BA CE 00              7102 	adc	a,#0x00
   18BC 57                 7103 	ld	d,a
                           7104 ; genPointerGet
   18BD 1A                 7105 	ld	a,(de)
   18BE 4F                 7106 	ld	c,a
                           7107 ; genPlus
                           7108 ; AOP_STK for _updateEnemies_sloc2_1_0
                           7109 ; genPlusIncr
   18BF 79                 7110 	ld	a,c
   18C0 C6 08              7111 	add	a,#0x08
   18C2 F8 00              7112 	lda	hl,0(sp)
   18C4 77                 7113 	ld	(hl),a ; 3
                           7114 ; genAssign
                           7115 ; AOP_HL for _i
   18C5 21 0B 00           7116 	ld	hl,#_i + 0
   18C8 4E                 7117 	ld	c,(hl)
                           7118 ; genPlus
   18C9 3E AC              7119 	ld	a,#<_eX
   18CB 81                 7120 	add	a,c
   18CC 5F                 7121 	ld	e,a
   18CD 3E 00              7122 	ld	a,#>_eX
   18CF CE 00              7123 	adc	a,#0x00
   18D1 57                 7124 	ld	d,a
                           7125 ; genPointerGet
   18D2 1A                 7126 	ld	a,(de)
   18D3 4F                 7127 	ld	c,a
                           7128 ; genPlus
                           7129 ; genPlusIncr
   18D4 79                 7130 	ld	a,c
   18D5 C6 08              7131 	add	a,#0x08
   18D7 4F                 7132 	ld	c,a
                           7133 ; genPlus
                           7134 ; genPlusIncr
   18D8 78                 7135 	ld	a,b
   18D9 C6 15              7136 	add	a,#0x15
   18DB 47                 7137 	ld	b,a
                           7138 ; genIpush
                           7139 ; AOP_STK for _updateEnemies_sloc2_1_0
   18DC F8 00              7140 	lda	hl,0(sp)
   18DE 7E                 7141 	ld	a,(hl)
   18DF F5                 7142 	push	af
   18E0 33                 7143 	inc	sp
                           7144 ; genIpush
   18E1 79                 7145 	ld	a,c
   18E2 F5                 7146 	push	af
   18E3 33                 7147 	inc	sp
                           7148 ; genIpush
   18E4 78                 7149 	ld	a,b
   18E5 F5                 7150 	push	af
   18E6 33                 7151 	inc	sp
                           7152 ; genCall
   18E7 CD 00 00           7153 	call	_move_sprite
   18EA E8 03              7154 	lda	sp,3(sp)
                           7155 ;	ishallbequeen.c 932
                           7156 ; genGoto
   18EC C3 16 1A           7157 	jp	00184$
                           7158 ;	ishallbequeen.c 938
                           7159 ; genLabel
   18EF                    7160 00175$:
                           7161 ; genLeftShift
                           7162 ; AOP_HL for _i
                           7163 ; AOP_HL for _j
   18EF 21 0B 00           7164 	ld	hl,#_i + 0
   18F2 7E                 7165 	ld	a,(hl)
   18F3 87                 7166 	add	a,a
   18F4 87                 7167 	add	a,a
   18F5 21 0C 00           7168 	ld	hl,#_j + 0
   18F8 77                 7169 	ld	(hl),a
                           7170 ;	ishallbequeen.c 939
                           7171 ; genAssign
                           7172 ; AOP_HL for _i
   18F9 21 0B 00           7173 	ld	hl,#_i + 0
   18FC 4E                 7174 	ld	c,(hl)
                           7175 ; genPlus
                           7176 ; AOP_STK for _updateEnemies_sloc1_1_0
   18FD 3E AC              7177 	ld	a,#<_eX
   18FF 81                 7178 	add	a,c
   1900 F8 01              7179 	lda	hl,1(sp)
   1902 77                 7180 	ld	(hl),a ; 3
   1903 3E 00              7181 	ld	a,#>_eX
   1905 CE 00              7182 	adc	a,#0x00
   1907 23                 7183 	inc	hl
   1908 77                 7184 	ld	(hl),a ; 3
                           7185 ; genAssign
                           7186 ; AOP_HL for _i
   1909 21 0B 00           7187 	ld	hl,#_i + 0
   190C 4E                 7188 	ld	c,(hl)
                           7189 ; genPlus
   190D 3E AC              7190 	ld	a,#<_eX
   190F 81                 7191 	add	a,c
   1910 5F                 7192 	ld	e,a
   1911 3E 00              7193 	ld	a,#>_eX
   1913 CE 00              7194 	adc	a,#0x00
   1915 57                 7195 	ld	d,a
                           7196 ; genPointerGet
   1916 1A                 7197 	ld	a,(de)
   1917 4F                 7198 	ld	c,a
                           7199 ; genMinus
   1918 79                 7200 	ld	a,c
   1919 C6 FD              7201 	add	a,#0xFD
   191B 4F                 7202 	ld	c,a
                           7203 ; genAssign (pointer)
                           7204 ; AOP_STK for _updateEnemies_sloc1_1_0
   191C F8 01              7205 	lda	hl,1(sp)
   191E 5E                 7206 	ld	e,(hl)
   191F 23                 7207 	inc	hl
   1920 56                 7208 	ld	d,(hl)
   1921 79                 7209 	ld	a,c
   1922 12                 7210 	ld	(de),a
                           7211 ;	ishallbequeen.c 940
                           7212 ; genAssign
                           7213 ; AOP_HL for _i
   1923 21 0B 00           7214 	ld	hl,#_i + 0
   1926 4E                 7215 	ld	c,(hl)
                           7216 ; genPlus
   1927 3E BE              7217 	ld	a,#<_eType
   1929 81                 7218 	add	a,c
   192A 5F                 7219 	ld	e,a
   192B 3E 00              7220 	ld	a,#>_eType
   192D CE 00              7221 	adc	a,#0x00
   192F 57                 7222 	ld	d,a
                           7223 ; genAssign (pointer)
   1930 3E B4              7224 	ld	a,#0xB4
   1932 12                 7225 	ld	(de),a
                           7226 ;	ishallbequeen.c 942
                           7227 ; genAssign
                           7228 ; AOP_HL for _i
   1933 4E                 7229 	ld	c,(hl)
                           7230 ; genPlus
   1934 3E BE              7231 	ld	a,#<_eType
   1936 81                 7232 	add	a,c
   1937 5F                 7233 	ld	e,a
   1938 3E 00              7234 	ld	a,#>_eType
   193A CE 00              7235 	adc	a,#0x00
   193C 57                 7236 	ld	d,a
                           7237 ; genPointerGet
   193D 1A                 7238 	ld	a,(de)
   193E 4F                 7239 	ld	c,a
                           7240 ; genPlus
                           7241 ; AOP_HL for _j
                           7242 ; genPlusIncr
   193F 21 0C 00           7243 	ld	hl,#_j + 0
   1942 7E                 7244 	ld	a,(hl)
   1943 C6 12              7245 	add	a,#0x12
   1945 47                 7246 	ld	b,a
                           7247 ; genIpush
   1946 79                 7248 	ld	a,c
   1947 F5                 7249 	push	af
   1948 33                 7250 	inc	sp
                           7251 ; genIpush
   1949 78                 7252 	ld	a,b
   194A F5                 7253 	push	af
   194B 33                 7254 	inc	sp
                           7255 ; genCall
   194C CD 00 00           7256 	call	_set_sprite_tile
   194F E8 02              7257 	lda	sp,2(sp)
                           7258 ;	ishallbequeen.c 943
                           7259 ; genAssign
                           7260 ; AOP_HL for _i
   1951 21 0B 00           7261 	ld	hl,#_i + 0
   1954 4E                 7262 	ld	c,(hl)
                           7263 ; genPlus
   1955 3E BE              7264 	ld	a,#<_eType
   1957 81                 7265 	add	a,c
   1958 5F                 7266 	ld	e,a
   1959 3E 00              7267 	ld	a,#>_eType
   195B CE 00              7268 	adc	a,#0x00
   195D 57                 7269 	ld	d,a
                           7270 ; genPointerGet
   195E 1A                 7271 	ld	a,(de)
   195F 4F                 7272 	ld	c,a
                           7273 ; genPlus
                           7274 ; genPlusIncr
   1960 0C                 7275 	inc	c
                           7276 ; genPlus
                           7277 ; AOP_HL for _j
                           7278 ; genPlusIncr
   1961 21 0C 00           7279 	ld	hl,#_j + 0
   1964 7E                 7280 	ld	a,(hl)
   1965 C6 13              7281 	add	a,#0x13
   1967 47                 7282 	ld	b,a
                           7283 ; genIpush
   1968 79                 7284 	ld	a,c
   1969 F5                 7285 	push	af
   196A 33                 7286 	inc	sp
                           7287 ; genIpush
   196B 78                 7288 	ld	a,b
   196C F5                 7289 	push	af
   196D 33                 7290 	inc	sp
                           7291 ; genCall
   196E CD 00 00           7292 	call	_set_sprite_tile
   1971 E8 02              7293 	lda	sp,2(sp)
                           7294 ;	ishallbequeen.c 944
                           7295 ; genAssign
                           7296 ; AOP_HL for _i
   1973 21 0B 00           7297 	ld	hl,#_i + 0
   1976 4E                 7298 	ld	c,(hl)
                           7299 ; genPlus
   1977 3E BE              7300 	ld	a,#<_eType
   1979 81                 7301 	add	a,c
   197A 5F                 7302 	ld	e,a
   197B 3E 00              7303 	ld	a,#>_eType
   197D CE 00              7304 	adc	a,#0x00
   197F 57                 7305 	ld	d,a
                           7306 ; genPointerGet
   1980 1A                 7307 	ld	a,(de)
   1981 4F                 7308 	ld	c,a
                           7309 ; genPlus
                           7310 ; genPlusIncr
   1982 0C                 7311 	inc	c
   1983 0C                 7312 	inc	c
                           7313 ; genPlus
                           7314 ; AOP_HL for _j
                           7315 ; genPlusIncr
   1984 21 0C 00           7316 	ld	hl,#_j + 0
   1987 7E                 7317 	ld	a,(hl)
   1988 C6 14              7318 	add	a,#0x14
   198A 47                 7319 	ld	b,a
                           7320 ; genIpush
   198B 79                 7321 	ld	a,c
   198C F5                 7322 	push	af
   198D 33                 7323 	inc	sp
                           7324 ; genIpush
   198E 78                 7325 	ld	a,b
   198F F5                 7326 	push	af
   1990 33                 7327 	inc	sp
                           7328 ; genCall
   1991 CD 00 00           7329 	call	_set_sprite_tile
   1994 E8 02              7330 	lda	sp,2(sp)
                           7331 ;	ishallbequeen.c 945
                           7332 ; genAssign
                           7333 ; AOP_HL for _i
   1996 21 0B 00           7334 	ld	hl,#_i + 0
   1999 4E                 7335 	ld	c,(hl)
                           7336 ; genPlus
   199A 3E BE              7337 	ld	a,#<_eType
   199C 81                 7338 	add	a,c
   199D 5F                 7339 	ld	e,a
   199E 3E 00              7340 	ld	a,#>_eType
   19A0 CE 00              7341 	adc	a,#0x00
   19A2 57                 7342 	ld	d,a
                           7343 ; genPointerGet
   19A3 1A                 7344 	ld	a,(de)
   19A4 4F                 7345 	ld	c,a
                           7346 ; genPlus
                           7347 ; genPlusIncr
   19A5 0C                 7348 	inc	c
   19A6 0C                 7349 	inc	c
   19A7 0C                 7350 	inc	c
                           7351 ; genPlus
                           7352 ; AOP_HL for _j
                           7353 ; genPlusIncr
   19A8 21 0C 00           7354 	ld	hl,#_j + 0
   19AB 7E                 7355 	ld	a,(hl)
   19AC C6 15              7356 	add	a,#0x15
   19AE 47                 7357 	ld	b,a
                           7358 ; genIpush
   19AF 79                 7359 	ld	a,c
   19B0 F5                 7360 	push	af
   19B1 33                 7361 	inc	sp
                           7362 ; genIpush
   19B2 78                 7363 	ld	a,b
   19B3 F5                 7364 	push	af
   19B4 33                 7365 	inc	sp
                           7366 ; genCall
   19B5 CD 00 00           7367 	call	_set_sprite_tile
   19B8 E8 02              7368 	lda	sp,2(sp)
                           7369 ;	ishallbequeen.c 947
                           7370 ; genIpush
   19BA 3E 12              7371 	ld	a,#0x12
   19BC F5                 7372 	push	af
   19BD 33                 7373 	inc	sp
                           7374 ; genCall
   19BE CD 00 00           7375 	call	_get_sprite_prop
                           7376 ; AOP_HL for _tempVal
   19C1 21 11 00           7377 	ld	hl,#_tempVal + 0
   19C4 73                 7378 	ld	(hl),e
   19C5 E8 01              7379 	lda	sp,1(sp)
                           7380 ;	ishallbequeen.c 949
                           7381 ; genCmpGt
                           7382 ; AOP_HL for _tempVal
   19C7 AF                 7383 	xor	a,a
   19C8 3E 20              7384 	ld	a,#0x20
   19CA 9E                 7385 	sbc	a,(hl) ; 2
   19CB D2 D2 19           7386 	jp	nc,00177$
                           7387 ; genMinus
                           7388 ; AOP_HL for _tempVal
   19CE 7E                 7389 	ld	a,(hl)
   19CF C6 E0              7390 	add	a,#0xE0
   19D1 77                 7391 	ld	(hl),a
                           7392 ; genLabel
   19D2                    7393 00177$:
                           7394 ;	ishallbequeen.c 951
                           7395 ; genCall
   19D2 CD 16 1B           7396 	call	_setProps
                           7397 ;	ishallbequeen.c 952
                           7398 ; genCall
   19D5 CD 21 1A           7399 	call	_moveEnemySprites
                           7400 ;	ishallbequeen.c 954
                           7401 ; genAssign
                           7402 ; AOP_HL for _i
   19D8 21 0B 00           7403 	ld	hl,#_i + 0
   19DB 4E                 7404 	ld	c,(hl)
                           7405 ; genPlus
   19DC 3E AC              7406 	ld	a,#<_eX
   19DE 81                 7407 	add	a,c
   19DF 5F                 7408 	ld	e,a
   19E0 3E 00              7409 	ld	a,#>_eX
   19E2 CE 00              7410 	adc	a,#0x00
   19E4 57                 7411 	ld	d,a
                           7412 ; genPointerGet
   19E5 1A                 7413 	ld	a,(de)
   19E6 4F                 7414 	ld	c,a
                           7415 ; genCmpEq
   19E7 79                 7416 	ld	a,c ; 2
   19E8 FE B4              7417 	cp	a,#0xB4
                           7418 ; Rule 5
   19EA CA 07 1A           7419 	jp	z,00178$
   19ED                    7420 00250$:
                           7421 ; genAssign
                           7422 ; AOP_HL for _i
   19ED 21 0B 00           7423 	ld	hl,#_i + 0
   19F0 4E                 7424 	ld	c,(hl)
                           7425 ; genPlus
   19F1 3E AC              7426 	ld	a,#<_eX
   19F3 81                 7427 	add	a,c
   19F4 5F                 7428 	ld	e,a
   19F5 3E 00              7429 	ld	a,#>_eX
   19F7 CE 00              7430 	adc	a,#0x00
   19F9 57                 7431 	ld	d,a
                           7432 ; genPointerGet
   19FA 1A                 7433 	ld	a,(de)
   19FB 4F                 7434 	ld	c,a
                           7435 ; genCmpEq
   19FC 79                 7436 	ld	a,c ; 2
   19FD FE B5              7437 	cp	a,#0xB5
   19FF C2 04 1A           7438 	jp	nz,00251$
   1A02 18 03              7439 	jr	00252$
   1A04                    7440 00251$:
   1A04 C3 16 1A           7441 	jp	00184$
   1A07                    7442 00252$:
                           7443 ; genLabel
   1A07                    7444 00178$:
                           7445 ;	ishallbequeen.c 955
                           7446 ; genAssign
                           7447 ; AOP_HL for _i
                           7448 ; AOP_HL for _eHitIndex
   1A07 21 0B 00           7449 	ld	hl,#_i + 0
   1A0A 7E                 7450 	ld	a,(hl)
   1A0B 21 8A 00           7451 	ld	hl,#_eHitIndex + 0
   1A0E 77                 7452 	ld	(hl),a
                           7453 ;	ishallbequeen.c 956
                           7454 ; genCall
   1A0F CD 77 29           7455 	call	_destroyEnemy
                           7456 ;	ishallbequeen.c 957
                           7457 ; genPlus
                           7458 ; AOP_HL for _enemiesRemaining
                           7459 ; genPlusIncr
   1A12 21 A5 00           7460 	ld	hl,#_enemiesRemaining + 0
   1A15 34                 7461 	inc	(hl)
                           7462 ;	ishallbequeen.c 961
                           7463 ; genLabel
   1A16                    7464 00184$:
                           7465 ;	ishallbequeen.c 752
                           7466 ; genPlus
                           7467 ; AOP_HL for _i
                           7468 ; genPlusIncr
   1A16 21 0B 00           7469 	ld	hl,#_i + 0
   1A19 34                 7470 	inc	(hl)
                           7471 ; genGoto
   1A1A C3 10 10           7472 	jp	00182$
                           7473 ; genLabel
   1A1D                    7474 00186$:
                           7475 ; genEndFunction
   1A1D E8 04              7476 	lda	sp,4(sp)
   1A1F C1                 7477 	pop bc
   1A20 C9                 7478 	ret
   1A21                    7479 ___updateEnemies_end:
                           7480 ;	ishallbequeen.c 967
                           7481 ; genLabel
                           7482 ; genFunction
                           7483 ;	---------------------------------
                           7484 ; Function moveEnemySprites
                           7485 ; ---------------------------------
   1A21                    7486 ___moveEnemySprites_start:
   1A21                    7487 _moveEnemySprites:
   1A21 C5                 7488 	push	bc
   1A22 E8 FE              7489 	lda sp,-2(sp)
                           7490 ;	ishallbequeen.c 968
                           7491 ; genAssign
                           7492 ; AOP_HL for _i
   1A24 21 0B 00           7493 	ld	hl,#_i + 0
   1A27 4E                 7494 	ld	c,(hl)
                           7495 ; genPlus
   1A28 3E AF              7496 	ld	a,#<_eY
   1A2A 81                 7497 	add	a,c
   1A2B 5F                 7498 	ld	e,a
   1A2C 3E 00              7499 	ld	a,#>_eY
   1A2E CE 00              7500 	adc	a,#0x00
   1A30 57                 7501 	ld	d,a
                           7502 ; genPointerGet
                           7503 ; AOP_STK for _moveEnemySprites_sloc1_1_0
   1A31 1A                 7504 	ld	a,(de)
   1A32 F8 00              7505 	lda	hl,0(sp)
   1A34 77                 7506 	ld	(hl),a ; 3
                           7507 ; genAssign
                           7508 ; AOP_HL for _i
   1A35 21 0B 00           7509 	ld	hl,#_i + 0
   1A38 46                 7510 	ld	b,(hl)
                           7511 ; genPlus
   1A39 3E AC              7512 	ld	a,#<_eX
   1A3B 80                 7513 	add	a,b
   1A3C 5F                 7514 	ld	e,a
   1A3D 3E 00              7515 	ld	a,#>_eX
   1A3F CE 00              7516 	adc	a,#0x00
   1A41 57                 7517 	ld	d,a
                           7518 ; genPointerGet
                           7519 ; AOP_STK for _moveEnemySprites_sloc0_1_0
   1A42 1A                 7520 	ld	a,(de)
   1A43 F8 01              7521 	lda	hl,1(sp)
   1A45 77                 7522 	ld	(hl),a ; 3
                           7523 ; genLeftShift
                           7524 ; AOP_HL for _i
   1A46 21 0B 00           7525 	ld	hl,#_i + 0
   1A49 7E                 7526 	ld	a,(hl)
   1A4A 87                 7527 	add	a,a
   1A4B 87                 7528 	add	a,a
   1A4C 47                 7529 	ld	b,a
                           7530 ; genPlus
                           7531 ; genPlusIncr
   1A4D 78                 7532 	ld	a,b
   1A4E C6 12              7533 	add	a,#0x12
   1A50 4F                 7534 	ld	c,a
                           7535 ; genIpush
                           7536 ; AOP_STK for _moveEnemySprites_sloc1_1_0
   1A51 F8 00              7537 	lda	hl,0(sp)
   1A53 7E                 7538 	ld	a,(hl)
   1A54 F5                 7539 	push	af
   1A55 33                 7540 	inc	sp
                           7541 ; genIpush
                           7542 ; AOP_STK for _moveEnemySprites_sloc0_1_0
   1A56 23                 7543 	inc	hl
   1A57 7E                 7544 	ld	a,(hl)
   1A58 F5                 7545 	push	af
   1A59 33                 7546 	inc	sp
                           7547 ; genIpush
   1A5A 79                 7548 	ld	a,c
   1A5B F5                 7549 	push	af
   1A5C 33                 7550 	inc	sp
                           7551 ; genCall
   1A5D CD 00 00           7552 	call	_move_sprite
   1A60 E8 03              7553 	lda	sp,3(sp)
                           7554 ;	ishallbequeen.c 969
                           7555 ; genAssign
                           7556 ; AOP_HL for _i
   1A62 21 0B 00           7557 	ld	hl,#_i + 0
   1A65 4E                 7558 	ld	c,(hl)
                           7559 ; genPlus
   1A66 3E AF              7560 	ld	a,#<_eY
   1A68 81                 7561 	add	a,c
   1A69 5F                 7562 	ld	e,a
   1A6A 3E 00              7563 	ld	a,#>_eY
   1A6C CE 00              7564 	adc	a,#0x00
   1A6E 57                 7565 	ld	d,a
                           7566 ; genPointerGet
                           7567 ; AOP_STK for _moveEnemySprites_sloc1_1_0
   1A6F 1A                 7568 	ld	a,(de)
   1A70 F8 00              7569 	lda	hl,0(sp)
   1A72 77                 7570 	ld	(hl),a ; 3
                           7571 ; genAssign
                           7572 ; AOP_HL for _i
   1A73 21 0B 00           7573 	ld	hl,#_i + 0
   1A76 4E                 7574 	ld	c,(hl)
                           7575 ; genPlus
   1A77 3E AC              7576 	ld	a,#<_eX
   1A79 81                 7577 	add	a,c
   1A7A 5F                 7578 	ld	e,a
   1A7B 3E 00              7579 	ld	a,#>_eX
   1A7D CE 00              7580 	adc	a,#0x00
   1A7F 57                 7581 	ld	d,a
                           7582 ; genPointerGet
   1A80 1A                 7583 	ld	a,(de)
   1A81 4F                 7584 	ld	c,a
                           7585 ; genPlus
                           7586 ; AOP_STK for _moveEnemySprites_sloc0_1_0
                           7587 ; genPlusIncr
   1A82 79                 7588 	ld	a,c
   1A83 C6 08              7589 	add	a,#0x08
   1A85 F8 01              7590 	lda	hl,1(sp)
   1A87 77                 7591 	ld	(hl),a ; 3
                           7592 ; genPlus
                           7593 ; genPlusIncr
   1A88 78                 7594 	ld	a,b
   1A89 C6 13              7595 	add	a,#0x13
   1A8B 4F                 7596 	ld	c,a
                           7597 ; genIpush
                           7598 ; AOP_STK for _moveEnemySprites_sloc1_1_0
   1A8C 2B                 7599 	dec	hl
   1A8D 7E                 7600 	ld	a,(hl)
   1A8E F5                 7601 	push	af
   1A8F 33                 7602 	inc	sp
                           7603 ; genIpush
                           7604 ; AOP_STK for _moveEnemySprites_sloc0_1_0
   1A90 23                 7605 	inc	hl
   1A91 7E                 7606 	ld	a,(hl)
   1A92 F5                 7607 	push	af
   1A93 33                 7608 	inc	sp
                           7609 ; genIpush
   1A94 79                 7610 	ld	a,c
   1A95 F5                 7611 	push	af
   1A96 33                 7612 	inc	sp
                           7613 ; genCall
   1A97 CD 00 00           7614 	call	_move_sprite
   1A9A E8 03              7615 	lda	sp,3(sp)
                           7616 ;	ishallbequeen.c 970
                           7617 ; genAssign
                           7618 ; AOP_HL for _i
   1A9C 21 0B 00           7619 	ld	hl,#_i + 0
   1A9F 4E                 7620 	ld	c,(hl)
                           7621 ; genPlus
   1AA0 3E AF              7622 	ld	a,#<_eY
   1AA2 81                 7623 	add	a,c
   1AA3 5F                 7624 	ld	e,a
   1AA4 3E 00              7625 	ld	a,#>_eY
   1AA6 CE 00              7626 	adc	a,#0x00
   1AA8 57                 7627 	ld	d,a
                           7628 ; genPointerGet
   1AA9 1A                 7629 	ld	a,(de)
   1AAA 4F                 7630 	ld	c,a
                           7631 ; genPlus
                           7632 ; AOP_STK for _moveEnemySprites_sloc1_1_0
                           7633 ; genPlusIncr
   1AAB 79                 7634 	ld	a,c
   1AAC C6 08              7635 	add	a,#0x08
   1AAE F8 00              7636 	lda	hl,0(sp)
   1AB0 77                 7637 	ld	(hl),a ; 3
                           7638 ; genAssign
                           7639 ; AOP_HL for _i
   1AB1 21 0B 00           7640 	ld	hl,#_i + 0
   1AB4 4E                 7641 	ld	c,(hl)
                           7642 ; genPlus
   1AB5 3E AC              7643 	ld	a,#<_eX
   1AB7 81                 7644 	add	a,c
   1AB8 5F                 7645 	ld	e,a
   1AB9 3E 00              7646 	ld	a,#>_eX
   1ABB CE 00              7647 	adc	a,#0x00
   1ABD 57                 7648 	ld	d,a
                           7649 ; genPointerGet
                           7650 ; AOP_STK for _moveEnemySprites_sloc0_1_0
   1ABE 1A                 7651 	ld	a,(de)
   1ABF F8 01              7652 	lda	hl,1(sp)
   1AC1 77                 7653 	ld	(hl),a ; 3
                           7654 ; genPlus
                           7655 ; genPlusIncr
   1AC2 78                 7656 	ld	a,b
   1AC3 C6 14              7657 	add	a,#0x14
   1AC5 4F                 7658 	ld	c,a
                           7659 ; genIpush
                           7660 ; AOP_STK for _moveEnemySprites_sloc1_1_0
   1AC6 2B                 7661 	dec	hl
   1AC7 7E                 7662 	ld	a,(hl)
   1AC8 F5                 7663 	push	af
   1AC9 33                 7664 	inc	sp
                           7665 ; genIpush
                           7666 ; AOP_STK for _moveEnemySprites_sloc0_1_0
   1ACA 23                 7667 	inc	hl
   1ACB 7E                 7668 	ld	a,(hl)
   1ACC F5                 7669 	push	af
   1ACD 33                 7670 	inc	sp
                           7671 ; genIpush
   1ACE 79                 7672 	ld	a,c
   1ACF F5                 7673 	push	af
   1AD0 33                 7674 	inc	sp
                           7675 ; genCall
   1AD1 CD 00 00           7676 	call	_move_sprite
   1AD4 E8 03              7677 	lda	sp,3(sp)
                           7678 ;	ishallbequeen.c 971
                           7679 ; genAssign
                           7680 ; AOP_HL for _i
   1AD6 21 0B 00           7681 	ld	hl,#_i + 0
   1AD9 4E                 7682 	ld	c,(hl)
                           7683 ; genPlus
   1ADA 3E AF              7684 	ld	a,#<_eY
   1ADC 81                 7685 	add	a,c
   1ADD 5F                 7686 	ld	e,a
   1ADE 3E 00              7687 	ld	a,#>_eY
   1AE0 CE 00              7688 	adc	a,#0x00
   1AE2 57                 7689 	ld	d,a
                           7690 ; genPointerGet
   1AE3 1A                 7691 	ld	a,(de)
   1AE4 4F                 7692 	ld	c,a
                           7693 ; genPlus
                           7694 ; AOP_STK for _moveEnemySprites_sloc1_1_0
                           7695 ; genPlusIncr
   1AE5 79                 7696 	ld	a,c
   1AE6 C6 08              7697 	add	a,#0x08
   1AE8 F8 00              7698 	lda	hl,0(sp)
   1AEA 77                 7699 	ld	(hl),a ; 3
                           7700 ; genAssign
                           7701 ; AOP_HL for _i
   1AEB 21 0B 00           7702 	ld	hl,#_i + 0
   1AEE 4E                 7703 	ld	c,(hl)
                           7704 ; genPlus
   1AEF 3E AC              7705 	ld	a,#<_eX
   1AF1 81                 7706 	add	a,c
   1AF2 5F                 7707 	ld	e,a
   1AF3 3E 00              7708 	ld	a,#>_eX
   1AF5 CE 00              7709 	adc	a,#0x00
   1AF7 57                 7710 	ld	d,a
                           7711 ; genPointerGet
   1AF8 1A                 7712 	ld	a,(de)
   1AF9 4F                 7713 	ld	c,a
                           7714 ; genPlus
                           7715 ; genPlusIncr
   1AFA 79                 7716 	ld	a,c
   1AFB C6 08              7717 	add	a,#0x08
   1AFD 4F                 7718 	ld	c,a
                           7719 ; genPlus
                           7720 ; genPlusIncr
   1AFE 78                 7721 	ld	a,b
   1AFF C6 15              7722 	add	a,#0x15
   1B01 47                 7723 	ld	b,a
                           7724 ; genIpush
                           7725 ; AOP_STK for _moveEnemySprites_sloc1_1_0
   1B02 F8 00              7726 	lda	hl,0(sp)
   1B04 7E                 7727 	ld	a,(hl)
   1B05 F5                 7728 	push	af
   1B06 33                 7729 	inc	sp
                           7730 ; genIpush
   1B07 79                 7731 	ld	a,c
   1B08 F5                 7732 	push	af
   1B09 33                 7733 	inc	sp
                           7734 ; genIpush
   1B0A 78                 7735 	ld	a,b
   1B0B F5                 7736 	push	af
   1B0C 33                 7737 	inc	sp
                           7738 ; genCall
   1B0D CD 00 00           7739 	call	_move_sprite
   1B10 E8 03              7740 	lda	sp,3(sp)
                           7741 ; genLabel
   1B12                    7742 00101$:
                           7743 ; genEndFunction
   1B12 E8 02              7744 	lda	sp,2(sp)
   1B14 C1                 7745 	pop bc
   1B15 C9                 7746 	ret
   1B16                    7747 ___moveEnemySprites_end:
                           7748 ;	ishallbequeen.c 974
                           7749 ; genLabel
                           7750 ; genFunction
                           7751 ;	---------------------------------
                           7752 ; Function setProps
                           7753 ; ---------------------------------
   1B16                    7754 ___setProps_start:
   1B16                    7755 _setProps:
   1B16 C5                 7756 	push	bc
                           7757 ;	ishallbequeen.c 975
                           7758 ; genPlus
                           7759 ; AOP_HL for _j
                           7760 ; genPlusIncr
   1B17 21 0C 00           7761 	ld	hl,#_j + 0
   1B1A 7E                 7762 	ld	a,(hl)
   1B1B C6 12              7763 	add	a,#0x12
   1B1D 4F                 7764 	ld	c,a
                           7765 ; genIpush
                           7766 ; AOP_HL for _tempVal
   1B1E 21 11 00           7767 	ld	hl,#_tempVal + 0
   1B21 7E                 7768 	ld	a,(hl)
   1B22 F5                 7769 	push	af
   1B23 33                 7770 	inc	sp
                           7771 ; genIpush
   1B24 79                 7772 	ld	a,c
   1B25 F5                 7773 	push	af
   1B26 33                 7774 	inc	sp
                           7775 ; genCall
   1B27 CD 00 00           7776 	call	_set_sprite_prop
   1B2A E8 02              7777 	lda	sp,2(sp)
                           7778 ;	ishallbequeen.c 976
                           7779 ; genPlus
                           7780 ; AOP_HL for _j
                           7781 ; genPlusIncr
   1B2C 21 0C 00           7782 	ld	hl,#_j + 0
   1B2F 7E                 7783 	ld	a,(hl)
   1B30 C6 13              7784 	add	a,#0x13
   1B32 4F                 7785 	ld	c,a
                           7786 ; genIpush
                           7787 ; AOP_HL for _tempVal
   1B33 21 11 00           7788 	ld	hl,#_tempVal + 0
   1B36 7E                 7789 	ld	a,(hl)
   1B37 F5                 7790 	push	af
   1B38 33                 7791 	inc	sp
                           7792 ; genIpush
   1B39 79                 7793 	ld	a,c
   1B3A F5                 7794 	push	af
   1B3B 33                 7795 	inc	sp
                           7796 ; genCall
   1B3C CD 00 00           7797 	call	_set_sprite_prop
   1B3F E8 02              7798 	lda	sp,2(sp)
                           7799 ;	ishallbequeen.c 977
                           7800 ; genPlus
                           7801 ; AOP_HL for _j
                           7802 ; genPlusIncr
   1B41 21 0C 00           7803 	ld	hl,#_j + 0
   1B44 7E                 7804 	ld	a,(hl)
   1B45 C6 14              7805 	add	a,#0x14
   1B47 4F                 7806 	ld	c,a
                           7807 ; genIpush
                           7808 ; AOP_HL for _tempVal
   1B48 21 11 00           7809 	ld	hl,#_tempVal + 0
   1B4B 7E                 7810 	ld	a,(hl)
   1B4C F5                 7811 	push	af
   1B4D 33                 7812 	inc	sp
                           7813 ; genIpush
   1B4E 79                 7814 	ld	a,c
   1B4F F5                 7815 	push	af
   1B50 33                 7816 	inc	sp
                           7817 ; genCall
   1B51 CD 00 00           7818 	call	_set_sprite_prop
   1B54 E8 02              7819 	lda	sp,2(sp)
                           7820 ;	ishallbequeen.c 978
                           7821 ; genPlus
                           7822 ; AOP_HL for _j
                           7823 ; genPlusIncr
   1B56 21 0C 00           7824 	ld	hl,#_j + 0
   1B59 7E                 7825 	ld	a,(hl)
   1B5A C6 15              7826 	add	a,#0x15
   1B5C 4F                 7827 	ld	c,a
                           7828 ; genIpush
                           7829 ; AOP_HL for _tempVal
   1B5D 21 11 00           7830 	ld	hl,#_tempVal + 0
   1B60 7E                 7831 	ld	a,(hl)
   1B61 F5                 7832 	push	af
   1B62 33                 7833 	inc	sp
                           7834 ; genIpush
   1B63 79                 7835 	ld	a,c
   1B64 F5                 7836 	push	af
   1B65 33                 7837 	inc	sp
                           7838 ; genCall
   1B66 CD 00 00           7839 	call	_set_sprite_prop
   1B69 E8 02              7840 	lda	sp,2(sp)
                           7841 ; genLabel
   1B6B                    7842 00101$:
                           7843 ; genEndFunction
   1B6B C1                 7844 	pop	bc
   1B6C C9                 7845 	ret
   1B6D                    7846 ___setProps_end:
                           7847 ;	ishallbequeen.c 981
                           7848 ; genLabel
                           7849 ; genFunction
                           7850 ;	---------------------------------
                           7851 ; Function updatePlayerFrame
                           7852 ; ---------------------------------
   1B6D                    7853 ___updatePlayerFrame_start:
   1B6D                    7854 _updatePlayerFrame:
   1B6D C5                 7855 	push	bc
                           7856 ;	ishallbequeen.c 983
                           7857 ; genIpush
   1B6E 3E 12              7858 	ld	a,#0x12
   1B70 F5                 7859 	push	af
   1B71 33                 7860 	inc	sp
                           7861 ; genIpush
                           7862 ; AOP_HL for _playerFrame
   1B72 21 83 00           7863 	ld	hl,#_playerFrame + 0
   1B75 7E                 7864 	ld	a,(hl)
   1B76 F5                 7865 	push	af
   1B77 33                 7866 	inc	sp
                           7867 ; genCall
   1B78 CD 00 00           7868 	call	__muluchar
                           7869 ; AOP_HL for _k
   1B7B 21 0D 00           7870 	ld	hl,#_k + 0
   1B7E 73                 7871 	ld	(hl),e
   1B7F E8 02              7872 	lda	sp,2(sp)
                           7873 ;	ishallbequeen.c 985
                           7874 ; genAssign
                           7875 ; AOP_HL for _i
   1B81 21 0B 00           7876 	ld	hl,#_i + 0
   1B84 36 00              7877 	ld	(hl),#0x00
                           7878 ; genLabel
   1B86                    7879 00101$:
                           7880 ; genCmpEq
                           7881 ; AOP_HL for _i
   1B86 21 0B 00           7882 	ld	hl,#_i + 0
   1B89 7E                 7883 	ld	a,(hl) ; 2
   1B8A FE 12              7884 	cp	a,#0x12
                           7885 ; Rule 5
   1B8C CA AA 1B           7886 	jp	z,00105$
   1B8F                    7887 00109$:
                           7888 ;	ishallbequeen.c 986
                           7889 ; genPlus
                           7890 ; AOP_HL for _k
                           7891 ; AOP_HL for _i
   1B8F 21 0D 00           7892 	ld	hl,#_k + 0
   1B92 7E                 7893 	ld	a,(hl)
   1B93 21 0B 00           7894 	ld	hl,#_i + 0
   1B96 86                 7895 	add	a,(hl)
   1B97 4F                 7896 	ld	c,a
                           7897 ; genIpush
   1B98 79                 7898 	ld	a,c
   1B99 F5                 7899 	push	af
   1B9A 33                 7900 	inc	sp
                           7901 ; genIpush
                           7902 ; AOP_HL for _i
   1B9B 7E                 7903 	ld	a,(hl)
   1B9C F5                 7904 	push	af
   1B9D 33                 7905 	inc	sp
                           7906 ; genCall
   1B9E CD 00 00           7907 	call	_set_sprite_tile
   1BA1 E8 02              7908 	lda	sp,2(sp)
                           7909 ;	ishallbequeen.c 985
                           7910 ; genPlus
                           7911 ; AOP_HL for _i
                           7912 ; genPlusIncr
   1BA3 21 0B 00           7913 	ld	hl,#_i + 0
   1BA6 34                 7914 	inc	(hl)
                           7915 ; genGoto
   1BA7 C3 86 1B           7916 	jp	00101$
                           7917 ; genLabel
   1BAA                    7918 00105$:
                           7919 ; genEndFunction
   1BAA C1                 7920 	pop	bc
   1BAB C9                 7921 	ret
   1BAC                    7922 ___updatePlayerFrame_end:
                           7923 ;	ishallbequeen.c 991
                           7924 ; genLabel
                           7925 ; genFunction
                           7926 ;	---------------------------------
                           7927 ; Function updatePlayer
                           7928 ; ---------------------------------
   1BAC                    7929 ___updatePlayer_start:
   1BAC                    7930 _updatePlayer:
   1BAC C5                 7931 	push	bc
   1BAD E8 FC              7932 	lda sp,-4(sp)
                           7933 ;	ishallbequeen.c 993
                           7934 ; genCmpEq
                           7935 ; AOP_HL for _playerFrame
   1BAF 21 83 00           7936 	ld	hl,#_playerFrame + 0
   1BB2 7E                 7937 	ld	a,(hl) ; 2
   1BB3 FE 09              7938 	cp	a,#0x09
                           7939 ; Rule 5
   1BB5 CA 68 1F           7940 	jp	z,00120$
   1BB8                    7941 00157$:
                           7942 ;	ishallbequeen.c 995
                           7943 ; genCmpEq
                           7944 ; AOP_HL for _flipX
   1BB8 21 8B 00           7945 	ld	hl,#_flipX + 0
   1BBB 7E                 7946 	ld	a,(hl)
   1BBC B7                 7947 	or	a,a
                           7948 ; Rule 5
   1BBD CA CC 1B           7949 	jp	z,00104$
   1BC0                    7950 00158$:
                           7951 ; genCmpEq
                           7952 ; AOP_HL for _flipX
   1BC0 21 8B 00           7953 	ld	hl,#_flipX + 0
   1BC3 7E                 7954 	ld	a,(hl) ; 2
   1BC4 FE 01              7955 	cp	a,#0x01
                           7956 ; Rule 5
   1BC6 CA 9A 1D           7957 	jp	z,00108$
   1BC9                    7958 00159$:
                           7959 ; genGoto
   1BC9 C3 5E 21           7960 	jp	00138$
                           7961 ;	ishallbequeen.c 1006
                           7962 ; genLabel
   1BCC                    7963 00104$:
                           7964 ;	ishallbequeen.c 998
                           7965 ; genAssign
                           7966 ; AOP_HL for _i
   1BCC 21 0B 00           7967 	ld	hl,#_i + 0
   1BCF 36 00              7968 	ld	(hl),#0x00
                           7969 ; genLabel
   1BD1                    7970 00122$:
                           7971 ; genCmpEq
                           7972 ; AOP_HL for _i
   1BD1 21 0B 00           7973 	ld	hl,#_i + 0
   1BD4 7E                 7974 	ld	a,(hl) ; 2
   1BD5 FE 12              7975 	cp	a,#0x12
                           7976 ; Rule 5
   1BD7 CA 08 1C           7977 	jp	z,00125$
   1BDA                    7978 00160$:
                           7979 ;	ishallbequeen.c 1000
                           7980 ; genCmpLt
                           7981 ; AOP_HL for _i
   1BDA 21 0B 00           7982 	ld	hl,#_i + 0
   1BDD 7E                 7983 	ld	a,(hl)
   1BDE FE 06              7984 	cp	#0x06
   1BE0 D2 F2 1B           7985 	jp	nc,00102$
                           7986 ;	ishallbequeen.c 1001
                           7987 ; genIpush
   1BE3 3E 00              7988 	ld	a,#0x00
   1BE5 F5                 7989 	push	af
   1BE6 33                 7990 	inc	sp
                           7991 ; genIpush
                           7992 ; AOP_HL for _i
   1BE7 7E                 7993 	ld	a,(hl)
   1BE8 F5                 7994 	push	af
   1BE9 33                 7995 	inc	sp
                           7996 ; genCall
   1BEA CD 00 00           7997 	call	_set_sprite_prop
   1BED E8 02              7998 	lda	sp,2(sp)
                           7999 ; genGoto
   1BEF C3 01 1C           8000 	jp	00124$
                           8001 ; genLabel
   1BF2                    8002 00102$:
                           8003 ;	ishallbequeen.c 1003
                           8004 ; genIpush
   1BF2 3E 01              8005 	ld	a,#0x01
   1BF4 F5                 8006 	push	af
   1BF5 33                 8007 	inc	sp
                           8008 ; genIpush
                           8009 ; AOP_HL for _i
   1BF6 21 0B 00           8010 	ld	hl,#_i + 0
   1BF9 7E                 8011 	ld	a,(hl)
   1BFA F5                 8012 	push	af
   1BFB 33                 8013 	inc	sp
                           8014 ; genCall
   1BFC CD 00 00           8015 	call	_set_sprite_prop
   1BFF E8 02              8016 	lda	sp,2(sp)
                           8017 ; genLabel
   1C01                    8018 00124$:
                           8019 ;	ishallbequeen.c 998
                           8020 ; genPlus
                           8021 ; AOP_HL for _i
                           8022 ; genPlusIncr
   1C01 21 0B 00           8023 	ld	hl,#_i + 0
   1C04 34                 8024 	inc	(hl)
                           8025 ; genGoto
   1C05 C3 D1 1B           8026 	jp	00122$
                           8027 ; genLabel
   1C08                    8028 00125$:
                           8029 ;	ishallbequeen.c 1008
                           8030 ; genIpush
   1C08 3E 01              8031 	ld	a,#0x01
   1C0A F5                 8032 	push	af
   1C0B 33                 8033 	inc	sp
                           8034 ; genIpush
   1C0C 3E 25              8035 	ld	a,#0x25
   1C0E F5                 8036 	push	af
   1C0F 33                 8037 	inc	sp
                           8038 ; genCall
   1C10 CD 00 00           8039 	call	_set_sprite_prop
   1C13 E8 02              8040 	lda	sp,2(sp)
                           8041 ;	ishallbequeen.c 1009
                           8042 ; genIpush
   1C15 3E 01              8043 	ld	a,#0x01
   1C17 F5                 8044 	push	af
   1C18 33                 8045 	inc	sp
                           8046 ; genIpush
   1C19 3E 26              8047 	ld	a,#0x26
   1C1B F5                 8048 	push	af
   1C1C 33                 8049 	inc	sp
                           8050 ; genCall
   1C1D CD 00 00           8051 	call	_set_sprite_prop
   1C20 E8 02              8052 	lda	sp,2(sp)
                           8053 ;	ishallbequeen.c 1010
                           8054 ; genIpush
   1C22 3E 01              8055 	ld	a,#0x01
   1C24 F5                 8056 	push	af
   1C25 33                 8057 	inc	sp
                           8058 ; genIpush
   1C26 3E 27              8059 	ld	a,#0x27
   1C28 F5                 8060 	push	af
   1C29 33                 8061 	inc	sp
                           8062 ; genCall
   1C2A CD 00 00           8063 	call	_set_sprite_prop
   1C2D E8 02              8064 	lda	sp,2(sp)
                           8065 ;	ishallbequeen.c 1012
                           8066 ; genIpush
                           8067 ; AOP_HL for _pY
   1C2F 21 81 00           8068 	ld	hl,#_pY + 0
   1C32 7E                 8069 	ld	a,(hl)
   1C33 F5                 8070 	push	af
   1C34 33                 8071 	inc	sp
                           8072 ; genIpush
                           8073 ; AOP_HL for _pX
   1C35 21 80 00           8074 	ld	hl,#_pX + 0
   1C38 7E                 8075 	ld	a,(hl)
   1C39 F5                 8076 	push	af
   1C3A 33                 8077 	inc	sp
                           8078 ; genIpush
   1C3B 3E 00              8079 	ld	a,#0x00
   1C3D F5                 8080 	push	af
   1C3E 33                 8081 	inc	sp
                           8082 ; genCall
   1C3F CD 00 00           8083 	call	_move_sprite
   1C42 E8 03              8084 	lda	sp,3(sp)
                           8085 ;	ishallbequeen.c 1013
                           8086 ; genPlus
                           8087 ; AOP_HL for _pX
                           8088 ; genPlusIncr
   1C44 21 80 00           8089 	ld	hl,#_pX + 0
   1C47 7E                 8090 	ld	a,(hl)
   1C48 C6 08              8091 	add	a,#0x08
   1C4A 4F                 8092 	ld	c,a
                           8093 ; genIpush
                           8094 ; AOP_HL for _pY
   1C4B 21 81 00           8095 	ld	hl,#_pY + 0
   1C4E 7E                 8096 	ld	a,(hl)
   1C4F F5                 8097 	push	af
   1C50 33                 8098 	inc	sp
                           8099 ; genIpush
   1C51 79                 8100 	ld	a,c
   1C52 F5                 8101 	push	af
   1C53 33                 8102 	inc	sp
                           8103 ; genIpush
   1C54 3E 01              8104 	ld	a,#0x01
   1C56 F5                 8105 	push	af
   1C57 33                 8106 	inc	sp
                           8107 ; genCall
   1C58 CD 00 00           8108 	call	_move_sprite
   1C5B E8 03              8109 	lda	sp,3(sp)
                           8110 ;	ishallbequeen.c 1014
                           8111 ; genPlus
                           8112 ; AOP_HL for _pX
                           8113 ; AOP_STK for _updatePlayer_sloc0_1_0
                           8114 ; genPlusIncr
   1C5D 21 80 00           8115 	ld	hl,#_pX + 0
   1C60 7E                 8116 	ld	a,(hl)
   1C61 C6 10              8117 	add	a,#0x10
   1C63 F8 03              8118 	lda	hl,3(sp)
   1C65 77                 8119 	ld	(hl),a ; 3
                           8120 ; genIpush
                           8121 ; AOP_HL for _pY
   1C66 21 81 00           8122 	ld	hl,#_pY + 0
   1C69 7E                 8123 	ld	a,(hl)
   1C6A F5                 8124 	push	af
   1C6B 33                 8125 	inc	sp
                           8126 ; genIpush
                           8127 ; AOP_STK for _updatePlayer_sloc0_1_0
   1C6C F8 04              8128 	lda	hl,4(sp)
   1C6E 7E                 8129 	ld	a,(hl)
   1C6F F5                 8130 	push	af
   1C70 33                 8131 	inc	sp
                           8132 ; genIpush
   1C71 3E 02              8133 	ld	a,#0x02
   1C73 F5                 8134 	push	af
   1C74 33                 8135 	inc	sp
                           8136 ; genCall
   1C75 CD 00 00           8137 	call	_move_sprite
   1C78 E8 03              8138 	lda	sp,3(sp)
                           8139 ;	ishallbequeen.c 1015
                           8140 ; genPlus
                           8141 ; AOP_HL for _pY
                           8142 ; genPlusIncr
   1C7A 21 81 00           8143 	ld	hl,#_pY + 0
   1C7D 7E                 8144 	ld	a,(hl)
   1C7E C6 08              8145 	add	a,#0x08
   1C80 47                 8146 	ld	b,a
                           8147 ; genIpush
   1C81 78                 8148 	ld	a,b
   1C82 F5                 8149 	push	af
   1C83 33                 8150 	inc	sp
                           8151 ; genIpush
                           8152 ; AOP_HL for _pX
   1C84 21 80 00           8153 	ld	hl,#_pX + 0
   1C87 7E                 8154 	ld	a,(hl)
   1C88 F5                 8155 	push	af
   1C89 33                 8156 	inc	sp
                           8157 ; genIpush
   1C8A 3E 03              8158 	ld	a,#0x03
   1C8C F5                 8159 	push	af
   1C8D 33                 8160 	inc	sp
                           8161 ; genCall
   1C8E CD 00 00           8162 	call	_move_sprite
   1C91 E8 03              8163 	lda	sp,3(sp)
                           8164 ;	ishallbequeen.c 1016
                           8165 ; genIpush
   1C93 78                 8166 	ld	a,b
   1C94 F5                 8167 	push	af
   1C95 33                 8168 	inc	sp
                           8169 ; genIpush
   1C96 79                 8170 	ld	a,c
   1C97 F5                 8171 	push	af
   1C98 33                 8172 	inc	sp
                           8173 ; genIpush
   1C99 3E 04              8174 	ld	a,#0x04
   1C9B F5                 8175 	push	af
   1C9C 33                 8176 	inc	sp
                           8177 ; genCall
   1C9D CD 00 00           8178 	call	_move_sprite
   1CA0 E8 03              8179 	lda	sp,3(sp)
                           8180 ;	ishallbequeen.c 1017
                           8181 ; genIpush
   1CA2 78                 8182 	ld	a,b
   1CA3 F5                 8183 	push	af
   1CA4 33                 8184 	inc	sp
                           8185 ; genIpush
                           8186 ; AOP_STK for _updatePlayer_sloc0_1_0
   1CA5 F8 04              8187 	lda	hl,4(sp)
   1CA7 7E                 8188 	ld	a,(hl)
   1CA8 F5                 8189 	push	af
   1CA9 33                 8190 	inc	sp
                           8191 ; genIpush
   1CAA 3E 05              8192 	ld	a,#0x05
   1CAC F5                 8193 	push	af
   1CAD 33                 8194 	inc	sp
                           8195 ; genCall
   1CAE CD 00 00           8196 	call	_move_sprite
   1CB1 E8 03              8197 	lda	sp,3(sp)
                           8198 ;	ishallbequeen.c 1018
                           8199 ; genPlus
                           8200 ; AOP_HL for _pY
                           8201 ; genPlusIncr
   1CB3 21 81 00           8202 	ld	hl,#_pY + 0
   1CB6 7E                 8203 	ld	a,(hl)
   1CB7 C6 10              8204 	add	a,#0x10
   1CB9 47                 8205 	ld	b,a
                           8206 ; genIpush
   1CBA 78                 8207 	ld	a,b
   1CBB F5                 8208 	push	af
   1CBC 33                 8209 	inc	sp
                           8210 ; genIpush
                           8211 ; AOP_HL for _pX
   1CBD 21 80 00           8212 	ld	hl,#_pX + 0
   1CC0 7E                 8213 	ld	a,(hl)
   1CC1 F5                 8214 	push	af
   1CC2 33                 8215 	inc	sp
                           8216 ; genIpush
   1CC3 3E 06              8217 	ld	a,#0x06
   1CC5 F5                 8218 	push	af
   1CC6 33                 8219 	inc	sp
                           8220 ; genCall
   1CC7 CD 00 00           8221 	call	_move_sprite
   1CCA E8 03              8222 	lda	sp,3(sp)
                           8223 ;	ishallbequeen.c 1019
                           8224 ; genIpush
   1CCC 78                 8225 	ld	a,b
   1CCD F5                 8226 	push	af
   1CCE 33                 8227 	inc	sp
                           8228 ; genIpush
   1CCF 79                 8229 	ld	a,c
   1CD0 F5                 8230 	push	af
   1CD1 33                 8231 	inc	sp
                           8232 ; genIpush
   1CD2 3E 07              8233 	ld	a,#0x07
   1CD4 F5                 8234 	push	af
   1CD5 33                 8235 	inc	sp
                           8236 ; genCall
   1CD6 CD 00 00           8237 	call	_move_sprite
   1CD9 E8 03              8238 	lda	sp,3(sp)
                           8239 ;	ishallbequeen.c 1020
                           8240 ; genIpush
   1CDB 78                 8241 	ld	a,b
   1CDC F5                 8242 	push	af
   1CDD 33                 8243 	inc	sp
                           8244 ; genIpush
                           8245 ; AOP_STK for _updatePlayer_sloc0_1_0
   1CDE F8 04              8246 	lda	hl,4(sp)
   1CE0 7E                 8247 	ld	a,(hl)
   1CE1 F5                 8248 	push	af
   1CE2 33                 8249 	inc	sp
                           8250 ; genIpush
   1CE3 3E 08              8251 	ld	a,#0x08
   1CE5 F5                 8252 	push	af
   1CE6 33                 8253 	inc	sp
                           8254 ; genCall
   1CE7 CD 00 00           8255 	call	_move_sprite
   1CEA E8 03              8256 	lda	sp,3(sp)
                           8257 ;	ishallbequeen.c 1021
                           8258 ; genPlus
                           8259 ; AOP_HL for _pY
                           8260 ; genPlusIncr
   1CEC 21 81 00           8261 	ld	hl,#_pY + 0
   1CEF 7E                 8262 	ld	a,(hl)
   1CF0 C6 18              8263 	add	a,#0x18
   1CF2 47                 8264 	ld	b,a
                           8265 ; genIpush
   1CF3 78                 8266 	ld	a,b
   1CF4 F5                 8267 	push	af
   1CF5 33                 8268 	inc	sp
                           8269 ; genIpush
                           8270 ; AOP_HL for _pX
   1CF6 21 80 00           8271 	ld	hl,#_pX + 0
   1CF9 7E                 8272 	ld	a,(hl)
   1CFA F5                 8273 	push	af
   1CFB 33                 8274 	inc	sp
                           8275 ; genIpush
   1CFC 3E 09              8276 	ld	a,#0x09
   1CFE F5                 8277 	push	af
   1CFF 33                 8278 	inc	sp
                           8279 ; genCall
   1D00 CD 00 00           8280 	call	_move_sprite
   1D03 E8 03              8281 	lda	sp,3(sp)
                           8282 ;	ishallbequeen.c 1022
                           8283 ; genIpush
   1D05 78                 8284 	ld	a,b
   1D06 F5                 8285 	push	af
   1D07 33                 8286 	inc	sp
                           8287 ; genIpush
   1D08 79                 8288 	ld	a,c
   1D09 F5                 8289 	push	af
   1D0A 33                 8290 	inc	sp
                           8291 ; genIpush
   1D0B 3E 0A              8292 	ld	a,#0x0A
   1D0D F5                 8293 	push	af
   1D0E 33                 8294 	inc	sp
                           8295 ; genCall
   1D0F CD 00 00           8296 	call	_move_sprite
   1D12 E8 03              8297 	lda	sp,3(sp)
                           8298 ;	ishallbequeen.c 1023
                           8299 ; genIpush
   1D14 78                 8300 	ld	a,b
   1D15 F5                 8301 	push	af
   1D16 33                 8302 	inc	sp
                           8303 ; genIpush
                           8304 ; AOP_STK for _updatePlayer_sloc0_1_0
   1D17 F8 04              8305 	lda	hl,4(sp)
   1D19 7E                 8306 	ld	a,(hl)
   1D1A F5                 8307 	push	af
   1D1B 33                 8308 	inc	sp
                           8309 ; genIpush
   1D1C 3E 0B              8310 	ld	a,#0x0B
   1D1E F5                 8311 	push	af
   1D1F 33                 8312 	inc	sp
                           8313 ; genCall
   1D20 CD 00 00           8314 	call	_move_sprite
   1D23 E8 03              8315 	lda	sp,3(sp)
                           8316 ;	ishallbequeen.c 1024
                           8317 ; genPlus
                           8318 ; AOP_HL for _pY
                           8319 ; genPlusIncr
   1D25 21 81 00           8320 	ld	hl,#_pY + 0
   1D28 7E                 8321 	ld	a,(hl)
   1D29 C6 20              8322 	add	a,#0x20
   1D2B 47                 8323 	ld	b,a
                           8324 ; genIpush
   1D2C 78                 8325 	ld	a,b
   1D2D F5                 8326 	push	af
   1D2E 33                 8327 	inc	sp
                           8328 ; genIpush
                           8329 ; AOP_HL for _pX
   1D2F 21 80 00           8330 	ld	hl,#_pX + 0
   1D32 7E                 8331 	ld	a,(hl)
   1D33 F5                 8332 	push	af
   1D34 33                 8333 	inc	sp
                           8334 ; genIpush
   1D35 3E 0C              8335 	ld	a,#0x0C
   1D37 F5                 8336 	push	af
   1D38 33                 8337 	inc	sp
                           8338 ; genCall
   1D39 CD 00 00           8339 	call	_move_sprite
   1D3C E8 03              8340 	lda	sp,3(sp)
                           8341 ;	ishallbequeen.c 1025
                           8342 ; genIpush
   1D3E 78                 8343 	ld	a,b
   1D3F F5                 8344 	push	af
   1D40 33                 8345 	inc	sp
                           8346 ; genIpush
   1D41 79                 8347 	ld	a,c
   1D42 F5                 8348 	push	af
   1D43 33                 8349 	inc	sp
                           8350 ; genIpush
   1D44 3E 0D              8351 	ld	a,#0x0D
   1D46 F5                 8352 	push	af
   1D47 33                 8353 	inc	sp
                           8354 ; genCall
   1D48 CD 00 00           8355 	call	_move_sprite
   1D4B E8 03              8356 	lda	sp,3(sp)
                           8357 ;	ishallbequeen.c 1026
                           8358 ; genIpush
   1D4D 78                 8359 	ld	a,b
   1D4E F5                 8360 	push	af
   1D4F 33                 8361 	inc	sp
                           8362 ; genIpush
                           8363 ; AOP_STK for _updatePlayer_sloc0_1_0
   1D50 F8 04              8364 	lda	hl,4(sp)
   1D52 7E                 8365 	ld	a,(hl)
   1D53 F5                 8366 	push	af
   1D54 33                 8367 	inc	sp
                           8368 ; genIpush
   1D55 3E 0E              8369 	ld	a,#0x0E
   1D57 F5                 8370 	push	af
   1D58 33                 8371 	inc	sp
                           8372 ; genCall
   1D59 CD 00 00           8373 	call	_move_sprite
   1D5C E8 03              8374 	lda	sp,3(sp)
                           8375 ;	ishallbequeen.c 1027
                           8376 ; genPlus
                           8377 ; AOP_HL for _pY
                           8378 ; genPlusIncr
   1D5E 21 81 00           8379 	ld	hl,#_pY + 0
   1D61 7E                 8380 	ld	a,(hl)
   1D62 C6 28              8381 	add	a,#0x28
   1D64 47                 8382 	ld	b,a
                           8383 ; genIpush
   1D65 78                 8384 	ld	a,b
   1D66 F5                 8385 	push	af
   1D67 33                 8386 	inc	sp
                           8387 ; genIpush
                           8388 ; AOP_HL for _pX
   1D68 21 80 00           8389 	ld	hl,#_pX + 0
   1D6B 7E                 8390 	ld	a,(hl)
   1D6C F5                 8391 	push	af
   1D6D 33                 8392 	inc	sp
                           8393 ; genIpush
   1D6E 3E 0F              8394 	ld	a,#0x0F
   1D70 F5                 8395 	push	af
   1D71 33                 8396 	inc	sp
                           8397 ; genCall
   1D72 CD 00 00           8398 	call	_move_sprite
   1D75 E8 03              8399 	lda	sp,3(sp)
                           8400 ;	ishallbequeen.c 1028
                           8401 ; genIpush
   1D77 78                 8402 	ld	a,b
   1D78 F5                 8403 	push	af
   1D79 33                 8404 	inc	sp
                           8405 ; genIpush
   1D7A 79                 8406 	ld	a,c
   1D7B F5                 8407 	push	af
   1D7C 33                 8408 	inc	sp
                           8409 ; genIpush
   1D7D 3E 10              8410 	ld	a,#0x10
   1D7F F5                 8411 	push	af
   1D80 33                 8412 	inc	sp
                           8413 ; genCall
   1D81 CD 00 00           8414 	call	_move_sprite
   1D84 E8 03              8415 	lda	sp,3(sp)
                           8416 ;	ishallbequeen.c 1029
                           8417 ; genIpush
   1D86 78                 8418 	ld	a,b
   1D87 F5                 8419 	push	af
   1D88 33                 8420 	inc	sp
                           8421 ; genIpush
                           8422 ; AOP_STK for _updatePlayer_sloc0_1_0
   1D89 F8 04              8423 	lda	hl,4(sp)
   1D8B 7E                 8424 	ld	a,(hl)
   1D8C F5                 8425 	push	af
   1D8D 33                 8426 	inc	sp
                           8427 ; genIpush
   1D8E 3E 11              8428 	ld	a,#0x11
   1D90 F5                 8429 	push	af
   1D91 33                 8430 	inc	sp
                           8431 ; genCall
   1D92 CD 00 00           8432 	call	_move_sprite
   1D95 E8 03              8433 	lda	sp,3(sp)
                           8434 ;	ishallbequeen.c 1030
                           8435 ; genGoto
   1D97 C3 5E 21           8436 	jp	00138$
                           8437 ;	ishallbequeen.c 1040
                           8438 ; genLabel
   1D9A                    8439 00108$:
                           8440 ;	ishallbequeen.c 1034
                           8441 ; genAssign
                           8442 ; AOP_HL for _i
   1D9A 21 0B 00           8443 	ld	hl,#_i + 0
   1D9D 36 00              8444 	ld	(hl),#0x00
                           8445 ; genLabel
   1D9F                    8446 00126$:
                           8447 ; genCmpEq
                           8448 ; AOP_HL for _i
   1D9F 21 0B 00           8449 	ld	hl,#_i + 0
   1DA2 7E                 8450 	ld	a,(hl) ; 2
   1DA3 FE 12              8451 	cp	a,#0x12
                           8452 ; Rule 5
   1DA5 CA D6 1D           8453 	jp	z,00129$
   1DA8                    8454 00161$:
                           8455 ;	ishallbequeen.c 1035
                           8456 ; genCmpLt
                           8457 ; AOP_HL for _i
   1DA8 21 0B 00           8458 	ld	hl,#_i + 0
   1DAB 7E                 8459 	ld	a,(hl)
   1DAC FE 06              8460 	cp	#0x06
   1DAE D2 C0 1D           8461 	jp	nc,00106$
                           8462 ;	ishallbequeen.c 1036
                           8463 ; genIpush
   1DB1 3E 20              8464 	ld	a,#0x20
   1DB3 F5                 8465 	push	af
   1DB4 33                 8466 	inc	sp
                           8467 ; genIpush
                           8468 ; AOP_HL for _i
   1DB5 7E                 8469 	ld	a,(hl)
   1DB6 F5                 8470 	push	af
   1DB7 33                 8471 	inc	sp
                           8472 ; genCall
   1DB8 CD 00 00           8473 	call	_set_sprite_prop
   1DBB E8 02              8474 	lda	sp,2(sp)
                           8475 ; genGoto
   1DBD C3 CF 1D           8476 	jp	00128$
                           8477 ; genLabel
   1DC0                    8478 00106$:
                           8479 ;	ishallbequeen.c 1038
                           8480 ; genIpush
   1DC0 3E 21              8481 	ld	a,#0x21
   1DC2 F5                 8482 	push	af
   1DC3 33                 8483 	inc	sp
                           8484 ; genIpush
                           8485 ; AOP_HL for _i
   1DC4 21 0B 00           8486 	ld	hl,#_i + 0
   1DC7 7E                 8487 	ld	a,(hl)
   1DC8 F5                 8488 	push	af
   1DC9 33                 8489 	inc	sp
                           8490 ; genCall
   1DCA CD 00 00           8491 	call	_set_sprite_prop
   1DCD E8 02              8492 	lda	sp,2(sp)
                           8493 ; genLabel
   1DCF                    8494 00128$:
                           8495 ;	ishallbequeen.c 1034
                           8496 ; genPlus
                           8497 ; AOP_HL for _i
                           8498 ; genPlusIncr
   1DCF 21 0B 00           8499 	ld	hl,#_i + 0
   1DD2 34                 8500 	inc	(hl)
                           8501 ; genGoto
   1DD3 C3 9F 1D           8502 	jp	00126$
                           8503 ; genLabel
   1DD6                    8504 00129$:
                           8505 ;	ishallbequeen.c 1042
                           8506 ; genIpush
   1DD6 3E 21              8507 	ld	a,#0x21
   1DD8 F5                 8508 	push	af
   1DD9 33                 8509 	inc	sp
                           8510 ; genIpush
   1DDA 3E 25              8511 	ld	a,#0x25
   1DDC F5                 8512 	push	af
   1DDD 33                 8513 	inc	sp
                           8514 ; genCall
   1DDE CD 00 00           8515 	call	_set_sprite_prop
   1DE1 E8 02              8516 	lda	sp,2(sp)
                           8517 ;	ishallbequeen.c 1043
                           8518 ; genIpush
   1DE3 3E 21              8519 	ld	a,#0x21
   1DE5 F5                 8520 	push	af
   1DE6 33                 8521 	inc	sp
                           8522 ; genIpush
   1DE7 3E 26              8523 	ld	a,#0x26
   1DE9 F5                 8524 	push	af
   1DEA 33                 8525 	inc	sp
                           8526 ; genCall
   1DEB CD 00 00           8527 	call	_set_sprite_prop
   1DEE E8 02              8528 	lda	sp,2(sp)
                           8529 ;	ishallbequeen.c 1044
                           8530 ; genIpush
   1DF0 3E 21              8531 	ld	a,#0x21
   1DF2 F5                 8532 	push	af
   1DF3 33                 8533 	inc	sp
                           8534 ; genIpush
   1DF4 3E 27              8535 	ld	a,#0x27
   1DF6 F5                 8536 	push	af
   1DF7 33                 8537 	inc	sp
                           8538 ; genCall
   1DF8 CD 00 00           8539 	call	_set_sprite_prop
   1DFB E8 02              8540 	lda	sp,2(sp)
                           8541 ;	ishallbequeen.c 1046
                           8542 ; genIpush
                           8543 ; AOP_HL for _pY
   1DFD 21 81 00           8544 	ld	hl,#_pY + 0
   1E00 7E                 8545 	ld	a,(hl)
   1E01 F5                 8546 	push	af
   1E02 33                 8547 	inc	sp
                           8548 ; genIpush
                           8549 ; AOP_HL for _pX
   1E03 21 80 00           8550 	ld	hl,#_pX + 0
   1E06 7E                 8551 	ld	a,(hl)
   1E07 F5                 8552 	push	af
   1E08 33                 8553 	inc	sp
                           8554 ; genIpush
   1E09 3E 02              8555 	ld	a,#0x02
   1E0B F5                 8556 	push	af
   1E0C 33                 8557 	inc	sp
                           8558 ; genCall
   1E0D CD 00 00           8559 	call	_move_sprite
   1E10 E8 03              8560 	lda	sp,3(sp)
                           8561 ;	ishallbequeen.c 1047
                           8562 ; genPlus
                           8563 ; AOP_HL for _pX
                           8564 ; genPlusIncr
   1E12 21 80 00           8565 	ld	hl,#_pX + 0
   1E15 7E                 8566 	ld	a,(hl)
   1E16 C6 08              8567 	add	a,#0x08
   1E18 4F                 8568 	ld	c,a
                           8569 ; genIpush
                           8570 ; AOP_HL for _pY
   1E19 21 81 00           8571 	ld	hl,#_pY + 0
   1E1C 7E                 8572 	ld	a,(hl)
   1E1D F5                 8573 	push	af
   1E1E 33                 8574 	inc	sp
                           8575 ; genIpush
   1E1F 79                 8576 	ld	a,c
   1E20 F5                 8577 	push	af
   1E21 33                 8578 	inc	sp
                           8579 ; genIpush
   1E22 3E 01              8580 	ld	a,#0x01
   1E24 F5                 8581 	push	af
   1E25 33                 8582 	inc	sp
                           8583 ; genCall
   1E26 CD 00 00           8584 	call	_move_sprite
   1E29 E8 03              8585 	lda	sp,3(sp)
                           8586 ;	ishallbequeen.c 1048
                           8587 ; genPlus
                           8588 ; AOP_HL for _pX
                           8589 ; AOP_STK for _updatePlayer_sloc0_1_0
                           8590 ; genPlusIncr
   1E2B 21 80 00           8591 	ld	hl,#_pX + 0
   1E2E 7E                 8592 	ld	a,(hl)
   1E2F C6 10              8593 	add	a,#0x10
   1E31 F8 03              8594 	lda	hl,3(sp)
   1E33 77                 8595 	ld	(hl),a ; 3
                           8596 ; genIpush
                           8597 ; AOP_HL for _pY
   1E34 21 81 00           8598 	ld	hl,#_pY + 0
   1E37 7E                 8599 	ld	a,(hl)
   1E38 F5                 8600 	push	af
   1E39 33                 8601 	inc	sp
                           8602 ; genIpush
                           8603 ; AOP_STK for _updatePlayer_sloc0_1_0
   1E3A F8 04              8604 	lda	hl,4(sp)
   1E3C 7E                 8605 	ld	a,(hl)
   1E3D F5                 8606 	push	af
   1E3E 33                 8607 	inc	sp
                           8608 ; genIpush
   1E3F 3E 00              8609 	ld	a,#0x00
   1E41 F5                 8610 	push	af
   1E42 33                 8611 	inc	sp
                           8612 ; genCall
   1E43 CD 00 00           8613 	call	_move_sprite
   1E46 E8 03              8614 	lda	sp,3(sp)
                           8615 ;	ishallbequeen.c 1049
                           8616 ; genPlus
                           8617 ; AOP_HL for _pY
                           8618 ; genPlusIncr
   1E48 21 81 00           8619 	ld	hl,#_pY + 0
   1E4B 7E                 8620 	ld	a,(hl)
   1E4C C6 08              8621 	add	a,#0x08
   1E4E 47                 8622 	ld	b,a
                           8623 ; genIpush
   1E4F 78                 8624 	ld	a,b
   1E50 F5                 8625 	push	af
   1E51 33                 8626 	inc	sp
                           8627 ; genIpush
                           8628 ; AOP_HL for _pX
   1E52 21 80 00           8629 	ld	hl,#_pX + 0
   1E55 7E                 8630 	ld	a,(hl)
   1E56 F5                 8631 	push	af
   1E57 33                 8632 	inc	sp
                           8633 ; genIpush
   1E58 3E 05              8634 	ld	a,#0x05
   1E5A F5                 8635 	push	af
   1E5B 33                 8636 	inc	sp
                           8637 ; genCall
   1E5C CD 00 00           8638 	call	_move_sprite
   1E5F E8 03              8639 	lda	sp,3(sp)
                           8640 ;	ishallbequeen.c 1050
                           8641 ; genIpush
   1E61 78                 8642 	ld	a,b
   1E62 F5                 8643 	push	af
   1E63 33                 8644 	inc	sp
                           8645 ; genIpush
   1E64 79                 8646 	ld	a,c
   1E65 F5                 8647 	push	af
   1E66 33                 8648 	inc	sp
                           8649 ; genIpush
   1E67 3E 04              8650 	ld	a,#0x04
   1E69 F5                 8651 	push	af
   1E6A 33                 8652 	inc	sp
                           8653 ; genCall
   1E6B CD 00 00           8654 	call	_move_sprite
   1E6E E8 03              8655 	lda	sp,3(sp)
                           8656 ;	ishallbequeen.c 1051
                           8657 ; genIpush
   1E70 78                 8658 	ld	a,b
   1E71 F5                 8659 	push	af
   1E72 33                 8660 	inc	sp
                           8661 ; genIpush
                           8662 ; AOP_STK for _updatePlayer_sloc0_1_0
   1E73 F8 04              8663 	lda	hl,4(sp)
   1E75 7E                 8664 	ld	a,(hl)
   1E76 F5                 8665 	push	af
   1E77 33                 8666 	inc	sp
                           8667 ; genIpush
   1E78 3E 03              8668 	ld	a,#0x03
   1E7A F5                 8669 	push	af
   1E7B 33                 8670 	inc	sp
                           8671 ; genCall
   1E7C CD 00 00           8672 	call	_move_sprite
   1E7F E8 03              8673 	lda	sp,3(sp)
                           8674 ;	ishallbequeen.c 1052
                           8675 ; genPlus
                           8676 ; AOP_HL for _pY
                           8677 ; genPlusIncr
   1E81 21 81 00           8678 	ld	hl,#_pY + 0
   1E84 7E                 8679 	ld	a,(hl)
   1E85 C6 10              8680 	add	a,#0x10
   1E87 47                 8681 	ld	b,a
                           8682 ; genIpush
   1E88 78                 8683 	ld	a,b
   1E89 F5                 8684 	push	af
   1E8A 33                 8685 	inc	sp
                           8686 ; genIpush
                           8687 ; AOP_HL for _pX
   1E8B 21 80 00           8688 	ld	hl,#_pX + 0
   1E8E 7E                 8689 	ld	a,(hl)
   1E8F F5                 8690 	push	af
   1E90 33                 8691 	inc	sp
                           8692 ; genIpush
   1E91 3E 08              8693 	ld	a,#0x08
   1E93 F5                 8694 	push	af
   1E94 33                 8695 	inc	sp
                           8696 ; genCall
   1E95 CD 00 00           8697 	call	_move_sprite
   1E98 E8 03              8698 	lda	sp,3(sp)
                           8699 ;	ishallbequeen.c 1053
                           8700 ; genIpush
   1E9A 78                 8701 	ld	a,b
   1E9B F5                 8702 	push	af
   1E9C 33                 8703 	inc	sp
                           8704 ; genIpush
   1E9D 79                 8705 	ld	a,c
   1E9E F5                 8706 	push	af
   1E9F 33                 8707 	inc	sp
                           8708 ; genIpush
   1EA0 3E 07              8709 	ld	a,#0x07
   1EA2 F5                 8710 	push	af
   1EA3 33                 8711 	inc	sp
                           8712 ; genCall
   1EA4 CD 00 00           8713 	call	_move_sprite
   1EA7 E8 03              8714 	lda	sp,3(sp)
                           8715 ;	ishallbequeen.c 1054
                           8716 ; genIpush
   1EA9 78                 8717 	ld	a,b
   1EAA F5                 8718 	push	af
   1EAB 33                 8719 	inc	sp
                           8720 ; genIpush
                           8721 ; AOP_STK for _updatePlayer_sloc0_1_0
   1EAC F8 04              8722 	lda	hl,4(sp)
   1EAE 7E                 8723 	ld	a,(hl)
   1EAF F5                 8724 	push	af
   1EB0 33                 8725 	inc	sp
                           8726 ; genIpush
   1EB1 3E 06              8727 	ld	a,#0x06
   1EB3 F5                 8728 	push	af
   1EB4 33                 8729 	inc	sp
                           8730 ; genCall
   1EB5 CD 00 00           8731 	call	_move_sprite
   1EB8 E8 03              8732 	lda	sp,3(sp)
                           8733 ;	ishallbequeen.c 1055
                           8734 ; genPlus
                           8735 ; AOP_HL for _pY
                           8736 ; genPlusIncr
   1EBA 21 81 00           8737 	ld	hl,#_pY + 0
   1EBD 7E                 8738 	ld	a,(hl)
   1EBE C6 18              8739 	add	a,#0x18
   1EC0 47                 8740 	ld	b,a
                           8741 ; genIpush
   1EC1 78                 8742 	ld	a,b
   1EC2 F5                 8743 	push	af
   1EC3 33                 8744 	inc	sp
                           8745 ; genIpush
                           8746 ; AOP_HL for _pX
   1EC4 21 80 00           8747 	ld	hl,#_pX + 0
   1EC7 7E                 8748 	ld	a,(hl)
   1EC8 F5                 8749 	push	af
   1EC9 33                 8750 	inc	sp
                           8751 ; genIpush
   1ECA 3E 0B              8752 	ld	a,#0x0B
   1ECC F5                 8753 	push	af
   1ECD 33                 8754 	inc	sp
                           8755 ; genCall
   1ECE CD 00 00           8756 	call	_move_sprite
   1ED1 E8 03              8757 	lda	sp,3(sp)
                           8758 ;	ishallbequeen.c 1056
                           8759 ; genIpush
   1ED3 78                 8760 	ld	a,b
   1ED4 F5                 8761 	push	af
   1ED5 33                 8762 	inc	sp
                           8763 ; genIpush
   1ED6 79                 8764 	ld	a,c
   1ED7 F5                 8765 	push	af
   1ED8 33                 8766 	inc	sp
                           8767 ; genIpush
   1ED9 3E 0A              8768 	ld	a,#0x0A
   1EDB F5                 8769 	push	af
   1EDC 33                 8770 	inc	sp
                           8771 ; genCall
   1EDD CD 00 00           8772 	call	_move_sprite
   1EE0 E8 03              8773 	lda	sp,3(sp)
                           8774 ;	ishallbequeen.c 1057
                           8775 ; genIpush
   1EE2 78                 8776 	ld	a,b
   1EE3 F5                 8777 	push	af
   1EE4 33                 8778 	inc	sp
                           8779 ; genIpush
                           8780 ; AOP_STK for _updatePlayer_sloc0_1_0
   1EE5 F8 04              8781 	lda	hl,4(sp)
   1EE7 7E                 8782 	ld	a,(hl)
   1EE8 F5                 8783 	push	af
   1EE9 33                 8784 	inc	sp
                           8785 ; genIpush
   1EEA 3E 09              8786 	ld	a,#0x09
   1EEC F5                 8787 	push	af
   1EED 33                 8788 	inc	sp
                           8789 ; genCall
   1EEE CD 00 00           8790 	call	_move_sprite
   1EF1 E8 03              8791 	lda	sp,3(sp)
                           8792 ;	ishallbequeen.c 1058
                           8793 ; genPlus
                           8794 ; AOP_HL for _pY
                           8795 ; genPlusIncr
   1EF3 21 81 00           8796 	ld	hl,#_pY + 0
   1EF6 7E                 8797 	ld	a,(hl)
   1EF7 C6 20              8798 	add	a,#0x20
   1EF9 47                 8799 	ld	b,a
                           8800 ; genIpush
   1EFA 78                 8801 	ld	a,b
   1EFB F5                 8802 	push	af
   1EFC 33                 8803 	inc	sp
                           8804 ; genIpush
                           8805 ; AOP_HL for _pX
   1EFD 21 80 00           8806 	ld	hl,#_pX + 0
   1F00 7E                 8807 	ld	a,(hl)
   1F01 F5                 8808 	push	af
   1F02 33                 8809 	inc	sp
                           8810 ; genIpush
   1F03 3E 0E              8811 	ld	a,#0x0E
   1F05 F5                 8812 	push	af
   1F06 33                 8813 	inc	sp
                           8814 ; genCall
   1F07 CD 00 00           8815 	call	_move_sprite
   1F0A E8 03              8816 	lda	sp,3(sp)
                           8817 ;	ishallbequeen.c 1059
                           8818 ; genIpush
   1F0C 78                 8819 	ld	a,b
   1F0D F5                 8820 	push	af
   1F0E 33                 8821 	inc	sp
                           8822 ; genIpush
   1F0F 79                 8823 	ld	a,c
   1F10 F5                 8824 	push	af
   1F11 33                 8825 	inc	sp
                           8826 ; genIpush
   1F12 3E 0D              8827 	ld	a,#0x0D
   1F14 F5                 8828 	push	af
   1F15 33                 8829 	inc	sp
                           8830 ; genCall
   1F16 CD 00 00           8831 	call	_move_sprite
   1F19 E8 03              8832 	lda	sp,3(sp)
                           8833 ;	ishallbequeen.c 1060
                           8834 ; genIpush
   1F1B 78                 8835 	ld	a,b
   1F1C F5                 8836 	push	af
   1F1D 33                 8837 	inc	sp
                           8838 ; genIpush
                           8839 ; AOP_STK for _updatePlayer_sloc0_1_0
   1F1E F8 04              8840 	lda	hl,4(sp)
   1F20 7E                 8841 	ld	a,(hl)
   1F21 F5                 8842 	push	af
   1F22 33                 8843 	inc	sp
                           8844 ; genIpush
   1F23 3E 0C              8845 	ld	a,#0x0C
   1F25 F5                 8846 	push	af
   1F26 33                 8847 	inc	sp
                           8848 ; genCall
   1F27 CD 00 00           8849 	call	_move_sprite
   1F2A E8 03              8850 	lda	sp,3(sp)
                           8851 ;	ishallbequeen.c 1061
                           8852 ; genPlus
                           8853 ; AOP_HL for _pY
                           8854 ; genPlusIncr
   1F2C 21 81 00           8855 	ld	hl,#_pY + 0
   1F2F 7E                 8856 	ld	a,(hl)
   1F30 C6 28              8857 	add	a,#0x28
   1F32 47                 8858 	ld	b,a
                           8859 ; genIpush
   1F33 78                 8860 	ld	a,b
   1F34 F5                 8861 	push	af
   1F35 33                 8862 	inc	sp
                           8863 ; genIpush
                           8864 ; AOP_HL for _pX
   1F36 21 80 00           8865 	ld	hl,#_pX + 0
   1F39 7E                 8866 	ld	a,(hl)
   1F3A F5                 8867 	push	af
   1F3B 33                 8868 	inc	sp
                           8869 ; genIpush
   1F3C 3E 11              8870 	ld	a,#0x11
   1F3E F5                 8871 	push	af
   1F3F 33                 8872 	inc	sp
                           8873 ; genCall
   1F40 CD 00 00           8874 	call	_move_sprite
   1F43 E8 03              8875 	lda	sp,3(sp)
                           8876 ;	ishallbequeen.c 1062
                           8877 ; genIpush
   1F45 78                 8878 	ld	a,b
   1F46 F5                 8879 	push	af
   1F47 33                 8880 	inc	sp
                           8881 ; genIpush
   1F48 79                 8882 	ld	a,c
   1F49 F5                 8883 	push	af
   1F4A 33                 8884 	inc	sp
                           8885 ; genIpush
   1F4B 3E 10              8886 	ld	a,#0x10
   1F4D F5                 8887 	push	af
   1F4E 33                 8888 	inc	sp
                           8889 ; genCall
   1F4F CD 00 00           8890 	call	_move_sprite
   1F52 E8 03              8891 	lda	sp,3(sp)
                           8892 ;	ishallbequeen.c 1063
                           8893 ; genIpush
   1F54 78                 8894 	ld	a,b
   1F55 F5                 8895 	push	af
   1F56 33                 8896 	inc	sp
                           8897 ; genIpush
                           8898 ; AOP_STK for _updatePlayer_sloc0_1_0
   1F57 F8 04              8899 	lda	hl,4(sp)
   1F59 7E                 8900 	ld	a,(hl)
   1F5A F5                 8901 	push	af
   1F5B 33                 8902 	inc	sp
                           8903 ; genIpush
   1F5C 3E 0F              8904 	ld	a,#0x0F
   1F5E F5                 8905 	push	af
   1F5F 33                 8906 	inc	sp
                           8907 ; genCall
   1F60 CD 00 00           8908 	call	_move_sprite
   1F63 E8 03              8909 	lda	sp,3(sp)
                           8910 ;	ishallbequeen.c 1065
                           8911 ; genGoto
   1F65 C3 5E 21           8912 	jp	00138$
                           8913 ; genLabel
   1F68                    8914 00120$:
                           8915 ;	ishallbequeen.c 1069
                           8916 ; genCmpEq
                           8917 ; AOP_HL for _flipX
   1F68 21 8B 00           8918 	ld	hl,#_flipX + 0
   1F6B 7E                 8919 	ld	a,(hl)
   1F6C B7                 8920 	or	a,a
                           8921 ; Rule 5
   1F6D CA 7C 1F           8922 	jp	z,00113$
   1F70                    8923 00162$:
                           8924 ; genCmpEq
                           8925 ; AOP_HL for _flipX
   1F70 21 8B 00           8926 	ld	hl,#_flipX + 0
   1F73 7E                 8927 	ld	a,(hl) ; 2
   1F74 FE 01              8928 	cp	a,#0x01
                           8929 ; Rule 5
   1F76 CA 22 21           8930 	jp	z,00117$
   1F79                    8931 00163$:
                           8932 ; genGoto
   1F79 C3 5E 21           8933 	jp	00138$
                           8934 ;	ishallbequeen.c 1080
                           8935 ; genLabel
   1F7C                    8936 00113$:
                           8937 ;	ishallbequeen.c 1072
                           8938 ; genAssign
                           8939 ; AOP_HL for _i
   1F7C 21 0B 00           8940 	ld	hl,#_i + 0
   1F7F 36 00              8941 	ld	(hl),#0x00
                           8942 ; genLabel
   1F81                    8943 00130$:
                           8944 ; genCmpEq
                           8945 ; AOP_HL for _i
   1F81 21 0B 00           8946 	ld	hl,#_i + 0
   1F84 7E                 8947 	ld	a,(hl) ; 2
   1F85 FE 12              8948 	cp	a,#0x12
                           8949 ; Rule 5
   1F87 CA B8 1F           8950 	jp	z,00133$
   1F8A                    8951 00164$:
                           8952 ;	ishallbequeen.c 1074
                           8953 ; genCmpLt
                           8954 ; AOP_HL for _i
   1F8A 21 0B 00           8955 	ld	hl,#_i + 0
   1F8D 7E                 8956 	ld	a,(hl)
   1F8E FE 06              8957 	cp	#0x06
   1F90 D2 A2 1F           8958 	jp	nc,00111$
                           8959 ;	ishallbequeen.c 1075
                           8960 ; genIpush
   1F93 3E 00              8961 	ld	a,#0x00
   1F95 F5                 8962 	push	af
   1F96 33                 8963 	inc	sp
                           8964 ; genIpush
                           8965 ; AOP_HL for _i
   1F97 7E                 8966 	ld	a,(hl)
   1F98 F5                 8967 	push	af
   1F99 33                 8968 	inc	sp
                           8969 ; genCall
   1F9A CD 00 00           8970 	call	_set_sprite_prop
   1F9D E8 02              8971 	lda	sp,2(sp)
                           8972 ; genGoto
   1F9F C3 B1 1F           8973 	jp	00132$
                           8974 ; genLabel
   1FA2                    8975 00111$:
                           8976 ;	ishallbequeen.c 1077
                           8977 ; genIpush
   1FA2 3E 01              8978 	ld	a,#0x01
   1FA4 F5                 8979 	push	af
   1FA5 33                 8980 	inc	sp
                           8981 ; genIpush
                           8982 ; AOP_HL for _i
   1FA6 21 0B 00           8983 	ld	hl,#_i + 0
   1FA9 7E                 8984 	ld	a,(hl)
   1FAA F5                 8985 	push	af
   1FAB 33                 8986 	inc	sp
                           8987 ; genCall
   1FAC CD 00 00           8988 	call	_set_sprite_prop
   1FAF E8 02              8989 	lda	sp,2(sp)
                           8990 ; genLabel
   1FB1                    8991 00132$:
                           8992 ;	ishallbequeen.c 1072
                           8993 ; genPlus
                           8994 ; AOP_HL for _i
                           8995 ; genPlusIncr
   1FB1 21 0B 00           8996 	ld	hl,#_i + 0
   1FB4 34                 8997 	inc	(hl)
                           8998 ; genGoto
   1FB5 C3 81 1F           8999 	jp	00130$
                           9000 ; genLabel
   1FB8                    9001 00133$:
                           9002 ;	ishallbequeen.c 1082
                           9003 ; genPlus
                           9004 ; AOP_HL for _pY
                           9005 ; genPlusIncr
   1FB8 21 81 00           9006 	ld	hl,#_pY + 0
   1FBB 7E                 9007 	ld	a,(hl)
   1FBC C6 18              9008 	add	a,#0x18
   1FBE 4F                 9009 	ld	c,a
                           9010 ; genIpush
   1FBF 79                 9011 	ld	a,c
   1FC0 F5                 9012 	push	af
   1FC1 33                 9013 	inc	sp
                           9014 ; genIpush
                           9015 ; AOP_HL for _pX
   1FC2 21 80 00           9016 	ld	hl,#_pX + 0
   1FC5 7E                 9017 	ld	a,(hl)
   1FC6 F5                 9018 	push	af
   1FC7 33                 9019 	inc	sp
                           9020 ; genIpush
   1FC8 3E 00              9021 	ld	a,#0x00
   1FCA F5                 9022 	push	af
   1FCB 33                 9023 	inc	sp
                           9024 ; genCall
   1FCC CD 00 00           9025 	call	_move_sprite
   1FCF E8 03              9026 	lda	sp,3(sp)
                           9027 ;	ishallbequeen.c 1083
                           9028 ; genPlus
                           9029 ; AOP_HL for _pX
                           9030 ; AOP_STK for _updatePlayer_sloc0_1_0
                           9031 ; genPlusIncr
   1FD1 21 80 00           9032 	ld	hl,#_pX + 0
   1FD4 7E                 9033 	ld	a,(hl)
   1FD5 C6 08              9034 	add	a,#0x08
   1FD7 F8 03              9035 	lda	hl,3(sp)
   1FD9 77                 9036 	ld	(hl),a ; 3
                           9037 ; genIpush
   1FDA 79                 9038 	ld	a,c
   1FDB F5                 9039 	push	af
   1FDC 33                 9040 	inc	sp
                           9041 ; genIpush
                           9042 ; AOP_STK for _updatePlayer_sloc0_1_0
   1FDD 7E                 9043 	ld	a,(hl)
   1FDE F5                 9044 	push	af
   1FDF 33                 9045 	inc	sp
                           9046 ; genIpush
   1FE0 3E 01              9047 	ld	a,#0x01
   1FE2 F5                 9048 	push	af
   1FE3 33                 9049 	inc	sp
                           9050 ; genCall
   1FE4 CD 00 00           9051 	call	_move_sprite
   1FE7 E8 03              9052 	lda	sp,3(sp)
                           9053 ;	ishallbequeen.c 1084
                           9054 ; genPlus
                           9055 ; AOP_HL for _pX
                           9056 ; AOP_STK for _updatePlayer_sloc1_1_0
                           9057 ; genPlusIncr
   1FE9 21 80 00           9058 	ld	hl,#_pX + 0
   1FEC 7E                 9059 	ld	a,(hl)
   1FED C6 10              9060 	add	a,#0x10
   1FEF F8 02              9061 	lda	hl,2(sp)
   1FF1 77                 9062 	ld	(hl),a ; 3
                           9063 ; genIpush
   1FF2 79                 9064 	ld	a,c
   1FF3 F5                 9065 	push	af
   1FF4 33                 9066 	inc	sp
                           9067 ; genIpush
                           9068 ; AOP_STK for _updatePlayer_sloc1_1_0
   1FF5 7E                 9069 	ld	a,(hl)
   1FF6 F5                 9070 	push	af
   1FF7 33                 9071 	inc	sp
                           9072 ; genIpush
   1FF8 3E 02              9073 	ld	a,#0x02
   1FFA F5                 9074 	push	af
   1FFB 33                 9075 	inc	sp
                           9076 ; genCall
   1FFC CD 00 00           9077 	call	_move_sprite
   1FFF E8 03              9078 	lda	sp,3(sp)
                           9079 ;	ishallbequeen.c 1085
                           9080 ; genPlus
                           9081 ; AOP_HL for _pX
                           9082 ; AOP_STK for _updatePlayer_sloc2_1_0
                           9083 ; genPlusIncr
   2001 21 80 00           9084 	ld	hl,#_pX + 0
   2004 7E                 9085 	ld	a,(hl)
   2005 C6 18              9086 	add	a,#0x18
   2007 F8 01              9087 	lda	hl,1(sp)
   2009 77                 9088 	ld	(hl),a ; 3
                           9089 ; genIpush
   200A 79                 9090 	ld	a,c
   200B F5                 9091 	push	af
   200C 33                 9092 	inc	sp
                           9093 ; genIpush
                           9094 ; AOP_STK for _updatePlayer_sloc2_1_0
   200D 7E                 9095 	ld	a,(hl)
   200E F5                 9096 	push	af
   200F 33                 9097 	inc	sp
                           9098 ; genIpush
   2010 3E 03              9099 	ld	a,#0x03
   2012 F5                 9100 	push	af
   2013 33                 9101 	inc	sp
                           9102 ; genCall
   2014 CD 00 00           9103 	call	_move_sprite
   2017 E8 03              9104 	lda	sp,3(sp)
                           9105 ;	ishallbequeen.c 1086
                           9106 ; genPlus
                           9107 ; AOP_HL for _pX
                           9108 ; AOP_STK for _updatePlayer_sloc3_1_0
                           9109 ; genPlusIncr
   2019 21 80 00           9110 	ld	hl,#_pX + 0
   201C 7E                 9111 	ld	a,(hl)
   201D C6 20              9112 	add	a,#0x20
   201F F8 00              9113 	lda	hl,0(sp)
   2021 77                 9114 	ld	(hl),a ; 3
                           9115 ; genIpush
   2022 79                 9116 	ld	a,c
   2023 F5                 9117 	push	af
   2024 33                 9118 	inc	sp
                           9119 ; genIpush
                           9120 ; AOP_STK for _updatePlayer_sloc3_1_0
   2025 7E                 9121 	ld	a,(hl)
   2026 F5                 9122 	push	af
   2027 33                 9123 	inc	sp
                           9124 ; genIpush
   2028 3E 04              9125 	ld	a,#0x04
   202A F5                 9126 	push	af
   202B 33                 9127 	inc	sp
                           9128 ; genCall
   202C CD 00 00           9129 	call	_move_sprite
   202F E8 03              9130 	lda	sp,3(sp)
                           9131 ;	ishallbequeen.c 1087
                           9132 ; genPlus
                           9133 ; AOP_HL for _pX
                           9134 ; genPlusIncr
   2031 21 80 00           9135 	ld	hl,#_pX + 0
   2034 7E                 9136 	ld	a,(hl)
   2035 C6 28              9137 	add	a,#0x28
   2037 47                 9138 	ld	b,a
                           9139 ; genIpush
   2038 79                 9140 	ld	a,c
   2039 F5                 9141 	push	af
   203A 33                 9142 	inc	sp
                           9143 ; genIpush
   203B 78                 9144 	ld	a,b
   203C F5                 9145 	push	af
   203D 33                 9146 	inc	sp
                           9147 ; genIpush
   203E 3E 05              9148 	ld	a,#0x05
   2040 F5                 9149 	push	af
   2041 33                 9150 	inc	sp
                           9151 ; genCall
   2042 CD 00 00           9152 	call	_move_sprite
   2045 E8 03              9153 	lda	sp,3(sp)
                           9154 ;	ishallbequeen.c 1089
                           9155 ; genPlus
                           9156 ; AOP_HL for _pY
                           9157 ; genPlusIncr
   2047 21 81 00           9158 	ld	hl,#_pY + 0
   204A 7E                 9159 	ld	a,(hl)
   204B C6 20              9160 	add	a,#0x20
   204D 4F                 9161 	ld	c,a
                           9162 ; genIpush
   204E 79                 9163 	ld	a,c
   204F F5                 9164 	push	af
   2050 33                 9165 	inc	sp
                           9166 ; genIpush
                           9167 ; AOP_HL for _pX
   2051 21 80 00           9168 	ld	hl,#_pX + 0
   2054 7E                 9169 	ld	a,(hl)
   2055 F5                 9170 	push	af
   2056 33                 9171 	inc	sp
                           9172 ; genIpush
   2057 3E 06              9173 	ld	a,#0x06
   2059 F5                 9174 	push	af
   205A 33                 9175 	inc	sp
                           9176 ; genCall
   205B CD 00 00           9177 	call	_move_sprite
   205E E8 03              9178 	lda	sp,3(sp)
                           9179 ;	ishallbequeen.c 1090
                           9180 ; genIpush
   2060 79                 9181 	ld	a,c
   2061 F5                 9182 	push	af
   2062 33                 9183 	inc	sp
                           9184 ; genIpush
                           9185 ; AOP_STK for _updatePlayer_sloc0_1_0
   2063 F8 04              9186 	lda	hl,4(sp)
   2065 7E                 9187 	ld	a,(hl)
   2066 F5                 9188 	push	af
   2067 33                 9189 	inc	sp
                           9190 ; genIpush
   2068 3E 07              9191 	ld	a,#0x07
   206A F5                 9192 	push	af
   206B 33                 9193 	inc	sp
                           9194 ; genCall
   206C CD 00 00           9195 	call	_move_sprite
   206F E8 03              9196 	lda	sp,3(sp)
                           9197 ;	ishallbequeen.c 1091
                           9198 ; genIpush
   2071 79                 9199 	ld	a,c
   2072 F5                 9200 	push	af
   2073 33                 9201 	inc	sp
                           9202 ; genIpush
                           9203 ; AOP_STK for _updatePlayer_sloc1_1_0
   2074 F8 03              9204 	lda	hl,3(sp)
   2076 7E                 9205 	ld	a,(hl)
   2077 F5                 9206 	push	af
   2078 33                 9207 	inc	sp
                           9208 ; genIpush
   2079 3E 08              9209 	ld	a,#0x08
   207B F5                 9210 	push	af
   207C 33                 9211 	inc	sp
                           9212 ; genCall
   207D CD 00 00           9213 	call	_move_sprite
   2080 E8 03              9214 	lda	sp,3(sp)
                           9215 ;	ishallbequeen.c 1092
                           9216 ; genIpush
   2082 79                 9217 	ld	a,c
   2083 F5                 9218 	push	af
   2084 33                 9219 	inc	sp
                           9220 ; genIpush
                           9221 ; AOP_STK for _updatePlayer_sloc2_1_0
   2085 F8 02              9222 	lda	hl,2(sp)
   2087 7E                 9223 	ld	a,(hl)
   2088 F5                 9224 	push	af
   2089 33                 9225 	inc	sp
                           9226 ; genIpush
   208A 3E 09              9227 	ld	a,#0x09
   208C F5                 9228 	push	af
   208D 33                 9229 	inc	sp
                           9230 ; genCall
   208E CD 00 00           9231 	call	_move_sprite
   2091 E8 03              9232 	lda	sp,3(sp)
                           9233 ;	ishallbequeen.c 1093
                           9234 ; genIpush
   2093 79                 9235 	ld	a,c
   2094 F5                 9236 	push	af
   2095 33                 9237 	inc	sp
                           9238 ; genIpush
                           9239 ; AOP_STK for _updatePlayer_sloc3_1_0
   2096 F8 01              9240 	lda	hl,1(sp)
   2098 7E                 9241 	ld	a,(hl)
   2099 F5                 9242 	push	af
   209A 33                 9243 	inc	sp
                           9244 ; genIpush
   209B 3E 0A              9245 	ld	a,#0x0A
   209D F5                 9246 	push	af
   209E 33                 9247 	inc	sp
                           9248 ; genCall
   209F CD 00 00           9249 	call	_move_sprite
   20A2 E8 03              9250 	lda	sp,3(sp)
                           9251 ;	ishallbequeen.c 1094
                           9252 ; genIpush
   20A4 79                 9253 	ld	a,c
   20A5 F5                 9254 	push	af
   20A6 33                 9255 	inc	sp
                           9256 ; genIpush
   20A7 78                 9257 	ld	a,b
   20A8 F5                 9258 	push	af
   20A9 33                 9259 	inc	sp
                           9260 ; genIpush
   20AA 3E 0B              9261 	ld	a,#0x0B
   20AC F5                 9262 	push	af
   20AD 33                 9263 	inc	sp
                           9264 ; genCall
   20AE CD 00 00           9265 	call	_move_sprite
   20B1 E8 03              9266 	lda	sp,3(sp)
                           9267 ;	ishallbequeen.c 1096
                           9268 ; genPlus
                           9269 ; AOP_HL for _pY
                           9270 ; genPlusIncr
   20B3 21 81 00           9271 	ld	hl,#_pY + 0
   20B6 7E                 9272 	ld	a,(hl)
   20B7 C6 28              9273 	add	a,#0x28
   20B9 4F                 9274 	ld	c,a
                           9275 ; genIpush
   20BA 79                 9276 	ld	a,c
   20BB F5                 9277 	push	af
   20BC 33                 9278 	inc	sp
                           9279 ; genIpush
                           9280 ; AOP_HL for _pX
   20BD 21 80 00           9281 	ld	hl,#_pX + 0
   20C0 7E                 9282 	ld	a,(hl)
   20C1 F5                 9283 	push	af
   20C2 33                 9284 	inc	sp
                           9285 ; genIpush
   20C3 3E 0C              9286 	ld	a,#0x0C
   20C5 F5                 9287 	push	af
   20C6 33                 9288 	inc	sp
                           9289 ; genCall
   20C7 CD 00 00           9290 	call	_move_sprite
   20CA E8 03              9291 	lda	sp,3(sp)
                           9292 ;	ishallbequeen.c 1097
                           9293 ; genIpush
   20CC 79                 9294 	ld	a,c
   20CD F5                 9295 	push	af
   20CE 33                 9296 	inc	sp
                           9297 ; genIpush
                           9298 ; AOP_STK for _updatePlayer_sloc0_1_0
   20CF F8 04              9299 	lda	hl,4(sp)
   20D1 7E                 9300 	ld	a,(hl)
   20D2 F5                 9301 	push	af
   20D3 33                 9302 	inc	sp
                           9303 ; genIpush
   20D4 3E 0D              9304 	ld	a,#0x0D
   20D6 F5                 9305 	push	af
   20D7 33                 9306 	inc	sp
                           9307 ; genCall
   20D8 CD 00 00           9308 	call	_move_sprite
   20DB E8 03              9309 	lda	sp,3(sp)
                           9310 ;	ishallbequeen.c 1098
                           9311 ; genIpush
   20DD 79                 9312 	ld	a,c
   20DE F5                 9313 	push	af
   20DF 33                 9314 	inc	sp
                           9315 ; genIpush
                           9316 ; AOP_STK for _updatePlayer_sloc1_1_0
   20E0 F8 03              9317 	lda	hl,3(sp)
   20E2 7E                 9318 	ld	a,(hl)
   20E3 F5                 9319 	push	af
   20E4 33                 9320 	inc	sp
                           9321 ; genIpush
   20E5 3E 0E              9322 	ld	a,#0x0E
   20E7 F5                 9323 	push	af
   20E8 33                 9324 	inc	sp
                           9325 ; genCall
   20E9 CD 00 00           9326 	call	_move_sprite
   20EC E8 03              9327 	lda	sp,3(sp)
                           9328 ;	ishallbequeen.c 1099
                           9329 ; genIpush
   20EE 79                 9330 	ld	a,c
   20EF F5                 9331 	push	af
   20F0 33                 9332 	inc	sp
                           9333 ; genIpush
                           9334 ; AOP_STK for _updatePlayer_sloc2_1_0
   20F1 F8 02              9335 	lda	hl,2(sp)
   20F3 7E                 9336 	ld	a,(hl)
   20F4 F5                 9337 	push	af
   20F5 33                 9338 	inc	sp
                           9339 ; genIpush
   20F6 3E 0F              9340 	ld	a,#0x0F
   20F8 F5                 9341 	push	af
   20F9 33                 9342 	inc	sp
                           9343 ; genCall
   20FA CD 00 00           9344 	call	_move_sprite
   20FD E8 03              9345 	lda	sp,3(sp)
                           9346 ;	ishallbequeen.c 1100
                           9347 ; genIpush
   20FF 79                 9348 	ld	a,c
   2100 F5                 9349 	push	af
   2101 33                 9350 	inc	sp
                           9351 ; genIpush
                           9352 ; AOP_STK for _updatePlayer_sloc3_1_0
   2102 F8 01              9353 	lda	hl,1(sp)
   2104 7E                 9354 	ld	a,(hl)
   2105 F5                 9355 	push	af
   2106 33                 9356 	inc	sp
                           9357 ; genIpush
   2107 3E 10              9358 	ld	a,#0x10
   2109 F5                 9359 	push	af
   210A 33                 9360 	inc	sp
                           9361 ; genCall
   210B CD 00 00           9362 	call	_move_sprite
   210E E8 03              9363 	lda	sp,3(sp)
                           9364 ;	ishallbequeen.c 1101
                           9365 ; genIpush
   2110 79                 9366 	ld	a,c
   2111 F5                 9367 	push	af
   2112 33                 9368 	inc	sp
                           9369 ; genIpush
   2113 78                 9370 	ld	a,b
   2114 F5                 9371 	push	af
   2115 33                 9372 	inc	sp
                           9373 ; genIpush
   2116 3E 11              9374 	ld	a,#0x11
   2118 F5                 9375 	push	af
   2119 33                 9376 	inc	sp
                           9377 ; genCall
   211A CD 00 00           9378 	call	_move_sprite
   211D E8 03              9379 	lda	sp,3(sp)
                           9380 ;	ishallbequeen.c 1102
                           9381 ; genGoto
   211F C3 5E 21           9382 	jp	00138$
                           9383 ;	ishallbequeen.c 1112
                           9384 ; genLabel
   2122                    9385 00117$:
                           9386 ;	ishallbequeen.c 1106
                           9387 ; genAssign
                           9388 ; AOP_HL for _i
   2122 21 0B 00           9389 	ld	hl,#_i + 0
   2125 36 00              9390 	ld	(hl),#0x00
                           9391 ; genLabel
   2127                    9392 00134$:
                           9393 ; genCmpEq
                           9394 ; AOP_HL for _i
   2127 21 0B 00           9395 	ld	hl,#_i + 0
   212A 7E                 9396 	ld	a,(hl) ; 2
   212B FE 12              9397 	cp	a,#0x12
                           9398 ; Rule 5
   212D CA 5E 21           9399 	jp	z,00138$
   2130                    9400 00165$:
                           9401 ;	ishallbequeen.c 1107
                           9402 ; genCmpLt
                           9403 ; AOP_HL for _i
   2130 21 0B 00           9404 	ld	hl,#_i + 0
   2133 7E                 9405 	ld	a,(hl)
   2134 FE 06              9406 	cp	#0x06
   2136 D2 48 21           9407 	jp	nc,00115$
                           9408 ;	ishallbequeen.c 1108
                           9409 ; genIpush
   2139 3E 20              9410 	ld	a,#0x20
   213B F5                 9411 	push	af
   213C 33                 9412 	inc	sp
                           9413 ; genIpush
                           9414 ; AOP_HL for _i
   213D 7E                 9415 	ld	a,(hl)
   213E F5                 9416 	push	af
   213F 33                 9417 	inc	sp
                           9418 ; genCall
   2140 CD 00 00           9419 	call	_set_sprite_prop
   2143 E8 02              9420 	lda	sp,2(sp)
                           9421 ; genGoto
   2145 C3 57 21           9422 	jp	00136$
                           9423 ; genLabel
   2148                    9424 00115$:
                           9425 ;	ishallbequeen.c 1110
                           9426 ; genIpush
   2148 3E 21              9427 	ld	a,#0x21
   214A F5                 9428 	push	af
   214B 33                 9429 	inc	sp
                           9430 ; genIpush
                           9431 ; AOP_HL for _i
   214C 21 0B 00           9432 	ld	hl,#_i + 0
   214F 7E                 9433 	ld	a,(hl)
   2150 F5                 9434 	push	af
   2151 33                 9435 	inc	sp
                           9436 ; genCall
   2152 CD 00 00           9437 	call	_set_sprite_prop
   2155 E8 02              9438 	lda	sp,2(sp)
                           9439 ; genLabel
   2157                    9440 00136$:
                           9441 ;	ishallbequeen.c 1106
                           9442 ; genPlus
                           9443 ; AOP_HL for _i
                           9444 ; genPlusIncr
   2157 21 0B 00           9445 	ld	hl,#_i + 0
   215A 34                 9446 	inc	(hl)
                           9447 ; genGoto
   215B C3 27 21           9448 	jp	00134$
                           9449 ;	ishallbequeen.c 1138
                           9450 ; genLabel
   215E                    9451 00138$:
                           9452 ; genEndFunction
   215E E8 04              9453 	lda	sp,4(sp)
   2160 C1                 9454 	pop bc
   2161 C9                 9455 	ret
   2162                    9456 ___updatePlayer_end:
                           9457 ;	ishallbequeen.c 1150
                           9458 ; genLabel
                           9459 ; genFunction
                           9460 ;	---------------------------------
                           9461 ; Function checkCollisions
                           9462 ; ---------------------------------
   2162                    9463 ___checkCollisions_start:
   2162                    9464 _checkCollisions:
   2162 C5                 9465 	push	bc
   2163 E8 DB              9466 	lda sp,-37(sp)
                           9467 ;	ishallbequeen.c 1153
                           9468 ; genPlus
                           9469 ; AOP_HL for _pY
                           9470 ; AOP_STK for _checkCollisions_sloc2_1_0
                           9471 ; genPlusIncr
   2165 21 81 00           9472 	ld	hl,#_pY + 0
   2168 7E                 9473 	ld	a,(hl)
   2169 C6 10              9474 	add	a,#0x10
   216B F8 22              9475 	lda	hl,34(sp)
   216D 77                 9476 	ld	(hl),a ; 3
                           9477 ; genPlus
                           9478 ; AOP_HL for _pX
                           9479 ; AOP_STK for _checkCollisions_sloc0_1_0
                           9480 ; genPlusIncr
   216E 21 80 00           9481 	ld	hl,#_pX + 0
   2171 7E                 9482 	ld	a,(hl)
   2172 C6 02              9483 	add	a,#0x02
   2174 F8 24              9484 	lda	hl,36(sp)
   2176 77                 9485 	ld	(hl),a ; 3
                           9486 ; genIpush
   2177 3E 08              9487 	ld	a,#0x08
   2179 F5                 9488 	push	af
   217A 33                 9489 	inc	sp
                           9490 ; genIpush
   217B 3E 08              9491 	ld	a,#0x08
   217D F5                 9492 	push	af
   217E 33                 9493 	inc	sp
                           9494 ; genIpush
                           9495 ; AOP_HL for _powerUpY
   217F 21 27 00           9496 	ld	hl,#_powerUpY + 0
   2182 7E                 9497 	ld	a,(hl)
   2183 F5                 9498 	push	af
   2184 33                 9499 	inc	sp
                           9500 ; genIpush
                           9501 ; AOP_HL for _powerUpX
   2185 21 26 00           9502 	ld	hl,#_powerUpX + 0
   2188 7E                 9503 	ld	a,(hl)
   2189 F5                 9504 	push	af
   218A 33                 9505 	inc	sp
                           9506 ; genIpush
   218B 3E 18              9507 	ld	a,#0x18
   218D F5                 9508 	push	af
   218E 33                 9509 	inc	sp
                           9510 ; genIpush
   218F 3E 0C              9511 	ld	a,#0x0C
   2191 F5                 9512 	push	af
   2192 33                 9513 	inc	sp
                           9514 ; genIpush
                           9515 ; AOP_STK for _checkCollisions_sloc2_1_0
   2193 F8 28              9516 	lda	hl,40(sp)
   2195 7E                 9517 	ld	a,(hl)
   2196 F5                 9518 	push	af
   2197 33                 9519 	inc	sp
                           9520 ; genIpush
                           9521 ; AOP_STK for _checkCollisions_sloc0_1_0
   2198 23                 9522 	inc	hl
   2199 23                 9523 	inc	hl
   219A 7E                 9524 	ld	a,(hl)
   219B F5                 9525 	push	af
   219C 33                 9526 	inc	sp
                           9527 ; genCall
   219D CD AF 25           9528 	call	_collisionCheck
   21A0 43                 9529 	ld	b,e
   21A1 E8 08              9530 	lda	sp,8(sp)
                           9531 ; genCmpEq
   21A3 78                 9532 	ld	a,b ; 2
   21A4 FE 01              9533 	cp	a,#0x01
   21A6 C2 AB 21           9534 	jp	nz,00199$
   21A9 18 03              9535 	jr	00200$
   21AB                    9536 00199$:
   21AB C3 19 22           9537 	jp	00109$
   21AE                    9538 00200$:
                           9539 ;	ishallbequeen.c 1154
                           9540 ; genAssign
                           9541 ; AOP_HL for _powerUpY
   21AE 21 27 00           9542 	ld	hl,#_powerUpY + 0
   21B1 36 BE              9543 	ld	(hl),#0xBE
                           9544 ;	ishallbequeen.c 1155
                           9545 ; genAssign
                           9546 ; AOP_HL for _powerUpNoise
   21B3 21 29 00           9547 	ld	hl,#_powerUpNoise + 0
   21B6 36 AA              9548 	ld	(hl),#0xAA
                           9549 ;	ishallbequeen.c 1156
                           9550 ; genIpush
   21B8 3E BE              9551 	ld	a,#0xBE
   21BA F5                 9552 	push	af
   21BB 33                 9553 	inc	sp
                           9554 ; genIpush
                           9555 ; AOP_HL for _powerUpX
   21BC 21 26 00           9556 	ld	hl,#_powerUpX + 0
   21BF 7E                 9557 	ld	a,(hl)
   21C0 F5                 9558 	push	af
   21C1 33                 9559 	inc	sp
                           9560 ; genIpush
   21C2 3E 22              9561 	ld	a,#0x22
   21C4 F5                 9562 	push	af
   21C5 33                 9563 	inc	sp
                           9564 ; genCall
   21C6 CD 00 00           9565 	call	_move_sprite
   21C9 E8 03              9566 	lda	sp,3(sp)
                           9567 ;	ishallbequeen.c 1157
                           9568 ; genCmpEq
                           9569 ; AOP_HL for _powerUpType
   21CB 21 28 00           9570 	ld	hl,#_powerUpType + 0
   21CE 7E                 9571 	ld	a,(hl)
   21CF B7                 9572 	or	a,a
   21D0 C2 D5 21           9573 	jp	nz,00201$
   21D3 18 03              9574 	jr	00202$
   21D5                    9575 00201$:
   21D5 C3 FA 21           9576 	jp	00106$
   21D8                    9577 00202$:
                           9578 ;	ishallbequeen.c 1159
                           9579 ; genPlus
                           9580 ; AOP_HL for _HP
                           9581 ; genPlusIncr
   21D8 21 88 00           9582 	ld	hl,#_HP + 0
   21DB 7E                 9583 	ld	a,(hl)
   21DC C6 0A              9584 	add	a,#0x0A
   21DE 77                 9585 	ld	(hl),a
                           9586 ;	ishallbequeen.c 1160
                           9587 ; genCmpGt
                           9588 ; AOP_HL for _HP
   21DF AF                 9589 	xor	a,a
   21E0 3E 20              9590 	ld	a,#0x20
   21E2 9E                 9591 	sbc	a,(hl) ; 2
   21E3 D2 E8 21           9592 	jp	nc,00102$
                           9593 ; genAssign
                           9594 ; AOP_HL for _HP
   21E6 36 20              9595 	ld	(hl),#0x20
                           9596 ; genLabel
   21E8                    9597 00102$:
                           9598 ;	ishallbequeen.c 1161
                           9599 ; genIpush
                           9600 ; AOP_HL for _HP
   21E8 21 88 00           9601 	ld	hl,#_HP + 0
   21EB 7E                 9602 	ld	a,(hl)
   21EC F5                 9603 	push	af
   21ED 33                 9604 	inc	sp
                           9605 ; genIpush
   21EE 3E 00              9606 	ld	a,#0x00
   21F0 F5                 9607 	push	af
   21F1 33                 9608 	inc	sp
                           9609 ; genCall
   21F2 CD 1C 0F           9610 	call	_updateBar
   21F5 E8 02              9611 	lda	sp,2(sp)
                           9612 ; genGoto
   21F7 C3 19 22           9613 	jp	00109$
                           9614 ; genLabel
   21FA                    9615 00106$:
                           9616 ;	ishallbequeen.c 1163
                           9617 ; genPlus
                           9618 ; AOP_HL for _MP
                           9619 ; genPlusIncr
   21FA 21 89 00           9620 	ld	hl,#_MP + 0
   21FD 7E                 9621 	ld	a,(hl)
   21FE C6 0A              9622 	add	a,#0x0A
   2200 77                 9623 	ld	(hl),a
                           9624 ;	ishallbequeen.c 1164
                           9625 ; genCmpGt
                           9626 ; AOP_HL for _MP
   2201 AF                 9627 	xor	a,a
   2202 3E 20              9628 	ld	a,#0x20
   2204 9E                 9629 	sbc	a,(hl) ; 2
   2205 D2 0A 22           9630 	jp	nc,00104$
                           9631 ; genAssign
                           9632 ; AOP_HL for _MP
   2208 36 20              9633 	ld	(hl),#0x20
                           9634 ; genLabel
   220A                    9635 00104$:
                           9636 ;	ishallbequeen.c 1165
                           9637 ; genIpush
                           9638 ; AOP_HL for _MP
   220A 21 89 00           9639 	ld	hl,#_MP + 0
   220D 7E                 9640 	ld	a,(hl)
   220E F5                 9641 	push	af
   220F 33                 9642 	inc	sp
                           9643 ; genIpush
   2210 3E 01              9644 	ld	a,#0x01
   2212 F5                 9645 	push	af
   2213 33                 9646 	inc	sp
                           9647 ; genCall
   2214 CD 1C 0F           9648 	call	_updateBar
   2217 E8 02              9649 	lda	sp,2(sp)
                           9650 ; genLabel
   2219                    9651 00109$:
                           9652 ;	ishallbequeen.c 1171
                           9653 ; genCmpEq
                           9654 ; AOP_HL for _iFrames
   2219 21 87 00           9655 	ld	hl,#_iFrames + 0
   221C 7E                 9656 	ld	a,(hl)
   221D B7                 9657 	or	a,a
   221E C2 23 22           9658 	jp	nz,00203$
   2221 18 03              9659 	jr	00204$
   2223                    9660 00203$:
   2223 C3 AB 25           9661 	jp	00163$
   2226                    9662 00204$:
                           9663 ;	ishallbequeen.c 1172
                           9664 ; genAssign
                           9665 ; AOP_HL for _m
   2226 21 0F 00           9666 	ld	hl,#_m + 0
   2229 36 00              9667 	ld	(hl),#0x00
                           9668 ; genLabel
   222B                    9669 00159$:
                           9670 ; genCmpEq
                           9671 ; AOP_HL for _m
   222B 21 0F 00           9672 	ld	hl,#_m + 0
   222E 7E                 9673 	ld	a,(hl) ; 2
   222F FE 03              9674 	cp	a,#0x03
                           9675 ; Rule 5
   2231 CA AB 25           9676 	jp	z,00163$
   2234                    9677 00205$:
                           9678 ;	ishallbequeen.c 1174
                           9679 ; genAssign
                           9680 ; AOP_HL for _m
   2234 21 0F 00           9681 	ld	hl,#_m + 0
   2237 46                 9682 	ld	b,(hl)
                           9683 ; genPlus
   2238 3E B8              9684 	ld	a,#<_eHP
   223A 80                 9685 	add	a,b
   223B 5F                 9686 	ld	e,a
   223C 3E 00              9687 	ld	a,#>_eHP
   223E CE 00              9688 	adc	a,#0x00
   2240 57                 9689 	ld	d,a
                           9690 ; genPointerGet
   2241 1A                 9691 	ld	a,(de)
   2242 47                 9692 	ld	b,a
                           9693 ; genCmpLt
   2243 78                 9694 	ld	a,b
   2244 FE 80              9695 	cp	#0x80
   2246 D2 A4 25           9696 	jp	nc,00161$
                           9697 ;	ishallbequeen.c 1176
                           9698 ; genAssign
                           9699 ; AOP_HL for _m
   2249 46                 9700 	ld	b,(hl)
                           9701 ; genPlus
   224A 3E AF              9702 	ld	a,#<_eY
   224C 80                 9703 	add	a,b
   224D 5F                 9704 	ld	e,a
   224E 3E 00              9705 	ld	a,#>_eY
   2250 CE 00              9706 	adc	a,#0x00
   2252 57                 9707 	ld	d,a
                           9708 ; genPointerGet
   2253 1A                 9709 	ld	a,(de)
   2254 47                 9710 	ld	b,a
                           9711 ; genPlus
                           9712 ; AOP_STK for _checkCollisions_sloc1_1_0
                           9713 ; genPlusIncr
   2255 78                 9714 	ld	a,b
   2256 C6 02              9715 	add	a,#0x02
   2258 F8 23              9716 	lda	hl,35(sp)
   225A 77                 9717 	ld	(hl),a ; 3
                           9718 ; genAssign
                           9719 ; AOP_HL for _m
   225B 21 0F 00           9720 	ld	hl,#_m + 0
   225E 46                 9721 	ld	b,(hl)
                           9722 ; genPlus
   225F 3E AC              9723 	ld	a,#<_eX
   2261 80                 9724 	add	a,b
   2262 5F                 9725 	ld	e,a
   2263 3E 00              9726 	ld	a,#>_eX
   2265 CE 00              9727 	adc	a,#0x00
   2267 57                 9728 	ld	d,a
                           9729 ; genPointerGet
   2268 1A                 9730 	ld	a,(de)
   2269 47                 9731 	ld	b,a
                           9732 ; genPlus
                           9733 ; genPlusIncr
   226A 04                 9734 	inc	b
   226B 04                 9735 	inc	b
                           9736 ; genIpush
   226C 3E 0C              9737 	ld	a,#0x0C
   226E F5                 9738 	push	af
   226F 33                 9739 	inc	sp
                           9740 ; genIpush
   2270 3E 0C              9741 	ld	a,#0x0C
   2272 F5                 9742 	push	af
   2273 33                 9743 	inc	sp
                           9744 ; genIpush
                           9745 ; AOP_STK for _checkCollisions_sloc1_1_0
   2274 F8 25              9746 	lda	hl,37(sp)
   2276 7E                 9747 	ld	a,(hl)
   2277 F5                 9748 	push	af
   2278 33                 9749 	inc	sp
                           9750 ; genIpush
   2279 78                 9751 	ld	a,b
   227A F5                 9752 	push	af
   227B 33                 9753 	inc	sp
                           9754 ; genIpush
   227C 3E 18              9755 	ld	a,#0x18
   227E F5                 9756 	push	af
   227F 33                 9757 	inc	sp
                           9758 ; genIpush
   2280 3E 0C              9759 	ld	a,#0x0C
   2282 F5                 9760 	push	af
   2283 33                 9761 	inc	sp
                           9762 ; genIpush
                           9763 ; AOP_STK for _checkCollisions_sloc2_1_0
   2284 2B                 9764 	dec	hl
   2285 7E                 9765 	ld	a,(hl)
   2286 F5                 9766 	push	af
   2287 33                 9767 	inc	sp
                           9768 ; genIpush
                           9769 ; AOP_STK for _checkCollisions_sloc0_1_0
   2288 23                 9770 	inc	hl
   2289 23                 9771 	inc	hl
   228A 7E                 9772 	ld	a,(hl)
   228B F5                 9773 	push	af
   228C 33                 9774 	inc	sp
                           9775 ; genCall
   228D CD AF 25           9776 	call	_collisionCheck
   2290 43                 9777 	ld	b,e
   2291 E8 08              9778 	lda	sp,8(sp)
                           9779 ; genCmpEq
   2293 78                 9780 	ld	a,b ; 2
   2294 FE 01              9781 	cp	a,#0x01
   2296 C2 9B 22           9782 	jp	nz,00206$
   2299 18 03              9783 	jr	00207$
   229B                    9784 00206$:
   229B C3 A4 25           9785 	jp	00161$
   229E                    9786 00207$:
                           9787 ;	ishallbequeen.c 1177
                           9788 ; genAssign
                           9789 ; AOP_HL for _m
   229E 21 0F 00           9790 	ld	hl,#_m + 0
   22A1 46                 9791 	ld	b,(hl)
                           9792 ; genPlus
   22A2 3E C1              9793 	ld	a,#<_eDamage
   22A4 80                 9794 	add	a,b
   22A5 5F                 9795 	ld	e,a
   22A6 3E 00              9796 	ld	a,#>_eDamage
   22A8 CE 00              9797 	adc	a,#0x00
   22AA 57                 9798 	ld	d,a
                           9799 ; genPointerGet
   22AB 1A                 9800 	ld	a,(de)
   22AC 47                 9801 	ld	b,a
                           9802 ; genMinus
                           9803 ; AOP_HL for _HP
   22AD 21 88 00           9804 	ld	hl,#_HP + 0
   22B0 7E                 9805 	ld	a,(hl)
   22B1 90                 9806 	sub	a,b
   22B2 77                 9807 	ld	(hl),a
                           9808 ;	ishallbequeen.c 1178
                           9809 ; genIpush
                           9810 ; AOP_HL for _HP
   22B3 7E                 9811 	ld	a,(hl)
   22B4 F5                 9812 	push	af
   22B5 33                 9813 	inc	sp
                           9814 ; genIpush
   22B6 3E 00              9815 	ld	a,#0x00
   22B8 F5                 9816 	push	af
   22B9 33                 9817 	inc	sp
                           9818 ; genCall
   22BA CD 1C 0F           9819 	call	_updateBar
   22BD E8 02              9820 	lda	sp,2(sp)
                           9821 ;	ishallbequeen.c 1181
                           9822 ; genAssign
                           9823 ; AOP_HL for _playerFrame
   22BF 21 83 00           9824 	ld	hl,#_playerFrame + 0
   22C2 36 08              9825 	ld	(hl),#0x08
                           9826 ;	ishallbequeen.c 1182
                           9827 ; genCall
   22C4 CD 6D 1B           9828 	call	_updatePlayerFrame
                           9829 ;	ishallbequeen.c 1183
                           9830 ; genCmpEq
                           9831 ; AOP_HL for _HP
   22C7 21 88 00           9832 	ld	hl,#_HP + 0
   22CA 7E                 9833 	ld	a,(hl)
   22CB B7                 9834 	or	a,a
                           9835 ; Rule 5
   22CC CA D9 22           9836 	jp	z,00146$
   22CF                    9837 00208$:
                           9838 ; genCmpGt
                           9839 ; AOP_HL for _HP
   22CF AF                 9840 	xor	a,a
   22D0 3E 20              9841 	ld	a,#0x20
   22D2 21 88 00           9842 	ld	hl,#_HP + 0
   22D5 9E                 9843 	sbc	a,(hl) ; 2
   22D6 D2 9F 25           9844 	jp	nc,00147$
                           9845 ; genLabel
   22D9                    9846 00146$:
                           9847 ;	ishallbequeen.c 1184
                           9848 ; genAssign
                           9849 ; AOP_HL for _HP
   22D9 21 88 00           9850 	ld	hl,#_HP + 0
   22DC 36 00              9851 	ld	(hl),#0x00
                           9852 ;	ishallbequeen.c 1185
                           9853 ; genAssign
                           9854 ; AOP_HL for _flipX
   22DE 21 8B 00           9855 	ld	hl,#_flipX + 0
   22E1 36 00              9856 	ld	(hl),#0x00
                           9857 ;	ishallbequeen.c 1186
                           9858 ; genIpush
   22E3 3E 00              9859 	ld	a,#0x00
   22E5 F5                 9860 	push	af
   22E6 33                 9861 	inc	sp
                           9862 ; genIpush
   22E7 3E 00              9863 	ld	a,#0x00
   22E9 F5                 9864 	push	af
   22EA 33                 9865 	inc	sp
                           9866 ; genCall
   22EB CD 1C 0F           9867 	call	_updateBar
   22EE E8 02              9868 	lda	sp,2(sp)
                           9869 ;	ishallbequeen.c 1187
                           9870 ; genAssign
                           9871 ; AOP_HL for _playerFrame
   22F0 21 83 00           9872 	ld	hl,#_playerFrame + 0
   22F3 36 09              9873 	ld	(hl),#0x09
                           9874 ;	ishallbequeen.c 1188
                           9875 ; genCall
   22F5 CD 6D 1B           9876 	call	_updatePlayerFrame
                           9877 ;	ishallbequeen.c 1189
                           9878 ; genCall
   22F8 CD 44 29           9879 	call	_stopAllSounds
                           9880 ;	ishallbequeen.c 1191
                           9881 ; genAssign
                           9882 ; AOP_HL for _n
   22FB 21 10 00           9883 	ld	hl,#_n + 0
   22FE 36 00              9884 	ld	(hl),#0x00
                           9885 ; genLabel
   2300                    9886 00155$:
                           9887 ; genCmpEq
                           9888 ; AOP_HL for _n
                           9889 ; AOP_STK for _checkCollisions_sloc1_1_0
   2300 21 10 00           9890 	ld	hl,#_n + 0
   2303 7E                 9891 	ld	a,(hl) ; 2
   2304 FE 2D              9892 	cp	a,#0x2D
   2306 C2 0D 23           9893 	jp	nz,00209$
   2309 3E 01              9894 	ld	a,#0x01
   230B 18 01              9895 	jr	00210$
   230D                    9896 00209$:
   230D AF                 9897 	xor	a,a
   230E                    9898 00210$:
   230E F8 23              9899 	lda	hl,35(sp)
   2310 77                 9900 	ld	(hl),a ; 3
                           9901 ; genIfx
                           9902 ; AOP_STK for _checkCollisions_sloc1_1_0
                           9903 ; Removed redundent or a,a
   2311 AF                 9904 	xor	a,a
   2312 B6                 9905 	or	a,(hl)
   2313 C2 9C 25           9906 	jp	nz,00158$
                           9907 ;	ishallbequeen.c 1193
                           9908 ; genIpush
   2316 3E 03              9909 	ld	a,#0x03
   2318 F5                 9910 	push	af
   2319 33                 9911 	inc	sp
                           9912 ; genIpush
                           9913 ; AOP_HL for _n
   231A 21 10 00           9914 	ld	hl,#_n + 0
   231D 7E                 9915 	ld	a,(hl)
   231E F5                 9916 	push	af
   231F 33                 9917 	inc	sp
                           9918 ; genCall
   2320 CD 00 00           9919 	call	__moduchar
                           9920 ; AOP_STK for _checkCollisions_sloc6_1_0
   2323 F8 20              9921 	lda	hl,32(sp)
   2325 73                 9922 	ld	(hl),e ; 3
   2326 E8 02              9923 	lda	sp,2(sp)
                           9924 ; genCmpEq
                           9925 ; AOP_STK for _checkCollisions_sloc6_1_0
                           9926 ; AOP_STK for _checkCollisions_sloc3_1_0
   2328 7E                 9927 	ld	a,(hl) ; 2
   2329 FE 02              9928 	cp	a,#0x02
   232B C2 32 23           9929 	jp	nz,00211$
   232E 3E 01              9930 	ld	a,#0x01
   2330 18 01              9931 	jr	00212$
   2332                    9932 00211$:
   2332 AF                 9933 	xor	a,a
   2333                    9934 00212$:
   2333 F8 21              9935 	lda	hl,33(sp)
   2335 77                 9936 	ld	(hl),a ; 3
                           9937 ; genIfx
                           9938 ; AOP_STK for _checkCollisions_sloc3_1_0
                           9939 ; Removed redundent or a,a
   2336 AF                 9940 	xor	a,a
   2337 B6                 9941 	or	a,(hl)
   2338 CA A4 23           9942 	jp	z,00116$
                           9943 ;	ishallbequeen.c 1195
                           9944 ; genCmpEq
                           9945 ; AOP_HL for _flipX
                           9946 ; AOP_STK for _checkCollisions_sloc4_1_0
   233B 21 8B 00           9947 	ld	hl,#_flipX + 0
   233E 7E                 9948 	ld	a,(hl)
   233F B7                 9949 	or	a,a
   2340 C2 47 23           9950 	jp	nz,00213$
   2343 3E 01              9951 	ld	a,#0x01
   2345 18 01              9952 	jr	00214$
   2347                    9953 00213$:
   2347 AF                 9954 	xor	a,a
   2348                    9955 00214$:
   2348 F8 20              9956 	lda	hl,32(sp)
   234A 77                 9957 	ld	(hl),a ; 3
                           9958 ; genIfx
                           9959 ; AOP_STK for _checkCollisions_sloc4_1_0
                           9960 ; Removed redundent or a,a
   234B AF                 9961 	xor	a,a
   234C B6                 9962 	or	a,(hl)
   234D C2 77 23           9963 	jp	nz,00111$
                           9964 ; genCmpEq
                           9965 ; AOP_HL for _flipX
                           9966 ; AOP_STK for _checkCollisions_sloc5_1_0
   2350 21 8B 00           9967 	ld	hl,#_flipX + 0
   2353 7E                 9968 	ld	a,(hl) ; 2
   2354 FE 01              9969 	cp	a,#0x01
   2356 C2 5D 23           9970 	jp	nz,00215$
   2359 3E 01              9971 	ld	a,#0x01
   235B 18 01              9972 	jr	00216$
   235D                    9973 00215$:
   235D AF                 9974 	xor	a,a
   235E                    9975 00216$:
   235E F8 1F              9976 	lda	hl,31(sp)
   2360 77                 9977 	ld	(hl),a ; 3
                           9978 ; genIfx
                           9979 ; AOP_STK for _checkCollisions_sloc5_1_0
                           9980 ; Removed redundent or a,a
   2361 AF                 9981 	xor	a,a
   2362 B6                 9982 	or	a,(hl)
   2363 CA 85 23           9983 	jp	z,00112$
                           9984 ;	ishallbequeen.c 1197
                           9985 ; genPlus
                           9986 ; AOP_HL for _pX
                           9987 ; AOP_STK for _checkCollisions_sloc7_1_0
                           9988 ; genPlusIncr
   2366 21 80 00           9989 	ld	hl,#_pX + 0
   2369 7E                 9990 	ld	a,(hl)
   236A C6 01              9991 	add	a,#0x01
   236C F8 1D              9992 	lda	hl,29(sp)
   236E 77                 9993 	ld	(hl),a ; 3
                           9994 ; genAssign
                           9995 ; AOP_STK for _checkCollisions_sloc7_1_0
                           9996 ; AOP_HL for _pX
   236F 7E                 9997 	ld	a,(hl)
   2370 21 80 00           9998 	ld	hl,#_pX + 0
   2373 77                 9999 	ld	(hl),a
                          10000 ; genAssign
                          10001 ; AOP_HL for _pX
                          10002 ; (registers are the same)
                          10003 ;	ishallbequeen.c 1198
                          10004 ; genGoto
   2374 C3 85 23          10005 	jp	00112$
                          10006 ;	ishallbequeen.c 1200
                          10007 ; genLabel
   2377                   10008 00111$:
                          10009 ; genMinus
                          10010 ; AOP_HL for _pX
                          10011 ; AOP_STK for _checkCollisions_sloc9_1_0
   2377 21 80 00          10012 	ld	hl,#_pX + 0
   237A 7E                10013 	ld	a,(hl)
   237B C6 FF             10014 	add	a,#0xFF
   237D F8 1B             10015 	lda	hl,27(sp)
   237F 77                10016 	ld	(hl),a ; 3
                          10017 ; genAssign
                          10018 ; AOP_STK for _checkCollisions_sloc9_1_0
                          10019 ; AOP_HL for _pX
   2380 7E                10020 	ld	a,(hl)
   2381 21 80 00          10021 	ld	hl,#_pX + 0
   2384 77                10022 	ld	(hl),a
                          10023 ; genAssign
                          10024 ; AOP_HL for _pX
                          10025 ; (registers are the same)
                          10026 ;	ishallbequeen.c 1201
                          10027 ; genLabel
   2385                   10028 00112$:
                          10029 ;	ishallbequeen.c 1203
                          10030 ; genCmpLt
                          10031 ; AOP_HL for _n
                          10032 ; AOP_STK for _checkCollisions_sloc8_1_0
   2385 21 10 00          10033 	ld	hl,#_n + 0
   2388 7E                10034 	ld	a,(hl)
   2389 FE 14             10035 	cp	#0x14
   238B 3E 00             10036 	ld	a,#0x00
   238D 17                10037 	rla
   238E F8 1C             10038 	lda	hl,28(sp)
   2390 77                10039 	ld	(hl),a ; 3
                          10040 ; genIfx
                          10041 ; AOP_STK for _checkCollisions_sloc8_1_0
                          10042 ; Removed redundent or a,a
   2391 AF                10043 	xor	a,a
   2392 B6                10044 	or	a,(hl)
   2393 CA A4 23          10045 	jp	z,00116$
                          10046 ;	ishallbequeen.c 1204
                          10047 ; genPlus
                          10048 ; AOP_HL for _pY
                          10049 ; AOP_STK for _checkCollisions_sloc11_1_0
                          10050 ; genPlusIncr
   2396 21 81 00          10051 	ld	hl,#_pY + 0
   2399 7E                10052 	ld	a,(hl)
   239A C6 01             10053 	add	a,#0x01
   239C F8 19             10054 	lda	hl,25(sp)
   239E 77                10055 	ld	(hl),a ; 3
                          10056 ; genAssign
                          10057 ; AOP_STK for _checkCollisions_sloc11_1_0
                          10058 ; AOP_HL for _pY
   239F 7E                10059 	ld	a,(hl)
   23A0 21 81 00          10060 	ld	hl,#_pY + 0
   23A3 77                10061 	ld	(hl),a
                          10062 ; genAssign
                          10063 ; AOP_HL for _pY
                          10064 ; (registers are the same)
                          10065 ; genLabel
   23A4                   10066 00116$:
                          10067 ;	ishallbequeen.c 1208
                          10068 ; genCmpLt
                          10069 ; AOP_HL for _n
                          10070 ; AOP_STK for _checkCollisions_sloc10_1_0
   23A4 21 10 00          10071 	ld	hl,#_n + 0
   23A7 7E                10072 	ld	a,(hl)
   23A8 FE 05             10073 	cp	#0x05
   23AA 3E 00             10074 	ld	a,#0x00
   23AC 17                10075 	rla
   23AD F8 1A             10076 	lda	hl,26(sp)
   23AF 77                10077 	ld	(hl),a ; 3
                          10078 ; genIfx
                          10079 ; AOP_STK for _checkCollisions_sloc10_1_0
                          10080 ; Removed redundent or a,a
   23B0 AF                10081 	xor	a,a
   23B1 B6                10082 	or	a,(hl)
   23B2 CA C3 23          10083 	jp	z,00118$
                          10084 ; genMinus
                          10085 ; AOP_HL for _pY
                          10086 ; AOP_STK for _checkCollisions_sloc14_1_0
   23B5 21 81 00          10087 	ld	hl,#_pY + 0
   23B8 7E                10088 	ld	a,(hl)
   23B9 C6 FF             10089 	add	a,#0xFF
   23BB F8 16             10090 	lda	hl,22(sp)
   23BD 77                10091 	ld	(hl),a ; 3
                          10092 ; genAssign
                          10093 ; AOP_STK for _checkCollisions_sloc14_1_0
                          10094 ; AOP_HL for _pY
   23BE 7E                10095 	ld	a,(hl)
   23BF 21 81 00          10096 	ld	hl,#_pY + 0
   23C2 77                10097 	ld	(hl),a
                          10098 ; genAssign
                          10099 ; AOP_HL for _pY
                          10100 ; (registers are the same)
                          10101 ; genLabel
   23C3                   10102 00118$:
                          10103 ;	ishallbequeen.c 1209
                          10104 ; genCmpGt
                          10105 ; AOP_HL for _n
                          10106 ; AOP_STK for _checkCollisions_sloc12_1_0
   23C3 AF                10107 	xor	a,a
   23C4 3E 0A             10108 	ld	a,#0x0A
   23C6 21 10 00          10109 	ld	hl,#_n + 0
   23C9 9E                10110 	sbc	a,(hl) ; 2
   23CA 3E 00             10111 	ld	a,#0x00
   23CC 17                10112 	rla
   23CD F8 18             10113 	lda	hl,24(sp)
   23CF 77                10114 	ld	(hl),a ; 3
                          10115 ; genIfx
                          10116 ; AOP_STK for _checkCollisions_sloc12_1_0
                          10117 ; Removed redundent or a,a
   23D0 AF                10118 	xor	a,a
   23D1 B6                10119 	or	a,(hl)
   23D2 CA F4 23          10120 	jp	z,00120$
                          10121 ; genCmpLt
                          10122 ; AOP_HL for _n
                          10123 ; AOP_STK for _checkCollisions_sloc13_1_0
   23D5 21 10 00          10124 	ld	hl,#_n + 0
   23D8 7E                10125 	ld	a,(hl)
   23D9 FE 0F             10126 	cp	#0x0F
   23DB 3E 00             10127 	ld	a,#0x00
   23DD 17                10128 	rla
   23DE F8 17             10129 	lda	hl,23(sp)
   23E0 77                10130 	ld	(hl),a ; 3
                          10131 ; genIfx
                          10132 ; AOP_STK for _checkCollisions_sloc13_1_0
                          10133 ; Removed redundent or a,a
   23E1 AF                10134 	xor	a,a
   23E2 B6                10135 	or	a,(hl)
   23E3 CA F4 23          10136 	jp	z,00120$
                          10137 ; genPlus
                          10138 ; AOP_HL for _pY
                          10139 ; AOP_STK for _checkCollisions_sloc17_1_0
                          10140 ; genPlusIncr
   23E6 21 81 00          10141 	ld	hl,#_pY + 0
   23E9 7E                10142 	ld	a,(hl)
   23EA C6 01             10143 	add	a,#0x01
   23EC F8 13             10144 	lda	hl,19(sp)
   23EE 77                10145 	ld	(hl),a ; 3
                          10146 ; genAssign
                          10147 ; AOP_STK for _checkCollisions_sloc17_1_0
                          10148 ; AOP_HL for _pY
   23EF 7E                10149 	ld	a,(hl)
   23F0 21 81 00          10150 	ld	hl,#_pY + 0
   23F3 77                10151 	ld	(hl),a
                          10152 ; genAssign
                          10153 ; AOP_HL for _pY
                          10154 ; (registers are the same)
                          10155 ; genLabel
   23F4                   10156 00120$:
                          10157 ;	ishallbequeen.c 1210
                          10158 ; genCmpGt
                          10159 ; AOP_HL for _n
                          10160 ; AOP_STK for _checkCollisions_sloc15_1_0
   23F4 AF                10161 	xor	a,a
   23F5 3E 0E             10162 	ld	a,#0x0E
   23F7 21 10 00          10163 	ld	hl,#_n + 0
   23FA 9E                10164 	sbc	a,(hl) ; 2
   23FB 3E 00             10165 	ld	a,#0x00
   23FD 17                10166 	rla
   23FE F8 15             10167 	lda	hl,21(sp)
   2400 77                10168 	ld	(hl),a ; 3
                          10169 ; genIfx
                          10170 ; AOP_STK for _checkCollisions_sloc15_1_0
                          10171 ; Removed redundent or a,a
   2401 AF                10172 	xor	a,a
   2402 B6                10173 	or	a,(hl)
   2403 CA 25 24          10174 	jp	z,00123$
                          10175 ; genCmpLt
                          10176 ; AOP_HL for _n
                          10177 ; AOP_STK for _checkCollisions_sloc16_1_0
   2406 21 10 00          10178 	ld	hl,#_n + 0
   2409 7E                10179 	ld	a,(hl)
   240A FE 1E             10180 	cp	#0x1E
   240C 3E 00             10181 	ld	a,#0x00
   240E 17                10182 	rla
   240F F8 14             10183 	lda	hl,20(sp)
   2411 77                10184 	ld	(hl),a ; 3
                          10185 ; genIfx
                          10186 ; AOP_STK for _checkCollisions_sloc16_1_0
                          10187 ; Removed redundent or a,a
   2412 AF                10188 	xor	a,a
   2413 B6                10189 	or	a,(hl)
   2414 CA 25 24          10190 	jp	z,00123$
                          10191 ; genPlus
                          10192 ; AOP_HL for _pY
                          10193 ; AOP_STK for _checkCollisions_sloc20_1_0
                          10194 ; genPlusIncr
   2417 21 81 00          10195 	ld	hl,#_pY + 0
   241A 7E                10196 	ld	a,(hl)
   241B C6 02             10197 	add	a,#0x02
   241D F8 10             10198 	lda	hl,16(sp)
   241F 77                10199 	ld	(hl),a ; 3
                          10200 ; genAssign
                          10201 ; AOP_STK for _checkCollisions_sloc20_1_0
                          10202 ; AOP_HL for _pY
   2420 7E                10203 	ld	a,(hl)
   2421 21 81 00          10204 	ld	hl,#_pY + 0
   2424 77                10205 	ld	(hl),a
                          10206 ; genAssign
                          10207 ; AOP_HL for _pY
                          10208 ; (registers are the same)
                          10209 ; genLabel
   2425                   10210 00123$:
                          10211 ;	ishallbequeen.c 1211
                          10212 ; genCmpGt
                          10213 ; AOP_HL for _n
                          10214 ; AOP_STK for _checkCollisions_sloc18_1_0
   2425 AF                10215 	xor	a,a
   2426 3E 1E             10216 	ld	a,#0x1E
   2428 21 10 00          10217 	ld	hl,#_n + 0
   242B 9E                10218 	sbc	a,(hl) ; 2
   242C 3E 00             10219 	ld	a,#0x00
   242E 17                10220 	rla
   242F F8 12             10221 	lda	hl,18(sp)
   2431 77                10222 	ld	(hl),a ; 3
                          10223 ; genIfx
                          10224 ; AOP_STK for _checkCollisions_sloc18_1_0
                          10225 ; Removed redundent or a,a
   2432 AF                10226 	xor	a,a
   2433 B6                10227 	or	a,(hl)
   2434 CA 56 24          10228 	jp	z,00126$
                          10229 ; genCmpLt
                          10230 ; AOP_HL for _n
                          10231 ; AOP_STK for _checkCollisions_sloc19_1_0
   2437 21 10 00          10232 	ld	hl,#_n + 0
   243A 7E                10233 	ld	a,(hl)
   243B FE 23             10234 	cp	#0x23
   243D 3E 00             10235 	ld	a,#0x00
   243F 17                10236 	rla
   2440 F8 11             10237 	lda	hl,17(sp)
   2442 77                10238 	ld	(hl),a ; 3
                          10239 ; genIfx
                          10240 ; AOP_STK for _checkCollisions_sloc19_1_0
                          10241 ; Removed redundent or a,a
   2443 AF                10242 	xor	a,a
   2444 B6                10243 	or	a,(hl)
   2445 CA 56 24          10244 	jp	z,00126$
                          10245 ; genMinus
                          10246 ; AOP_HL for _pY
                          10247 ; AOP_STK for _checkCollisions_sloc23_1_0
   2448 21 81 00          10248 	ld	hl,#_pY + 0
   244B 7E                10249 	ld	a,(hl)
   244C C6 FF             10250 	add	a,#0xFF
   244E F8 0D             10251 	lda	hl,13(sp)
   2450 77                10252 	ld	(hl),a ; 3
                          10253 ; genAssign
                          10254 ; AOP_STK for _checkCollisions_sloc23_1_0
                          10255 ; AOP_HL for _pY
   2451 7E                10256 	ld	a,(hl)
   2452 21 81 00          10257 	ld	hl,#_pY + 0
   2455 77                10258 	ld	(hl),a
                          10259 ; genAssign
                          10260 ; AOP_HL for _pY
                          10261 ; (registers are the same)
                          10262 ; genLabel
   2456                   10263 00126$:
                          10264 ;	ishallbequeen.c 1212
                          10265 ; genCmpLt
                          10266 ; AOP_HL for _n
                          10267 ; AOP_STK for _checkCollisions_sloc21_1_0
   2456 21 10 00          10268 	ld	hl,#_n + 0
   2459 7E                10269 	ld	a,(hl)
   245A FE 23             10270 	cp	#0x23
   245C 3E 00             10271 	ld	a,#0x00
   245E 17                10272 	rla
   245F F8 0F             10273 	lda	hl,15(sp)
   2461 77                10274 	ld	(hl),a ; 3
                          10275 ; genIfx
                          10276 ; AOP_STK for _checkCollisions_sloc21_1_0
                          10277 ; Removed redundent or a,a
   2462 AF                10278 	xor	a,a
   2463 B6                10279 	or	a,(hl)
   2464 CA 87 24          10280 	jp	z,00129$
                          10281 ; genCmpGt
                          10282 ; AOP_HL for _n
                          10283 ; AOP_STK for _checkCollisions_sloc22_1_0
   2467 AF                10284 	xor	a,a
   2468 3E 1D             10285 	ld	a,#0x1D
   246A 21 10 00          10286 	ld	hl,#_n + 0
   246D 9E                10287 	sbc	a,(hl) ; 2
   246E 3E 00             10288 	ld	a,#0x00
   2470 17                10289 	rla
   2471 F8 0E             10290 	lda	hl,14(sp)
   2473 77                10291 	ld	(hl),a ; 3
                          10292 ; genIfx
                          10293 ; AOP_STK for _checkCollisions_sloc22_1_0
                          10294 ; Removed redundent or a,a
   2474 AF                10295 	xor	a,a
   2475 B6                10296 	or	a,(hl)
   2476 CA 87 24          10297 	jp	z,00129$
                          10298 ; genPlus
                          10299 ; AOP_HL for _pY
                          10300 ; AOP_STK for _checkCollisions_sloc26_1_0
                          10301 ; genPlusIncr
   2479 21 81 00          10302 	ld	hl,#_pY + 0
   247C 7E                10303 	ld	a,(hl)
   247D C6 01             10304 	add	a,#0x01
   247F F8 0A             10305 	lda	hl,10(sp)
   2481 77                10306 	ld	(hl),a ; 3
                          10307 ; genAssign
                          10308 ; AOP_STK for _checkCollisions_sloc26_1_0
                          10309 ; AOP_HL for _pY
   2482 7E                10310 	ld	a,(hl)
   2483 21 81 00          10311 	ld	hl,#_pY + 0
   2486 77                10312 	ld	(hl),a
                          10313 ; genAssign
                          10314 ; AOP_HL for _pY
                          10315 ; (registers are the same)
                          10316 ; genLabel
   2487                   10317 00129$:
                          10318 ;	ishallbequeen.c 1214
                          10319 ; genCmpGt
                          10320 ; AOP_HL for _n
                          10321 ; AOP_STK for _checkCollisions_sloc24_1_0
   2487 AF                10322 	xor	a,a
   2488 3E 22             10323 	ld	a,#0x22
   248A 21 10 00          10324 	ld	hl,#_n + 0
   248D 9E                10325 	sbc	a,(hl) ; 2
   248E 3E 00             10326 	ld	a,#0x00
   2490 17                10327 	rla
   2491 F8 0C             10328 	lda	hl,12(sp)
   2493 77                10329 	ld	(hl),a ; 3
                          10330 ; genIfx
                          10331 ; AOP_STK for _checkCollisions_sloc24_1_0
                          10332 ; Removed redundent or a,a
   2494 AF                10333 	xor	a,a
   2495 B6                10334 	or	a,(hl)
   2496 CA B8 24          10335 	jp	z,00132$
                          10336 ; genCmpLt
                          10337 ; AOP_HL for _n
                          10338 ; AOP_STK for _checkCollisions_sloc25_1_0
   2499 21 10 00          10339 	ld	hl,#_n + 0
   249C 7E                10340 	ld	a,(hl)
   249D FE 25             10341 	cp	#0x25
   249F 3E 00             10342 	ld	a,#0x00
   24A1 17                10343 	rla
   24A2 F8 0B             10344 	lda	hl,11(sp)
   24A4 77                10345 	ld	(hl),a ; 3
                          10346 ; genIfx
                          10347 ; AOP_STK for _checkCollisions_sloc25_1_0
                          10348 ; Removed redundent or a,a
   24A5 AF                10349 	xor	a,a
   24A6 B6                10350 	or	a,(hl)
   24A7 CA B8 24          10351 	jp	z,00132$
                          10352 ; genMinus
                          10353 ; AOP_HL for _pY
                          10354 ; AOP_STK for _checkCollisions_sloc29_1_0
   24AA 21 81 00          10355 	ld	hl,#_pY + 0
   24AD 7E                10356 	ld	a,(hl)
   24AE C6 FF             10357 	add	a,#0xFF
   24B0 F8 07             10358 	lda	hl,7(sp)
   24B2 77                10359 	ld	(hl),a ; 3
                          10360 ; genAssign
                          10361 ; AOP_STK for _checkCollisions_sloc29_1_0
                          10362 ; AOP_HL for _pY
   24B3 7E                10363 	ld	a,(hl)
   24B4 21 81 00          10364 	ld	hl,#_pY + 0
   24B7 77                10365 	ld	(hl),a
                          10366 ; genAssign
                          10367 ; AOP_HL for _pY
                          10368 ; (registers are the same)
                          10369 ; genLabel
   24B8                   10370 00132$:
                          10371 ;	ishallbequeen.c 1215
                          10372 ; genCmpGt
                          10373 ; AOP_HL for _n
                          10374 ; AOP_STK for _checkCollisions_sloc27_1_0
   24B8 AF                10375 	xor	a,a
   24B9 3E 25             10376 	ld	a,#0x25
   24BB 21 10 00          10377 	ld	hl,#_n + 0
   24BE 9E                10378 	sbc	a,(hl) ; 2
   24BF 3E 00             10379 	ld	a,#0x00
   24C1 17                10380 	rla
   24C2 F8 09             10381 	lda	hl,9(sp)
   24C4 77                10382 	ld	(hl),a ; 3
                          10383 ; genIfx
                          10384 ; AOP_STK for _checkCollisions_sloc27_1_0
                          10385 ; Removed redundent or a,a
   24C5 AF                10386 	xor	a,a
   24C6 B6                10387 	or	a,(hl)
   24C7 CA E9 24          10388 	jp	z,00135$
                          10389 ; genCmpLt
                          10390 ; AOP_HL for _n
                          10391 ; AOP_STK for _checkCollisions_sloc28_1_0
   24CA 21 10 00          10392 	ld	hl,#_n + 0
   24CD 7E                10393 	ld	a,(hl)
   24CE FE 28             10394 	cp	#0x28
   24D0 3E 00             10395 	ld	a,#0x00
   24D2 17                10396 	rla
   24D3 F8 08             10397 	lda	hl,8(sp)
   24D5 77                10398 	ld	(hl),a ; 3
                          10399 ; genIfx
                          10400 ; AOP_STK for _checkCollisions_sloc28_1_0
                          10401 ; Removed redundent or a,a
   24D6 AF                10402 	xor	a,a
   24D7 B6                10403 	or	a,(hl)
   24D8 CA E9 24          10404 	jp	z,00135$
                          10405 ; genPlus
                          10406 ; AOP_HL for _pY
                          10407 ; AOP_STK for _checkCollisions_sloc36_1_0
                          10408 ; genPlusIncr
   24DB 21 81 00          10409 	ld	hl,#_pY + 0
   24DE 7E                10410 	ld	a,(hl)
   24DF C6 01             10411 	add	a,#0x01
   24E1 F8 00             10412 	lda	hl,0(sp)
   24E3 77                10413 	ld	(hl),a ; 3
                          10414 ; genAssign
                          10415 ; AOP_STK for _checkCollisions_sloc36_1_0
                          10416 ; AOP_HL for _pY
   24E4 7E                10417 	ld	a,(hl)
   24E5 21 81 00          10418 	ld	hl,#_pY + 0
   24E8 77                10419 	ld	(hl),a
                          10420 ; genAssign
                          10421 ; AOP_HL for _pY
                          10422 ; (registers are the same)
                          10423 ; genLabel
   24E9                   10424 00135$:
                          10425 ;	ishallbequeen.c 1217
                          10426 ; genCmpGt
                          10427 ; AOP_HL for _pY
                          10428 ; AOP_STK for _checkCollisions_sloc30_1_0
   24E9 AF                10429 	xor	a,a
   24EA 3E 78             10430 	ld	a,#0x78
   24EC 21 81 00          10431 	ld	hl,#_pY + 0
   24EF 9E                10432 	sbc	a,(hl) ; 2
   24F0 3E 00             10433 	ld	a,#0x00
   24F2 17                10434 	rla
   24F3 F8 06             10435 	lda	hl,6(sp)
   24F5 77                10436 	ld	(hl),a ; 3
                          10437 ; genIfx
                          10438 ; AOP_STK for _checkCollisions_sloc30_1_0
                          10439 ; Removed redundent or a,a
   24F6 AF                10440 	xor	a,a
   24F7 B6                10441 	or	a,(hl)
   24F8 CA 00 25          10442 	jp	z,00138$
                          10443 ; genAssign
                          10444 ; AOP_HL for _pY
   24FB 21 81 00          10445 	ld	hl,#_pY + 0
   24FE 36 78             10446 	ld	(hl),#0x78
                          10447 ; genLabel
   2500                   10448 00138$:
                          10449 ;	ishallbequeen.c 1219
                          10450 ; genCmpEq
                          10451 ; AOP_HL for _n
                          10452 ; AOP_STK for _checkCollisions_sloc31_1_0
   2500 21 10 00          10453 	ld	hl,#_n + 0
   2503 7E                10454 	ld	a,(hl) ; 2
   2504 FE 1E             10455 	cp	a,#0x1E
   2506 C2 0D 25          10456 	jp	nz,00217$
   2509 3E 01             10457 	ld	a,#0x01
   250B 18 01             10458 	jr	00218$
   250D                   10459 00217$:
   250D AF                10460 	xor	a,a
   250E                   10461 00218$:
   250E F8 05             10462 	lda	hl,5(sp)
   2510 77                10463 	ld	(hl),a ; 3
                          10464 ; genIfx
                          10465 ; AOP_STK for _checkCollisions_sloc31_1_0
                          10466 ; Removed redundent or a,a
   2511 AF                10467 	xor	a,a
   2512 B6                10468 	or	a,(hl)
   2513 C2 6E 25          10469 	jp	nz,00139$
                          10470 ; genCmpEq
                          10471 ; AOP_HL for _n
                          10472 ; AOP_STK for _checkCollisions_sloc32_1_0
   2516 21 10 00          10473 	ld	hl,#_n + 0
   2519 7E                10474 	ld	a,(hl) ; 2
   251A FE 22             10475 	cp	a,#0x22
   251C C2 23 25          10476 	jp	nz,00219$
   251F 3E 01             10477 	ld	a,#0x01
   2521 18 01             10478 	jr	00220$
   2523                   10479 00219$:
   2523 AF                10480 	xor	a,a
   2524                   10481 00220$:
   2524 F8 04             10482 	lda	hl,4(sp)
   2526 77                10483 	ld	(hl),a ; 3
                          10484 ; genIfx
                          10485 ; AOP_STK for _checkCollisions_sloc32_1_0
                          10486 ; Removed redundent or a,a
   2527 AF                10487 	xor	a,a
   2528 B6                10488 	or	a,(hl)
   2529 C2 6E 25          10489 	jp	nz,00139$
                          10490 ; genCmpEq
                          10491 ; AOP_HL for _n
                          10492 ; AOP_STK for _checkCollisions_sloc33_1_0
   252C 21 10 00          10493 	ld	hl,#_n + 0
   252F 7E                10494 	ld	a,(hl) ; 2
   2530 FE 28             10495 	cp	a,#0x28
   2532 C2 39 25          10496 	jp	nz,00221$
   2535 3E 01             10497 	ld	a,#0x01
   2537 18 01             10498 	jr	00222$
   2539                   10499 00221$:
   2539 AF                10500 	xor	a,a
   253A                   10501 00222$:
   253A F8 03             10502 	lda	hl,3(sp)
   253C 77                10503 	ld	(hl),a ; 3
                          10504 ; genIfx
                          10505 ; AOP_STK for _checkCollisions_sloc33_1_0
                          10506 ; Removed redundent or a,a
   253D AF                10507 	xor	a,a
   253E B6                10508 	or	a,(hl)
   253F C2 6E 25          10509 	jp	nz,00139$
                          10510 ; genCmpEq
                          10511 ; AOP_HL for _n
                          10512 ; AOP_STK for _checkCollisions_sloc34_1_0
   2542 21 10 00          10513 	ld	hl,#_n + 0
   2545 7E                10514 	ld	a,(hl) ; 2
   2546 FE 29             10515 	cp	a,#0x29
   2548 C2 4F 25          10516 	jp	nz,00223$
   254B 3E 01             10517 	ld	a,#0x01
   254D 18 01             10518 	jr	00224$
   254F                   10519 00223$:
   254F AF                10520 	xor	a,a
   2550                   10521 00224$:
   2550 F8 02             10522 	lda	hl,2(sp)
   2552 77                10523 	ld	(hl),a ; 3
                          10524 ; genIfx
                          10525 ; AOP_STK for _checkCollisions_sloc34_1_0
                          10526 ; Removed redundent or a,a
   2553 AF                10527 	xor	a,a
   2554 B6                10528 	or	a,(hl)
   2555 C2 6E 25          10529 	jp	nz,00139$
                          10530 ; genCmpEq
                          10531 ; AOP_HL for _n
                          10532 ; AOP_STK for _checkCollisions_sloc35_1_0
   2558 21 10 00          10533 	ld	hl,#_n + 0
   255B 7E                10534 	ld	a,(hl) ; 2
   255C FE 2A             10535 	cp	a,#0x2A
   255E C2 65 25          10536 	jp	nz,00225$
   2561 3E 01             10537 	ld	a,#0x01
   2563 18 01             10538 	jr	00226$
   2565                   10539 00225$:
   2565 AF                10540 	xor	a,a
   2566                   10541 00226$:
   2566 F8 01             10542 	lda	hl,1(sp)
   2568 77                10543 	ld	(hl),a ; 3
                          10544 ; genIfx
                          10545 ; AOP_STK for _checkCollisions_sloc35_1_0
                          10546 ; Removed redundent or a,a
   2569 AF                10547 	xor	a,a
   256A B6                10548 	or	a,(hl)
   256B CA 81 25          10549 	jp	z,00144$
                          10550 ;	ishallbequeen.c 1225
                          10551 ; genLabel
   256E                   10552 00139$:
                          10553 ; genAssign
                          10554 ; AOP_SFR for _NR11_REG
   256E 3E 7F             10555 	ld	a,#0x7F
   2570 E0 00             10556 	ldh	(_NR11_REG+0),a
                          10557 ;	ishallbequeen.c 1226
                          10558 ; genAssign
                          10559 ; AOP_SFR for _NR12_REG
   2572 3E 7F             10560 	ld	a,#0x7F
   2574 E0 00             10561 	ldh	(_NR12_REG+0),a
                          10562 ;	ishallbequeen.c 1227
                          10563 ; genAssign
                          10564 ; AOP_SFR for _NR13_REG
   2576 3E 04             10565 	ld	a,#0x04
   2578 E0 00             10566 	ldh	(_NR13_REG+0),a
                          10567 ;	ishallbequeen.c 1228
                          10568 ; genAssign
                          10569 ; AOP_SFR for _NR14_REG
   257A 3E 80             10570 	ld	a,#0x80
   257C E0 00             10571 	ldh	(_NR14_REG+0),a
                          10572 ;	ishallbequeen.c 1229
                          10573 ; genGoto
   257E C3 84 25          10574 	jp	00145$
                          10575 ;	ishallbequeen.c 1231
                          10576 ; genLabel
   2581                   10577 00144$:
                          10578 ; genCall
   2581 CD 44 29          10579 	call	_stopAllSounds
                          10580 ;	ishallbequeen.c 1233
                          10581 ; genLabel
   2584                   10582 00145$:
                          10583 ;	ishallbequeen.c 1235
                          10584 ; genCall
   2584 CD AC 1B          10585 	call	_updatePlayer
                          10586 ;	ishallbequeen.c 1236
                          10587 ; genCall
   2587 CD 00 00          10588 	call	_wait_vbl_done
                          10589 ;	ishallbequeen.c 1237
                          10590 ; genCall
   258A CD 00 00          10591 	call	_wait_vbl_done
                          10592 ;	ishallbequeen.c 1238
                          10593 ; genCall
   258D CD 00 00          10594 	call	_wait_vbl_done
                          10595 ;	ishallbequeen.c 1191
                          10596 ; genPlus
                          10597 ; AOP_HL for _n
                          10598 ; genPlusIncr
   2590 21 10 00          10599 	ld	hl,#_n + 0
   2593 7E                10600 	ld	a,(hl)
   2594 C6 01             10601 	add	a,#0x01
   2596 47                10602 	ld	b,a
                          10603 ; genAssign
   2597 48                10604 	ld	c,b
                          10605 ; genAssign
                          10606 ; AOP_HL for _n
   2598 71                10607 	ld	(hl),c
                          10608 ; genGoto
   2599 C3 00 23          10609 	jp	00155$
                          10610 ; genLabel
   259C                   10611 00158$:
                          10612 ;	ishallbequeen.c 1242
                          10613 ; genCall
   259C CD DA 28          10614 	call	_endGame
                          10615 ; genLabel
   259F                   10616 00147$:
                          10617 ;	ishallbequeen.c 1245
                          10618 ; genAssign
                          10619 ; AOP_HL for _iFrames
   259F 21 87 00          10620 	ld	hl,#_iFrames + 0
   25A2 36 1E             10621 	ld	(hl),#0x1E
                          10622 ; genLabel
   25A4                   10623 00161$:
                          10624 ;	ishallbequeen.c 1172
                          10625 ; genPlus
                          10626 ; AOP_HL for _m
                          10627 ; genPlusIncr
   25A4 21 0F 00          10628 	ld	hl,#_m + 0
   25A7 34                10629 	inc	(hl)
                          10630 ; genGoto
   25A8 C3 2B 22          10631 	jp	00159$
                          10632 ; genLabel
   25AB                   10633 00163$:
                          10634 ; genEndFunction
   25AB E8 25             10635 	lda	sp,37(sp)
   25AD C1                10636 	pop bc
   25AE C9                10637 	ret
   25AF                   10638 ___checkCollisions_end:
                          10639 ;	ishallbequeen.c 1255
                          10640 ; genLabel
                          10641 ; genFunction
                          10642 ;	---------------------------------
                          10643 ; Function collisionCheck
                          10644 ; ---------------------------------
   25AF                   10645 ___collisionCheck_start:
   25AF                   10646 _collisionCheck:
   25AF C5                10647 	push	bc
                          10648 ;	ishallbequeen.c 1257
                          10649 ; genPlus
                          10650 ; AOP_STK for 
                          10651 ; AOP_STK for 
   25B0 F8 08             10652 	lda	hl,8(sp)
   25B2 2A                10653 	ld	a,(hl+)
   25B3 23                10654 	inc	hl
   25B4 86                10655 	add	a,(hl)
   25B5 4F                10656 	ld	c,a
                          10657 ; genCmpLt
                          10658 ; AOP_STK for 
   25B6 AF                10659 	xor	a,a
   25B7 F8 04             10660 	lda	hl,4(sp)
   25B9 7E                10661 	ld	a,(hl)
   25BA 99                10662 	sbc	a,c ; 2
   25BB D2 EA 25          10663 	jp	nc,00102$
                          10664 ; genPlus
                          10665 ; AOP_STK for 
                          10666 ; AOP_STK for 
   25BE 2A                10667 	ld	a,(hl+)
   25BF 23                10668 	inc	hl
   25C0 86                10669 	add	a,(hl)
   25C1 4F                10670 	ld	c,a
                          10671 ; genCmpGt
                          10672 ; AOP_STK for 
   25C2 AF                10673 	xor	a,a
   25C3 23                10674 	inc	hl
   25C4 23                10675 	inc	hl
   25C5 7E                10676 	ld	a,(hl)
   25C6 99                10677 	sbc	a,c ; 2
   25C7 D2 EA 25          10678 	jp	nc,00102$
                          10679 ; genPlus
                          10680 ; AOP_STK for 
                          10681 ; AOP_STK for 
   25CA F8 0B             10682 	lda	hl,11(sp)
   25CC 7E                10683 	ld	a,(hl)
   25CD 2B                10684 	dec	hl
   25CE 2B                10685 	dec	hl
   25CF 86                10686 	add	a,(hl)
   25D0 4F                10687 	ld	c,a
                          10688 ; genCmpLt
                          10689 ; AOP_STK for 
   25D1 AF                10690 	xor	a,a
   25D2 F8 05             10691 	lda	hl,5(sp)
   25D4 7E                10692 	ld	a,(hl)
   25D5 99                10693 	sbc	a,c ; 2
   25D6 D2 EA 25          10694 	jp	nc,00102$
                          10695 ; genPlus
                          10696 ; AOP_STK for 
                          10697 ; AOP_STK for 
   25D9 2A                10698 	ld	a,(hl+)
   25DA 23                10699 	inc	hl
   25DB 86                10700 	add	a,(hl)
   25DC 4F                10701 	ld	c,a
                          10702 ; genCmpGt
                          10703 ; AOP_STK for 
   25DD AF                10704 	xor	a,a
   25DE 23                10705 	inc	hl
   25DF 23                10706 	inc	hl
   25E0 7E                10707 	ld	a,(hl)
   25E1 99                10708 	sbc	a,c ; 2
   25E2 D2 EA 25          10709 	jp	nc,00102$
                          10710 ;	ishallbequeen.c 1258
                          10711 ; genRet
   25E5 1E 01             10712 	ld	e,#0x01
   25E7 C3 EC 25          10713 	jp	00107$
                          10714 ; genLabel
   25EA                   10715 00102$:
                          10716 ;	ishallbequeen.c 1260
                          10717 ; genRet
   25EA 1E 00             10718 	ld	e,#0x00
                          10719 ; genLabel
   25EC                   10720 00107$:
                          10721 ; genEndFunction
   25EC C1                10722 	pop	bc
   25ED C9                10723 	ret
   25EE                   10724 ___collisionCheck_end:
                          10725 ;	ishallbequeen.c 1266
                          10726 ; genLabel
                          10727 ; genFunction
                          10728 ;	---------------------------------
                          10729 ; Function fadeInBkg
                          10730 ; ---------------------------------
   25EE                   10731 ___fadeInBkg_start:
   25EE                   10732 _fadeInBkg:
   25EE C5                10733 	push	bc
                          10734 ;	ishallbequeen.c 1268
                          10735 ; genAssign
                          10736 ; AOP_SFR for _BGP_REG
   25EF 3E 00             10737 	ld	a,#0x00
   25F1 E0 00             10738 	ldh	(_BGP_REG+0),a
                          10739 ;	ishallbequeen.c 1269
                          10740 ; genAssign
                          10741 ; AOP_HL for _myDelay
   25F3 21 1B 00          10742 	ld	hl,#_myDelay + 0
   25F6 36 00             10743 	ld	(hl),#0x00
                          10744 ;	ishallbequeen.c 1270
                          10745 ; genIpush
                          10746 ; AOP_STK for 
   25F8 F8 04             10747 	lda	hl,4(sp)
   25FA 7E                10748 	ld	a,(hl)
   25FB F5                10749 	push	af
   25FC 33                10750 	inc	sp
                          10751 ; genCall
   25FD CD 13 29          10752 	call	_waitFrames
   2600 E8 01             10753 	lda	sp,1(sp)
                          10754 ;	ishallbequeen.c 1272
                          10755 ; genCmpEq
                          10756 ; AOP_HL for __cpu
   2602 21 00 00          10757 	ld	hl,#__cpu + 0
   2605 7E                10758 	ld	a,(hl) ; 2
   2606 FE 11             10759 	cp	a,#0x11
   2608 C2 0F 26          10760 	jp	nz,00109$
   260B 3E 01             10761 	ld	a,#0x01
   260D 18 01             10762 	jr	00110$
   260F                   10763 00109$:
   260F AF                10764 	xor	a,a
   2610                   10765 00110$:
   2610 4F                10766 	ld	c,a
                          10767 ; genIfx
                          10768 ; Removed redundent or a,a
   2611 AF                10769 	xor	a,a
   2612 B1                10770 	or	a,c
   2613 CA 2F 26          10771 	jp	z,00102$
                          10772 ;	ishallbequeen.c 1273
                          10773 ; genAssign
                          10774 ; AOP_SFR for _VBK_REG
   2616 3E 01             10775 	ld	a,#0x01
   2618 E0 00             10776 	ldh	(_VBK_REG+0),a
                          10777 ;	ishallbequeen.c 1274
                          10778 ; genIpush
   261A 21 71 30          10779 	ld	hl,#_halfPalette + 0
   261D E5                10780 	push	hl
                          10781 ; genIpush
   261E 3E 08             10782 	ld	a,#0x08
   2620 F5                10783 	push	af
   2621 33                10784 	inc	sp
                          10785 ; genIpush
   2622 3E 00             10786 	ld	a,#0x00
   2624 F5                10787 	push	af
   2625 33                10788 	inc	sp
                          10789 ; genCall
   2626 CD 00 00          10790 	call	_set_bkg_palette
   2629 E8 04             10791 	lda	sp,4(sp)
                          10792 ;	ishallbequeen.c 1275
                          10793 ; genAssign
                          10794 ; AOP_SFR for _VBK_REG
   262B 3E 00             10795 	ld	a,#0x00
   262D E0 00             10796 	ldh	(_VBK_REG+0),a
                          10797 ; genLabel
   262F                   10798 00102$:
                          10799 ;	ishallbequeen.c 1278
                          10800 ; genOr
                          10801 ; AOP_SFR for _LCDC_REG
                          10802 ; Type res[4] = l[4]&r[1]
                          10803 ; Size res[1] = l[1]&r[1]
   262F F0 00             10804 	ldh	a,(_LCDC_REG+0) ; x
   2631 F6 01             10805 	or	a,#0x01
   2633 E0 00             10806 	ldh	(_LCDC_REG+0),a
                          10807 ;	ishallbequeen.c 1279
                          10808 ; genAssign
                          10809 ; AOP_SFR for _BGP_REG
   2635 3E 54             10810 	ld	a,#0x54
   2637 E0 00             10811 	ldh	(_BGP_REG+0),a
                          10812 ;	ishallbequeen.c 1280
                          10813 ; genOr
                          10814 ; AOP_SFR for _LCDC_REG
                          10815 ; Type res[4] = l[4]&r[1]
                          10816 ; Size res[1] = l[1]&r[1]
   2639 F0 00             10817 	ldh	a,(_LCDC_REG+0) ; x
   263B F6 01             10818 	or	a,#0x01
   263D E0 00             10819 	ldh	(_LCDC_REG+0),a
                          10820 ;	ishallbequeen.c 1281
                          10821 ; genAssign
                          10822 ; AOP_HL for _myDelay
   263F 21 1B 00          10823 	ld	hl,#_myDelay + 0
   2642 36 00             10824 	ld	(hl),#0x00
                          10825 ;	ishallbequeen.c 1282
                          10826 ; genIpush
                          10827 ; AOP_STK for 
   2644 F8 04             10828 	lda	hl,4(sp)
   2646 7E                10829 	ld	a,(hl)
   2647 F5                10830 	push	af
   2648 33                10831 	inc	sp
                          10832 ; genCall
   2649 CD 13 29          10833 	call	_waitFrames
   264C E8 01             10834 	lda	sp,1(sp)
                          10835 ;	ishallbequeen.c 1284
                          10836 ; genIfx
                          10837 ; Removed redundent or a,a
   264E AF                10838 	xor	a,a
   264F B1                10839 	or	a,c
   2650 CA 6C 26          10840 	jp	z,00104$
                          10841 ;	ishallbequeen.c 1285
                          10842 ; genAssign
                          10843 ; AOP_SFR for _VBK_REG
   2653 3E 01             10844 	ld	a,#0x01
   2655 E0 00             10845 	ldh	(_VBK_REG+0),a
                          10846 ;	ishallbequeen.c 1286
                          10847 ; genIpush
   2657 21 71 30          10848 	ld	hl,#_halfPalette + 0
   265A E5                10849 	push	hl
                          10850 ; genIpush
   265B 3E 08             10851 	ld	a,#0x08
   265D F5                10852 	push	af
   265E 33                10853 	inc	sp
                          10854 ; genIpush
   265F 3E 00             10855 	ld	a,#0x00
   2661 F5                10856 	push	af
   2662 33                10857 	inc	sp
                          10858 ; genCall
   2663 CD 00 00          10859 	call	_set_bkg_palette
   2666 E8 04             10860 	lda	sp,4(sp)
                          10861 ;	ishallbequeen.c 1287
                          10862 ; genAssign
                          10863 ; AOP_SFR for _VBK_REG
   2668 3E 00             10864 	ld	a,#0x00
   266A E0 00             10865 	ldh	(_VBK_REG+0),a
                          10866 ; genLabel
   266C                   10867 00104$:
                          10868 ;	ishallbequeen.c 1291
                          10869 ; genAssign
                          10870 ; AOP_SFR for _BGP_REG
   266C 3E A4             10871 	ld	a,#0xA4
   266E E0 00             10872 	ldh	(_BGP_REG+0),a
                          10873 ;	ishallbequeen.c 1292
                          10874 ; genOr
                          10875 ; AOP_SFR for _LCDC_REG
                          10876 ; Type res[4] = l[4]&r[1]
                          10877 ; Size res[1] = l[1]&r[1]
   2670 F0 00             10878 	ldh	a,(_LCDC_REG+0) ; x
   2672 F6 01             10879 	or	a,#0x01
   2674 E0 00             10880 	ldh	(_LCDC_REG+0),a
                          10881 ;	ishallbequeen.c 1293
                          10882 ; genAssign
                          10883 ; AOP_HL for _myDelay
   2676 21 1B 00          10884 	ld	hl,#_myDelay + 0
   2679 36 00             10885 	ld	(hl),#0x00
                          10886 ;	ishallbequeen.c 1294
                          10887 ; genIpush
                          10888 ; AOP_STK for 
   267B F8 04             10889 	lda	hl,4(sp)
   267D 7E                10890 	ld	a,(hl)
   267E F5                10891 	push	af
   267F 33                10892 	inc	sp
                          10893 ; genCall
   2680 CD 13 29          10894 	call	_waitFrames
   2683 E8 01             10895 	lda	sp,1(sp)
                          10896 ;	ishallbequeen.c 1295
                          10897 ; genAssign
                          10898 ; AOP_SFR for _BGP_REG
   2685 3E E4             10899 	ld	a,#0xE4
   2687 E0 00             10900 	ldh	(_BGP_REG+0),a
                          10901 ;	ishallbequeen.c 1296
                          10902 ; genOr
                          10903 ; AOP_SFR for _LCDC_REG
                          10904 ; Type res[4] = l[4]&r[1]
                          10905 ; Size res[1] = l[1]&r[1]
   2689 F0 00             10906 	ldh	a,(_LCDC_REG+0) ; x
   268B F6 01             10907 	or	a,#0x01
   268D E0 00             10908 	ldh	(_LCDC_REG+0),a
                          10909 ; genLabel
   268F                   10910 00105$:
                          10911 ; genEndFunction
   268F C1                10912 	pop	bc
   2690 C9                10913 	ret
   2691                   10914 ___fadeInBkg_end:
                          10915 ;	ishallbequeen.c 1303
                          10916 ; genLabel
                          10917 ; genFunction
                          10918 ;	---------------------------------
                          10919 ; Function fadeOutBkg
                          10920 ; ---------------------------------
   2691                   10921 ___fadeOutBkg_start:
   2691                   10922 _fadeOutBkg:
   2691 C5                10923 	push	bc
                          10924 ;	ishallbequeen.c 1304
                          10925 ; genAssign
                          10926 ; AOP_SFR for _BGP_REG
   2692 3E E4             10927 	ld	a,#0xE4
   2694 E0 00             10928 	ldh	(_BGP_REG+0),a
                          10929 ;	ishallbequeen.c 1305
                          10930 ; genAssign
                          10931 ; AOP_HL for _myDelay
   2696 21 1B 00          10932 	ld	hl,#_myDelay + 0
   2699 36 00             10933 	ld	(hl),#0x00
                          10934 ;	ishallbequeen.c 1306
                          10935 ; genIpush
                          10936 ; AOP_STK for 
   269B F8 04             10937 	lda	hl,4(sp)
   269D 7E                10938 	ld	a,(hl)
   269E F5                10939 	push	af
   269F 33                10940 	inc	sp
                          10941 ; genCall
   26A0 CD 13 29          10942 	call	_waitFrames
   26A3 E8 01             10943 	lda	sp,1(sp)
                          10944 ;	ishallbequeen.c 1308
                          10945 ; genCmpEq
                          10946 ; AOP_HL for __cpu
   26A5 21 00 00          10947 	ld	hl,#__cpu + 0
   26A8 7E                10948 	ld	a,(hl) ; 2
   26A9 FE 11             10949 	cp	a,#0x11
   26AB C2 B2 26          10950 	jp	nz,00109$
   26AE 3E 01             10951 	ld	a,#0x01
   26B0 18 01             10952 	jr	00110$
   26B2                   10953 00109$:
   26B2 AF                10954 	xor	a,a
   26B3                   10955 00110$:
   26B3 4F                10956 	ld	c,a
                          10957 ; genIfx
                          10958 ; Removed redundent or a,a
   26B4 AF                10959 	xor	a,a
   26B5 B1                10960 	or	a,c
   26B6 CA D2 26          10961 	jp	z,00102$
                          10962 ;	ishallbequeen.c 1309
                          10963 ; genAssign
                          10964 ; AOP_SFR for _VBK_REG
   26B9 3E 01             10965 	ld	a,#0x01
   26BB E0 00             10966 	ldh	(_VBK_REG+0),a
                          10967 ;	ishallbequeen.c 1310
                          10968 ; genIpush
   26BD 21 71 30          10969 	ld	hl,#_halfPalette + 0
   26C0 E5                10970 	push	hl
                          10971 ; genIpush
   26C1 3E 08             10972 	ld	a,#0x08
   26C3 F5                10973 	push	af
   26C4 33                10974 	inc	sp
                          10975 ; genIpush
   26C5 3E 00             10976 	ld	a,#0x00
   26C7 F5                10977 	push	af
   26C8 33                10978 	inc	sp
                          10979 ; genCall
   26C9 CD 00 00          10980 	call	_set_bkg_palette
   26CC E8 04             10981 	lda	sp,4(sp)
                          10982 ;	ishallbequeen.c 1311
                          10983 ; genAssign
                          10984 ; AOP_SFR for _VBK_REG
   26CE 3E 00             10985 	ld	a,#0x00
   26D0 E0 00             10986 	ldh	(_VBK_REG+0),a
                          10987 ; genLabel
   26D2                   10988 00102$:
                          10989 ;	ishallbequeen.c 1314
                          10990 ; genOr
                          10991 ; AOP_SFR for _LCDC_REG
                          10992 ; Type res[4] = l[4]&r[1]
                          10993 ; Size res[1] = l[1]&r[1]
   26D2 F0 00             10994 	ldh	a,(_LCDC_REG+0) ; x
   26D4 F6 01             10995 	or	a,#0x01
   26D6 E0 00             10996 	ldh	(_LCDC_REG+0),a
                          10997 ;	ishallbequeen.c 1315
                          10998 ; genAssign
                          10999 ; AOP_SFR for _BGP_REG
   26D8 3E A4             11000 	ld	a,#0xA4
   26DA E0 00             11001 	ldh	(_BGP_REG+0),a
                          11002 ;	ishallbequeen.c 1316
                          11003 ; genOr
                          11004 ; AOP_SFR for _LCDC_REG
                          11005 ; Type res[4] = l[4]&r[1]
                          11006 ; Size res[1] = l[1]&r[1]
   26DC F0 00             11007 	ldh	a,(_LCDC_REG+0) ; x
   26DE F6 01             11008 	or	a,#0x01
   26E0 E0 00             11009 	ldh	(_LCDC_REG+0),a
                          11010 ;	ishallbequeen.c 1317
                          11011 ; genAssign
                          11012 ; AOP_HL for _myDelay
   26E2 21 1B 00          11013 	ld	hl,#_myDelay + 0
   26E5 36 00             11014 	ld	(hl),#0x00
                          11015 ;	ishallbequeen.c 1318
                          11016 ; genIpush
                          11017 ; AOP_STK for 
   26E7 F8 04             11018 	lda	hl,4(sp)
   26E9 7E                11019 	ld	a,(hl)
   26EA F5                11020 	push	af
   26EB 33                11021 	inc	sp
                          11022 ; genCall
   26EC CD 13 29          11023 	call	_waitFrames
   26EF E8 01             11024 	lda	sp,1(sp)
                          11025 ;	ishallbequeen.c 1320
                          11026 ; genIfx
                          11027 ; Removed redundent or a,a
   26F1 AF                11028 	xor	a,a
   26F2 B1                11029 	or	a,c
   26F3 CA 0F 27          11030 	jp	z,00104$
                          11031 ;	ishallbequeen.c 1321
                          11032 ; genAssign
                          11033 ; AOP_SFR for _VBK_REG
   26F6 3E 01             11034 	ld	a,#0x01
   26F8 E0 00             11035 	ldh	(_VBK_REG+0),a
                          11036 ;	ishallbequeen.c 1322
                          11037 ; genIpush
   26FA 21 31 30          11038 	ld	hl,#_blackPalette + 0
   26FD E5                11039 	push	hl
                          11040 ; genIpush
   26FE 3E 08             11041 	ld	a,#0x08
   2700 F5                11042 	push	af
   2701 33                11043 	inc	sp
                          11044 ; genIpush
   2702 3E 00             11045 	ld	a,#0x00
   2704 F5                11046 	push	af
   2705 33                11047 	inc	sp
                          11048 ; genCall
   2706 CD 00 00          11049 	call	_set_bkg_palette
   2709 E8 04             11050 	lda	sp,4(sp)
                          11051 ;	ishallbequeen.c 1323
                          11052 ; genAssign
                          11053 ; AOP_SFR for _VBK_REG
   270B 3E 00             11054 	ld	a,#0x00
   270D E0 00             11055 	ldh	(_VBK_REG+0),a
                          11056 ; genLabel
   270F                   11057 00104$:
                          11058 ;	ishallbequeen.c 1327
                          11059 ; genAssign
                          11060 ; AOP_SFR for _BGP_REG
   270F 3E 54             11061 	ld	a,#0x54
   2711 E0 00             11062 	ldh	(_BGP_REG+0),a
                          11063 ;	ishallbequeen.c 1328
                          11064 ; genOr
                          11065 ; AOP_SFR for _LCDC_REG
                          11066 ; Type res[4] = l[4]&r[1]
                          11067 ; Size res[1] = l[1]&r[1]
   2713 F0 00             11068 	ldh	a,(_LCDC_REG+0) ; x
   2715 F6 01             11069 	or	a,#0x01
   2717 E0 00             11070 	ldh	(_LCDC_REG+0),a
                          11071 ;	ishallbequeen.c 1329
                          11072 ; genAssign
                          11073 ; AOP_HL for _myDelay
   2719 21 1B 00          11074 	ld	hl,#_myDelay + 0
   271C 36 00             11075 	ld	(hl),#0x00
                          11076 ;	ishallbequeen.c 1330
                          11077 ; genIpush
                          11078 ; AOP_STK for 
   271E F8 04             11079 	lda	hl,4(sp)
   2720 7E                11080 	ld	a,(hl)
   2721 F5                11081 	push	af
   2722 33                11082 	inc	sp
                          11083 ; genCall
   2723 CD 13 29          11084 	call	_waitFrames
   2726 E8 01             11085 	lda	sp,1(sp)
                          11086 ;	ishallbequeen.c 1332
                          11087 ; genAssign
                          11088 ; AOP_SFR for _BGP_REG
   2728 3E 00             11089 	ld	a,#0x00
   272A E0 00             11090 	ldh	(_BGP_REG+0),a
                          11091 ;	ishallbequeen.c 1333
                          11092 ; genOr
                          11093 ; AOP_SFR for _LCDC_REG
                          11094 ; Type res[4] = l[4]&r[1]
                          11095 ; Size res[1] = l[1]&r[1]
   272C F0 00             11096 	ldh	a,(_LCDC_REG+0) ; x
   272E F6 01             11097 	or	a,#0x01
   2730 E0 00             11098 	ldh	(_LCDC_REG+0),a
                          11099 ; genLabel
   2732                   11100 00105$:
                          11101 ; genEndFunction
   2732 C1                11102 	pop	bc
   2733 C9                11103 	ret
   2734                   11104 ___fadeOutBkg_end:
                          11105 ;	ishallbequeen.c 1340
                          11106 ; genLabel
                          11107 ; genFunction
                          11108 ;	---------------------------------
                          11109 ; Function fadeInSprites
                          11110 ; ---------------------------------
   2734                   11111 ___fadeInSprites_start:
   2734                   11112 _fadeInSprites:
   2734 C5                11113 	push	bc
                          11114 ;	ishallbequeen.c 1341
                          11115 ; genAssign
                          11116 ; AOP_SFR for _OBP0_REG
   2735 3E 00             11117 	ld	a,#0x00
   2737 E0 00             11118 	ldh	(_OBP0_REG+0),a
                          11119 ;	ishallbequeen.c 1342
                          11120 ; genAssign
                          11121 ; AOP_HL for _myDelay
   2739 21 1B 00          11122 	ld	hl,#_myDelay + 0
   273C 36 00             11123 	ld	(hl),#0x00
                          11124 ;	ishallbequeen.c 1343
                          11125 ; genIpush
                          11126 ; AOP_STK for 
   273E F8 04             11127 	lda	hl,4(sp)
   2740 7E                11128 	ld	a,(hl)
   2741 F5                11129 	push	af
   2742 33                11130 	inc	sp
                          11131 ; genCall
   2743 CD 13 29          11132 	call	_waitFrames
   2746 E8 01             11133 	lda	sp,1(sp)
                          11134 ;	ishallbequeen.c 1344
                          11135 ; genOr
                          11136 ; AOP_SFR for _LCDC_REG
                          11137 ; Type res[4] = l[4]&r[1]
                          11138 ; Size res[1] = l[1]&r[1]
   2748 F0 00             11139 	ldh	a,(_LCDC_REG+0) ; x
   274A F6 02             11140 	or	a,#0x02
   274C E0 00             11141 	ldh	(_LCDC_REG+0),a
                          11142 ;	ishallbequeen.c 1345
                          11143 ; genAssign
                          11144 ; AOP_SFR for _OBP0_REG
   274E 3E 54             11145 	ld	a,#0x54
   2750 E0 00             11146 	ldh	(_OBP0_REG+0),a
                          11147 ;	ishallbequeen.c 1346
                          11148 ; genOr
                          11149 ; AOP_SFR for _LCDC_REG
                          11150 ; Type res[4] = l[4]&r[1]
                          11151 ; Size res[1] = l[1]&r[1]
   2752 F0 00             11152 	ldh	a,(_LCDC_REG+0) ; x
   2754 F6 02             11153 	or	a,#0x02
   2756 E0 00             11154 	ldh	(_LCDC_REG+0),a
                          11155 ;	ishallbequeen.c 1347
                          11156 ; genAssign
                          11157 ; AOP_HL for _myDelay
   2758 21 1B 00          11158 	ld	hl,#_myDelay + 0
   275B 36 00             11159 	ld	(hl),#0x00
                          11160 ;	ishallbequeen.c 1348
                          11161 ; genIpush
                          11162 ; AOP_STK for 
   275D F8 04             11163 	lda	hl,4(sp)
   275F 7E                11164 	ld	a,(hl)
   2760 F5                11165 	push	af
   2761 33                11166 	inc	sp
                          11167 ; genCall
   2762 CD 13 29          11168 	call	_waitFrames
   2765 E8 01             11169 	lda	sp,1(sp)
                          11170 ;	ishallbequeen.c 1349
                          11171 ; genAssign
                          11172 ; AOP_SFR for _OBP0_REG
   2767 3E A4             11173 	ld	a,#0xA4
   2769 E0 00             11174 	ldh	(_OBP0_REG+0),a
                          11175 ;	ishallbequeen.c 1350
                          11176 ; genOr
                          11177 ; AOP_SFR for _LCDC_REG
                          11178 ; Type res[4] = l[4]&r[1]
                          11179 ; Size res[1] = l[1]&r[1]
   276B F0 00             11180 	ldh	a,(_LCDC_REG+0) ; x
   276D F6 02             11181 	or	a,#0x02
   276F E0 00             11182 	ldh	(_LCDC_REG+0),a
                          11183 ;	ishallbequeen.c 1351
                          11184 ; genAssign
                          11185 ; AOP_HL for _myDelay
   2771 21 1B 00          11186 	ld	hl,#_myDelay + 0
   2774 36 00             11187 	ld	(hl),#0x00
                          11188 ;	ishallbequeen.c 1352
                          11189 ; genIpush
                          11190 ; AOP_STK for 
   2776 F8 04             11191 	lda	hl,4(sp)
   2778 7E                11192 	ld	a,(hl)
   2779 F5                11193 	push	af
   277A 33                11194 	inc	sp
                          11195 ; genCall
   277B CD 13 29          11196 	call	_waitFrames
   277E E8 01             11197 	lda	sp,1(sp)
                          11198 ;	ishallbequeen.c 1353
                          11199 ; genAssign
                          11200 ; AOP_SFR for _OBP0_REG
   2780 3E E0             11201 	ld	a,#0xE0
   2782 E0 00             11202 	ldh	(_OBP0_REG+0),a
                          11203 ;	ishallbequeen.c 1354
                          11204 ; genOr
                          11205 ; AOP_SFR for _LCDC_REG
                          11206 ; Type res[4] = l[4]&r[1]
                          11207 ; Size res[1] = l[1]&r[1]
   2784 F0 00             11208 	ldh	a,(_LCDC_REG+0) ; x
   2786 F6 02             11209 	or	a,#0x02
   2788 E0 00             11210 	ldh	(_LCDC_REG+0),a
                          11211 ; genLabel
   278A                   11212 00101$:
                          11213 ; genEndFunction
   278A C1                11214 	pop	bc
   278B C9                11215 	ret
   278C                   11216 ___fadeInSprites_end:
                          11217 ;	ishallbequeen.c 1358
                          11218 ; genLabel
                          11219 ; genFunction
                          11220 ;	---------------------------------
                          11221 ; Function fadeOutSprites
                          11222 ; ---------------------------------
   278C                   11223 ___fadeOutSprites_start:
   278C                   11224 _fadeOutSprites:
   278C C5                11225 	push	bc
                          11226 ;	ishallbequeen.c 1359
                          11227 ; genAssign
                          11228 ; AOP_SFR for _OBP0_REG
   278D 3E E0             11229 	ld	a,#0xE0
   278F E0 00             11230 	ldh	(_OBP0_REG+0),a
                          11231 ;	ishallbequeen.c 1360
                          11232 ; genAssign
                          11233 ; AOP_HL for _myDelay
   2791 21 1B 00          11234 	ld	hl,#_myDelay + 0
   2794 36 00             11235 	ld	(hl),#0x00
                          11236 ;	ishallbequeen.c 1361
                          11237 ; genIpush
                          11238 ; AOP_STK for 
   2796 F8 04             11239 	lda	hl,4(sp)
   2798 7E                11240 	ld	a,(hl)
   2799 F5                11241 	push	af
   279A 33                11242 	inc	sp
                          11243 ; genCall
   279B CD 13 29          11244 	call	_waitFrames
   279E E8 01             11245 	lda	sp,1(sp)
                          11246 ;	ishallbequeen.c 1362
                          11247 ; genOr
                          11248 ; AOP_SFR for _LCDC_REG
                          11249 ; Type res[4] = l[4]&r[1]
                          11250 ; Size res[1] = l[1]&r[1]
   27A0 F0 00             11251 	ldh	a,(_LCDC_REG+0) ; x
   27A2 F6 02             11252 	or	a,#0x02
   27A4 E0 00             11253 	ldh	(_LCDC_REG+0),a
                          11254 ;	ishallbequeen.c 1363
                          11255 ; genAssign
                          11256 ; AOP_SFR for _OBP0_REG
   27A6 3E A4             11257 	ld	a,#0xA4
   27A8 E0 00             11258 	ldh	(_OBP0_REG+0),a
                          11259 ;	ishallbequeen.c 1364
                          11260 ; genOr
                          11261 ; AOP_SFR for _LCDC_REG
                          11262 ; Type res[4] = l[4]&r[1]
                          11263 ; Size res[1] = l[1]&r[1]
   27AA F0 00             11264 	ldh	a,(_LCDC_REG+0) ; x
   27AC F6 02             11265 	or	a,#0x02
   27AE E0 00             11266 	ldh	(_LCDC_REG+0),a
                          11267 ;	ishallbequeen.c 1365
                          11268 ; genAssign
                          11269 ; AOP_HL for _myDelay
   27B0 21 1B 00          11270 	ld	hl,#_myDelay + 0
   27B3 36 00             11271 	ld	(hl),#0x00
                          11272 ;	ishallbequeen.c 1366
                          11273 ; genIpush
                          11274 ; AOP_STK for 
   27B5 F8 04             11275 	lda	hl,4(sp)
   27B7 7E                11276 	ld	a,(hl)
   27B8 F5                11277 	push	af
   27B9 33                11278 	inc	sp
                          11279 ; genCall
   27BA CD 13 29          11280 	call	_waitFrames
   27BD E8 01             11281 	lda	sp,1(sp)
                          11282 ;	ishallbequeen.c 1367
                          11283 ; genAssign
                          11284 ; AOP_SFR for _OBP0_REG
   27BF 3E 54             11285 	ld	a,#0x54
   27C1 E0 00             11286 	ldh	(_OBP0_REG+0),a
                          11287 ;	ishallbequeen.c 1368
                          11288 ; genOr
                          11289 ; AOP_SFR for _LCDC_REG
                          11290 ; Type res[4] = l[4]&r[1]
                          11291 ; Size res[1] = l[1]&r[1]
   27C3 F0 00             11292 	ldh	a,(_LCDC_REG+0) ; x
   27C5 F6 02             11293 	or	a,#0x02
   27C7 E0 00             11294 	ldh	(_LCDC_REG+0),a
                          11295 ;	ishallbequeen.c 1369
                          11296 ; genAssign
                          11297 ; AOP_HL for _myDelay
   27C9 21 1B 00          11298 	ld	hl,#_myDelay + 0
   27CC 36 00             11299 	ld	(hl),#0x00
                          11300 ;	ishallbequeen.c 1370
                          11301 ; genIpush
                          11302 ; AOP_STK for 
   27CE F8 04             11303 	lda	hl,4(sp)
   27D0 7E                11304 	ld	a,(hl)
   27D1 F5                11305 	push	af
   27D2 33                11306 	inc	sp
                          11307 ; genCall
   27D3 CD 13 29          11308 	call	_waitFrames
   27D6 E8 01             11309 	lda	sp,1(sp)
                          11310 ;	ishallbequeen.c 1371
                          11311 ; genAssign
                          11312 ; AOP_SFR for _OBP0_REG
   27D8 3E 00             11313 	ld	a,#0x00
   27DA E0 00             11314 	ldh	(_OBP0_REG+0),a
                          11315 ;	ishallbequeen.c 1372
                          11316 ; genOr
                          11317 ; AOP_SFR for _LCDC_REG
                          11318 ; Type res[4] = l[4]&r[1]
                          11319 ; Size res[1] = l[1]&r[1]
   27DC F0 00             11320 	ldh	a,(_LCDC_REG+0) ; x
   27DE F6 02             11321 	or	a,#0x02
   27E0 E0 00             11322 	ldh	(_LCDC_REG+0),a
                          11323 ; genLabel
   27E2                   11324 00101$:
                          11325 ; genEndFunction
   27E2 C1                11326 	pop	bc
   27E3 C9                11327 	ret
   27E4                   11328 ___fadeOutSprites_end:
                          11329 ;	ishallbequeen.c 1381
                          11330 ; genLabel
                          11331 ; genFunction
                          11332 ;	---------------------------------
                          11333 ; Function performStateChange
                          11334 ; ---------------------------------
   27E4                   11335 ___performStateChange_start:
   27E4                   11336 _performStateChange:
   27E4 C5                11337 	push	bc
                          11338 ;	ishallbequeen.c 1383
                          11339 ; genLabel
   27E5                   11340 00101$:
                          11341 ; genEndFunction
   27E5 C1                11342 	pop	bc
   27E6 C9                11343 	ret
   27E7                   11344 ___performStateChange_end:
                          11345 ;	ishallbequeen.c 1385
                          11346 ; genLabel
                          11347 ; genFunction
                          11348 ;	---------------------------------
                          11349 ; Function updateScore
                          11350 ; ---------------------------------
   27E7                   11351 ___updateScore_start:
   27E7                   11352 _updateScore:
   27E7 C5                11353 	push	bc
                          11354 ;	ishallbequeen.c 1387
                          11355 ; genLabel
   27E8                   11356 00101$:
                          11357 ; genEndFunction
   27E8 C1                11358 	pop	bc
   27E9 C9                11359 	ret
   27EA                   11360 ___updateScore_end:
                          11361 ;	ishallbequeen.c 1390
                          11362 ; genLabel
                          11363 ; genFunction
                          11364 ;	---------------------------------
                          11365 ; Function showValue
                          11366 ; ---------------------------------
   27EA                   11367 ___showValue_start:
   27EA                   11368 _showValue:
   27EA C5                11369 	push	bc
   27EB E8 FC             11370 	lda sp,-4(sp)
                          11371 ;	ishallbequeen.c 1392
                          11372 ; genIpush
   27ED 3E 64             11373 	ld	a,#0x64
   27EF F5                11374 	push	af
   27F0 33                11375 	inc	sp
                          11376 ; genIpush
                          11377 ; AOP_STK for 
   27F1 F8 09             11378 	lda	hl,9(sp)
   27F3 7E                11379 	ld	a,(hl)
   27F4 F5                11380 	push	af
   27F5 33                11381 	inc	sp
                          11382 ; genCall
   27F6 CD 00 00          11383 	call	__divuchar
   27F9 4B                11384 	ld	c,e
   27FA E8 02             11385 	lda	sp,2(sp)
                          11386 ; genPlus
                          11387 ; genPlusIncr
   27FC 79                11388 	ld	a,c
   27FD C6 40             11389 	add	a,#0x40
   27FF 47                11390 	ld	b,a
                          11391 ; genAssign (pointer)
   2800 11 04 00          11392 	ld	de,#_debugValueArray + 0
   2803 78                11393 	ld	a,b
   2804 12                11394 	ld	(de),a
                          11395 ;	ishallbequeen.c 1393
                          11396 ; genAssign
                          11397 ; AOP_HL for _i
   2805 21 0B 00          11398 	ld	hl,#_i + 0
   2808 71                11399 	ld	(hl),c
                          11400 ;	ishallbequeen.c 1394
                          11401 ; genIpush
   2809 3E 64             11402 	ld	a,#0x64
   280B F5                11403 	push	af
   280C 33                11404 	inc	sp
                          11405 ; genIpush
                          11406 ; AOP_HL for _i
   280D 7E                11407 	ld	a,(hl)
   280E F5                11408 	push	af
   280F 33                11409 	inc	sp
                          11410 ; genCall
   2810 CD 00 00          11411 	call	__muluchar
   2813 4B                11412 	ld	c,e
   2814 E8 02             11413 	lda	sp,2(sp)
                          11414 ; genMinus
                          11415 ; AOP_STK for 
   2816 F8 08             11416 	lda	hl,8(sp)
   2818 7E                11417 	ld	a,(hl)
   2819 91                11418 	sub	a,c
   281A 77                11419 	ld	(hl),a ; 3
                          11420 ;	ishallbequeen.c 1395
                          11421 ; genPlus
                          11422 ; AOP_STK for _showValue_sloc0_1_0
                          11423 ; genPlusIncr
   281B 3E 04             11424 	ld	a,#<_debugValueArray
   281D C6 01             11425 	add	a,#0x01
   281F F8 02             11426 	lda	hl,2(sp)
   2821 77                11427 	ld	(hl),a ; 3
   2822 3E 00             11428 	ld	a,#>_debugValueArray
   2824 CE 00             11429 	adc	a,#0x00
   2826 23                11430 	inc	hl
   2827 77                11431 	ld	(hl),a ; 3
                          11432 ; genIpush
   2828 3E 0A             11433 	ld	a,#0x0A
   282A F5                11434 	push	af
   282B 33                11435 	inc	sp
                          11436 ; genIpush
                          11437 ; AOP_STK for 
   282C F8 09             11438 	lda	hl,9(sp)
   282E 7E                11439 	ld	a,(hl)
   282F F5                11440 	push	af
   2830 33                11441 	inc	sp
                          11442 ; genCall
   2831 CD 00 00          11443 	call	__divuchar
   2834 4B                11444 	ld	c,e
   2835 E8 02             11445 	lda	sp,2(sp)
                          11446 ; genPlus
                          11447 ; genPlusIncr
   2837 79                11448 	ld	a,c
   2838 C6 40             11449 	add	a,#0x40
   283A 4F                11450 	ld	c,a
                          11451 ; genAssign (pointer)
                          11452 ; AOP_STK for _showValue_sloc0_1_0
   283B F8 02             11453 	lda	hl,2(sp)
   283D 5E                11454 	ld	e,(hl)
   283E 23                11455 	inc	hl
   283F 56                11456 	ld	d,(hl)
   2840 79                11457 	ld	a,c
   2841 12                11458 	ld	(de),a
                          11459 ;	ishallbequeen.c 1396
                          11460 ; genPlus
                          11461 ; AOP_STK for _showValue_sloc1_1_0
                          11462 ; genPlusIncr
   2842 3E 04             11463 	ld	a,#<_debugValueArray
   2844 C6 02             11464 	add	a,#0x02
   2846 F8 00             11465 	lda	hl,0(sp)
   2848 77                11466 	ld	(hl),a ; 3
   2849 3E 00             11467 	ld	a,#>_debugValueArray
   284B CE 00             11468 	adc	a,#0x00
   284D 23                11469 	inc	hl
   284E 77                11470 	ld	(hl),a ; 3
                          11471 ; genIpush
   284F 3E 0A             11472 	ld	a,#0x0A
   2851 F5                11473 	push	af
   2852 33                11474 	inc	sp
                          11475 ; genIpush
                          11476 ; AOP_STK for 
   2853 F8 09             11477 	lda	hl,9(sp)
   2855 7E                11478 	ld	a,(hl)
   2856 F5                11479 	push	af
   2857 33                11480 	inc	sp
                          11481 ; genCall
   2858 CD 00 00          11482 	call	__moduchar
   285B 4B                11483 	ld	c,e
   285C E8 02             11484 	lda	sp,2(sp)
                          11485 ; genPlus
                          11486 ; genPlusIncr
   285E 79                11487 	ld	a,c
   285F C6 40             11488 	add	a,#0x40
   2861 4F                11489 	ld	c,a
                          11490 ; genAssign (pointer)
                          11491 ; AOP_STK for _showValue_sloc1_1_0
   2862 F8 00             11492 	lda	hl,0(sp)
   2864 5E                11493 	ld	e,(hl)
   2865 23                11494 	inc	hl
   2866 56                11495 	ld	d,(hl)
   2867 79                11496 	ld	a,c
   2868 12                11497 	ld	(de),a
                          11498 ;	ishallbequeen.c 1398
                          11499 ; genCmpEq
                          11500 ; AOP_STK for 
   2869 F8 0B             11501 	lda	hl,11(sp)
   286B 7E                11502 	ld	a,(hl) ; 2
   286C FE 02             11503 	cp	a,#0x02
                          11504 ; Rule 5
   286E CA 9B 28          11505 	jp	z,00102$
   2871                   11506 00109$:
                          11507 ; genCmpEq
                          11508 ; AOP_STK for 
   2871 F8 0B             11509 	lda	hl,11(sp)
   2873 7E                11510 	ld	a,(hl) ; 2
   2874 FE 03             11511 	cp	a,#0x03
   2876 C2 7B 28          11512 	jp	nz,00110$
   2879 18 03             11513 	jr	00111$
   287B                   11514 00110$:
   287B C3 BA 28          11515 	jp	00103$
   287E                   11516 00111$:
                          11517 ;	ishallbequeen.c 1400
                          11518 ; genIpush
   287E 21 04 00          11519 	ld	hl,#_debugValueArray + 0
   2881 E5                11520 	push	hl
                          11521 ; genIpush
   2882 3E 01             11522 	ld	a,#0x01
   2884 F5                11523 	push	af
   2885 33                11524 	inc	sp
                          11525 ; genIpush
   2886 3E 03             11526 	ld	a,#0x03
   2888 F5                11527 	push	af
   2889 33                11528 	inc	sp
                          11529 ; genIpush
                          11530 ; AOP_STK for 
   288A F8 0E             11531 	lda	hl,14(sp)
   288C 7E                11532 	ld	a,(hl)
   288D F5                11533 	push	af
   288E 33                11534 	inc	sp
                          11535 ; genIpush
                          11536 ; AOP_STK for 
   288F 2B                11537 	dec	hl
   2890 7E                11538 	ld	a,(hl)
   2891 F5                11539 	push	af
   2892 33                11540 	inc	sp
                          11541 ; genCall
   2893 CD 00 00          11542 	call	_set_win_tiles
   2896 E8 06             11543 	lda	sp,6(sp)
                          11544 ;	ishallbequeen.c 1401
                          11545 ; genGoto
   2898 C3 D6 28          11546 	jp	00105$
                          11547 ;	ishallbequeen.c 1403
                          11548 ; genLabel
   289B                   11549 00102$:
                          11550 ; genIpush
                          11551 ; AOP_STK for _showValue_sloc0_1_0
   289B F8 02             11552 	lda	hl,2(sp)
   289D 2A                11553 	ld	a,(hl+)
   289E 66                11554 	ld	h,(hl)
   289F 6F                11555 	ld	l,a
   28A0 E5                11556 	push	hl
                          11557 ; genIpush
   28A1 3E 01             11558 	ld	a,#0x01
   28A3 F5                11559 	push	af
   28A4 33                11560 	inc	sp
                          11561 ; genIpush
   28A5 3E 02             11562 	ld	a,#0x02
   28A7 F5                11563 	push	af
   28A8 33                11564 	inc	sp
                          11565 ; genIpush
                          11566 ; AOP_STK for 
   28A9 F8 0E             11567 	lda	hl,14(sp)
   28AB 7E                11568 	ld	a,(hl)
   28AC F5                11569 	push	af
   28AD 33                11570 	inc	sp
                          11571 ; genIpush
                          11572 ; AOP_STK for 
   28AE 2B                11573 	dec	hl
   28AF 7E                11574 	ld	a,(hl)
   28B0 F5                11575 	push	af
   28B1 33                11576 	inc	sp
                          11577 ; genCall
   28B2 CD 00 00          11578 	call	_set_win_tiles
   28B5 E8 06             11579 	lda	sp,6(sp)
                          11580 ;	ishallbequeen.c 1404
                          11581 ; genGoto
   28B7 C3 D6 28          11582 	jp	00105$
                          11583 ;	ishallbequeen.c 1406
                          11584 ; genLabel
   28BA                   11585 00103$:
                          11586 ; genIpush
                          11587 ; AOP_STK for _showValue_sloc1_1_0
   28BA F8 00             11588 	lda	hl,0(sp)
   28BC 2A                11589 	ld	a,(hl+)
   28BD 66                11590 	ld	h,(hl)
   28BE 6F                11591 	ld	l,a
   28BF E5                11592 	push	hl
                          11593 ; genIpush
   28C0 3E 01             11594 	ld	a,#0x01
   28C2 F5                11595 	push	af
   28C3 33                11596 	inc	sp
                          11597 ; genIpush
   28C4 3E 01             11598 	ld	a,#0x01
   28C6 F5                11599 	push	af
   28C7 33                11600 	inc	sp
                          11601 ; genIpush
                          11602 ; AOP_STK for 
   28C8 F8 0E             11603 	lda	hl,14(sp)
   28CA 7E                11604 	ld	a,(hl)
   28CB F5                11605 	push	af
   28CC 33                11606 	inc	sp
                          11607 ; genIpush
                          11608 ; AOP_STK for 
   28CD 2B                11609 	dec	hl
   28CE 7E                11610 	ld	a,(hl)
   28CF F5                11611 	push	af
   28D0 33                11612 	inc	sp
                          11613 ; genCall
   28D1 CD 00 00          11614 	call	_set_win_tiles
   28D4 E8 06             11615 	lda	sp,6(sp)
                          11616 ;	ishallbequeen.c 1408
                          11617 ; genLabel
   28D6                   11618 00105$:
                          11619 ; genEndFunction
   28D6 E8 04             11620 	lda	sp,4(sp)
   28D8 C1                11621 	pop bc
   28D9 C9                11622 	ret
   28DA                   11623 ___showValue_end:
                          11624 ;	ishallbequeen.c 1413
                          11625 ; genLabel
                          11626 ; genFunction
                          11627 ;	---------------------------------
                          11628 ; Function endGame
                          11629 ; ---------------------------------
   28DA                   11630 ___endGame_start:
   28DA                   11631 _endGame:
   28DA C5                11632 	push	bc
                          11633 ;	ishallbequeen.c 1414
                          11634 ; genIpush
   28DB 3E 0A             11635 	ld	a,#0x0A
   28DD F5                11636 	push	af
   28DE 33                11637 	inc	sp
                          11638 ; genCall
   28DF CD 91 26          11639 	call	_fadeOutBkg
   28E2 E8 01             11640 	lda	sp,1(sp)
                          11641 ;	ishallbequeen.c 1415
                          11642 ; genAssign
                          11643 ; AOP_HL for _wn
   28E4 21 12 00          11644 	ld	hl,#_wn + 0
   28E7 36 3C             11645 	ld	(hl),#0x3C
                          11646 ;	ishallbequeen.c 1416
                          11647 ; genIpush
   28E9 3E 0A             11648 	ld	a,#0x0A
   28EB F5                11649 	push	af
   28EC 33                11650 	inc	sp
                          11651 ; genCall
   28ED CD 8C 27          11652 	call	_fadeOutSprites
   28F0 E8 01             11653 	lda	sp,1(sp)
                          11654 ;	ishallbequeen.c 1417
                          11655 ; genIpush
   28F2 3E 00             11656 	ld	a,#0x00
   28F4 F5                11657 	push	af
   28F5 33                11658 	inc	sp
                          11659 ; genIpush
   28F6 3E 00             11660 	ld	a,#0x00
   28F8 F5                11661 	push	af
   28F9 33                11662 	inc	sp
                          11663 ; genCall
   28FA CD 00 00          11664 	call	_move_bkg
   28FD E8 02             11665 	lda	sp,2(sp)
                          11666 ;	ishallbequeen.c 1418
                          11667 ; genAssign
                          11668 ; AOP_HL for _scene
   28FF 21 7D 00          11669 	ld	hl,#_scene + 0
   2902 36 63             11670 	ld	(hl),#0x63
                          11671 ;	ishallbequeen.c 1419
                          11672 ; genAssign
                          11673 ; AOP_HL for _initBank
   2904 21 7B 00          11674 	ld	hl,#_initBank + 0
   2907 36 01             11675 	ld	(hl),#0x01
                          11676 ;	ishallbequeen.c 1420
                          11677 ; genAssign
                          11678 ; AOP_HL for _newBank
   2909 21 7C 00          11679 	ld	hl,#_newBank + 0
   290C 36 04             11680 	ld	(hl),#0x04
                          11681 ;	ishallbequeen.c 1421
                          11682 ; genCall
   290E CD 2C 29          11683 	call	_switchRomBanks
                          11684 ; genLabel
   2911                   11685 00101$:
                          11686 ; genEndFunction
   2911 C1                11687 	pop	bc
   2912 C9                11688 	ret
   2913                   11689 ___endGame_end:
                          11690 ;	ishallbequeen.c 1425
                          11691 ; genLabel
                          11692 ; genFunction
                          11693 ;	---------------------------------
                          11694 ; Function waitFrames
                          11695 ; ---------------------------------
   2913                   11696 ___waitFrames_start:
   2913                   11697 _waitFrames:
   2913 C5                11698 	push	bc
                          11699 ;	ishallbequeen.c 1427
                          11700 ; genLabel
   2914                   11701 00101$:
                          11702 ; genCmpEq
                          11703 ; AOP_HL for _myDelay
                          11704 ; AOP_STK for 
   2914 F8 04             11705 	lda	hl,4(sp)
   2916 7E                11706 	ld	a,(hl)
   2917 21 1B 00          11707 	ld	hl,#_myDelay + 0
   291A BE                11708 	cp	(hl) ; 5
   291B 20 03             11709 	jr	nz,00108$
   291D C3 2A 29          11710 	jp	00104$
   2920                   11711 00108$:
                          11712 ;	ishallbequeen.c 1428
                          11713 ; genPlus
                          11714 ; AOP_HL for _myDelay
                          11715 ; genPlusIncr
   2920 21 1B 00          11716 	ld	hl,#_myDelay + 0
   2923 34                11717 	inc	(hl)
                          11718 ;	ishallbequeen.c 1429
                          11719 ; genCall
   2924 CD 00 00          11720 	call	_wait_vbl_done
                          11721 ; genGoto
   2927 C3 14 29          11722 	jp	00101$
                          11723 ; genLabel
   292A                   11724 00104$:
                          11725 ; genEndFunction
   292A C1                11726 	pop	bc
   292B C9                11727 	ret
   292C                   11728 ___waitFrames_end:
                          11729 ;	ishallbequeen.c 1434
                          11730 ; genLabel
                          11731 ; genFunction
                          11732 ;	---------------------------------
                          11733 ; Function switchRomBanks
                          11734 ; ---------------------------------
   292C                   11735 ___switchRomBanks_start:
   292C                   11736 _switchRomBanks:
   292C C5                11737 	push	bc
                          11738 ;	ishallbequeen.c 1435
                          11739 ; genAssign
                          11740 ; AOP_HL for _initBank
   292D 21 7B 00          11741 	ld	hl,#_initBank + 0
   2930 36 01             11742 	ld	(hl),#0x01
                          11743 ;	ishallbequeen.c 1436
                          11744 ; genCall
   2932 CD 44 29          11745 	call	_stopAllSounds
                          11746 ;	ishallbequeen.c 1437
                          11747 ; genAssign
   2935 11 00 20          11748 	ld	de,#0x2000
                          11749 ; genAssign (pointer)
                          11750 ; AOP_HL for _newBank
   2938 21 7C 00          11751 	ld	hl,#_newBank + 0
   293B 7E                11752 	ld	a,(hl)
   293C 12                11753 	ld	(de),a
                          11754 ;	ishallbequeen.c 1438
                          11755 ; genAssign
                          11756 ; AOP_HL for _newBank
   293D 36 00             11757 	ld	(hl),#0x00
                          11758 ;	ishallbequeen.c 1439
                          11759 ; genCall
   293F CD 00 00          11760 	call	_wait_vbl_done
                          11761 ; genLabel
   2942                   11762 00101$:
                          11763 ; genEndFunction
   2942 C1                11764 	pop	bc
   2943 C9                11765 	ret
   2944                   11766 ___switchRomBanks_end:
                          11767 ;	ishallbequeen.c 1442
                          11768 ; genLabel
                          11769 ; genFunction
                          11770 ;	---------------------------------
                          11771 ; Function stopAllSounds
                          11772 ; ---------------------------------
   2944                   11773 ___stopAllSounds_start:
   2944                   11774 _stopAllSounds:
   2944 C5                11775 	push	bc
                          11776 ;	ishallbequeen.c 1443
                          11777 ; genAssign
                          11778 ; AOP_SFR for _NR11_REG
   2945 3E 00             11779 	ld	a,#0x00
   2947 E0 00             11780 	ldh	(_NR11_REG+0),a
                          11781 ;	ishallbequeen.c 1444
                          11782 ; genAssign
                          11783 ; AOP_SFR for _NR12_REG
   2949 3E 00             11784 	ld	a,#0x00
   294B E0 00             11785 	ldh	(_NR12_REG+0),a
                          11786 ;	ishallbequeen.c 1445
                          11787 ; genAssign
                          11788 ; AOP_SFR for _NR13_REG
   294D 3E 00             11789 	ld	a,#0x00
   294F E0 00             11790 	ldh	(_NR13_REG+0),a
                          11791 ;	ishallbequeen.c 1446
                          11792 ; genAssign
                          11793 ; AOP_SFR for _NR14_REG
   2951 3E 00             11794 	ld	a,#0x00
   2953 E0 00             11795 	ldh	(_NR14_REG+0),a
                          11796 ;	ishallbequeen.c 1448
                          11797 ; genAssign
                          11798 ; AOP_SFR for _NR21_REG
   2955 3E 00             11799 	ld	a,#0x00
   2957 E0 00             11800 	ldh	(_NR21_REG+0),a
                          11801 ;	ishallbequeen.c 1449
                          11802 ; genAssign
                          11803 ; AOP_SFR for _NR22_REG
   2959 3E 00             11804 	ld	a,#0x00
   295B E0 00             11805 	ldh	(_NR22_REG+0),a
                          11806 ;	ishallbequeen.c 1450
                          11807 ; genAssign
                          11808 ; AOP_SFR for _NR23_REG
   295D 3E 00             11809 	ld	a,#0x00
   295F E0 00             11810 	ldh	(_NR23_REG+0),a
                          11811 ;	ishallbequeen.c 1451
                          11812 ; genAssign
                          11813 ; AOP_SFR for _NR24_REG
   2961 3E 00             11814 	ld	a,#0x00
   2963 E0 00             11815 	ldh	(_NR24_REG+0),a
                          11816 ;	ishallbequeen.c 1453
                          11817 ; genAssign
                          11818 ; AOP_SFR for _NR41_REG
   2965 3E 00             11819 	ld	a,#0x00
   2967 E0 00             11820 	ldh	(_NR41_REG+0),a
                          11821 ;	ishallbequeen.c 1454
                          11822 ; genAssign
                          11823 ; AOP_SFR for _NR42_REG
   2969 3E 00             11824 	ld	a,#0x00
   296B E0 00             11825 	ldh	(_NR42_REG+0),a
                          11826 ;	ishallbequeen.c 1455
                          11827 ; genAssign
                          11828 ; AOP_SFR for _NR43_REG
   296D 3E 00             11829 	ld	a,#0x00
   296F E0 00             11830 	ldh	(_NR43_REG+0),a
                          11831 ;	ishallbequeen.c 1456
                          11832 ; genAssign
                          11833 ; AOP_SFR for _NR44_REG
   2971 3E 00             11834 	ld	a,#0x00
   2973 E0 00             11835 	ldh	(_NR44_REG+0),a
                          11836 ; genLabel
   2975                   11837 00101$:
                          11838 ; genEndFunction
   2975 C1                11839 	pop	bc
   2976 C9                11840 	ret
   2977                   11841 ___stopAllSounds_end:
                          11842 ;	ishallbequeen.c 1460
                          11843 ; genLabel
                          11844 ; genFunction
                          11845 ;	---------------------------------
                          11846 ; Function destroyEnemy
                          11847 ; ---------------------------------
   2977                   11848 ___destroyEnemy_start:
   2977                   11849 _destroyEnemy:
   2977 C5                11850 	push	bc
   2978 E8 FC             11851 	lda sp,-4(sp)
                          11852 ;	ishallbequeen.c 1462
                          11853 ; genCall
   297A CD 44 29          11854 	call	_stopAllSounds
                          11855 ;	ishallbequeen.c 1464
                          11856 ; genIpush
   297D 3E 20             11857 	ld	a,#0x20
   297F F5                11858 	push	af
   2980 33                11859 	inc	sp
                          11860 ; genIpush
                          11861 ; AOP_SFR for _DIV_REG
   2981 F0 00             11862 	ldh	a,(_DIV_REG+0) ; x
                          11863 ; Removed redundent load
   2983 F5                11864 	push	af
   2984 33                11865 	inc	sp
                          11866 ; genCall
   2985 CD 00 00          11867 	call	__moduchar
   2988 4B                11868 	ld	c,e
   2989 E8 02             11869 	lda	sp,2(sp)
                          11870 ; genCmpLt
   298B 79                11871 	ld	a,c
   298C FE 08             11872 	cp	#0x08
   298E D2 94 29          11873 	jp	nc,00102$
                          11874 ;	ishallbequeen.c 1465
                          11875 ; genCall
   2991 CD 8A 2D          11876 	call	_instantiatePowerUp
                          11877 ; genLabel
   2994                   11878 00102$:
                          11879 ;	ishallbequeen.c 1468
                          11880 ; genPlus
                          11881 ; AOP_HL for _frameCounter
                          11882 ; AOP_HL for _eHitIndex
                          11883 ; AOP_STK for _destroyEnemy_sloc1_1_0
   2994 21 A4 00          11884 	ld	hl,#_frameCounter + 0
   2997 7E                11885 	ld	a,(hl)
   2998 21 8A 00          11886 	ld	hl,#_eHitIndex + 0
   299B 86                11887 	add	a,(hl)
   299C F8 02             11888 	lda	hl,2(sp)
   299E 77                11889 	ld	(hl),a ; 3
                          11890 ; genIpush
   299F 3E 02             11891 	ld	a,#0x02
   29A1 F5                11892 	push	af
   29A2 33                11893 	inc	sp
                          11894 ; genIpush
                          11895 ; AOP_STK for _destroyEnemy_sloc1_1_0
   29A3 7E                11896 	ld	a,(hl)
   29A4 F5                11897 	push	af
   29A5 33                11898 	inc	sp
                          11899 ; genCall
   29A6 CD 00 00          11900 	call	__moduchar
   29A9 43                11901 	ld	b,e
   29AA E8 02             11902 	lda	sp,2(sp)
                          11903 ; genCmpEq
                          11904 ; AOP_STK for _destroyEnemy_sloc0_1_0
   29AC 78                11905 	ld	a,b
   29AD B7                11906 	or	a,a
   29AE C2 B5 29          11907 	jp	nz,00136$
   29B1 3E 01             11908 	ld	a,#0x01
   29B3 18 01             11909 	jr	00137$
   29B5                   11910 00136$:
   29B5 AF                11911 	xor	a,a
   29B6                   11912 00137$:
   29B6 F8 03             11913 	lda	hl,3(sp)
   29B8 77                11914 	ld	(hl),a ; 3
                          11915 ; genIfx
                          11916 ; AOP_STK for _destroyEnemy_sloc0_1_0
                          11917 ; Removed redundent or a,a
   29B9 AF                11918 	xor	a,a
   29BA B6                11919 	or	a,(hl)
   29BB CA D8 29          11920 	jp	z,00104$
                          11921 ;	ishallbequeen.c 1470
                          11922 ; genAssign
                          11923 ; AOP_HL for _eHitIndex
   29BE 21 8A 00          11924 	ld	hl,#_eHitIndex + 0
   29C1 46                11925 	ld	b,(hl)
                          11926 ; genPlus
   29C2 3E AC             11927 	ld	a,#<_eX
   29C4 80                11928 	add	a,b
   29C5 5F                11929 	ld	e,a
   29C6 3E 00             11930 	ld	a,#>_eX
   29C8 CE 00             11931 	adc	a,#0x00
   29CA 57                11932 	ld	d,a
                          11933 ; genLeftShift
                          11934 ; AOP_HL for _eHitIndex
   29CB 7E                11935 	ld	a,(hl)
   29CC 87                11936 	add	a,a
   29CD 87                11937 	add	a,a
   29CE 47                11938 	ld	b,a
                          11939 ; genPlus
                          11940 ; genPlusIncr
   29CF 78                11941 	ld	a,b
   29D0 C6 F0             11942 	add	a,#0xF0
   29D2 47                11943 	ld	b,a
                          11944 ; genAssign (pointer)
   29D3 78                11945 	ld	a,b
   29D4 12                11946 	ld	(de),a
                          11947 ;	ishallbequeen.c 1471
                          11948 ; genGoto
   29D5 C3 F5 29          11949 	jp	00105$
                          11950 ;	ishallbequeen.c 1473
                          11951 ; genLabel
   29D8                   11952 00104$:
                          11953 ; genAssign
                          11954 ; AOP_HL for _eHitIndex
   29D8 21 8A 00          11955 	ld	hl,#_eHitIndex + 0
   29DB 46                11956 	ld	b,(hl)
                          11957 ; genPlus
   29DC 3E AC             11958 	ld	a,#<_eX
   29DE 80                11959 	add	a,b
   29DF 5F                11960 	ld	e,a
   29E0 3E 00             11961 	ld	a,#>_eX
   29E2 CE 00             11962 	adc	a,#0x00
   29E4 57                11963 	ld	d,a
                          11964 ; genLeftShift
                          11965 ; AOP_HL for _eHitIndex
   29E5 7E                11966 	ld	a,(hl)
   29E6 CB 17             11967 	rl	a
   29E8 CB 17             11968 	rl	a
   29EA CB 17             11969 	rl	a
   29EC E6 F8             11970 	and	a,#0xF8
   29EE 47                11971 	ld	b,a
                          11972 ; genPlus
                          11973 ; genPlusIncr
   29EF 78                11974 	ld	a,b
   29F0 C6 A0             11975 	add	a,#0xA0
   29F2 47                11976 	ld	b,a
                          11977 ; genAssign (pointer)
   29F3 78                11978 	ld	a,b
   29F4 12                11979 	ld	(de),a
                          11980 ;	ishallbequeen.c 1474
                          11981 ; genLabel
   29F5                   11982 00105$:
                          11983 ;	ishallbequeen.c 1476
                          11984 ; genCmpEq
                          11985 ; AOP_HL for _level
   29F5 21 0A 00          11986 	ld	hl,#_level + 0
   29F8 7E                11987 	ld	a,(hl) ; 2
   29F9 FE 01             11988 	cp	a,#0x01
                          11989 ; Rule 5
   29FB CA 0A 2A          11990 	jp	z,00106$
   29FE                   11991 00138$:
                          11992 ; genCmpEq
                          11993 ; AOP_HL for _level
   29FE 21 0A 00          11994 	ld	hl,#_level + 0
   2A01 7E                11995 	ld	a,(hl) ; 2
   2A02 FE 02             11996 	cp	a,#0x02
                          11997 ; Rule 5
   2A04 CA 60 2A          11998 	jp	z,00107$
   2A07                   11999 00139$:
                          12000 ; genGoto
   2A07 C3 E5 2A          12001 	jp	00117$
                          12002 ;	ishallbequeen.c 1478
                          12003 ; genLabel
   2A0A                   12004 00106$:
                          12005 ; genAssign
                          12006 ; AOP_HL for _eHitIndex
   2A0A 21 8A 00          12007 	ld	hl,#_eHitIndex + 0
   2A0D 46                12008 	ld	b,(hl)
                          12009 ; genPlus
   2A0E 3E BE             12010 	ld	a,#<_eType
   2A10 80                12011 	add	a,b
   2A11 5F                12012 	ld	e,a
   2A12 3E 00             12013 	ld	a,#>_eType
   2A14 CE 00             12014 	adc	a,#0x00
   2A16 57                12015 	ld	d,a
                          12016 ; genAssign (pointer)
   2A17 3E C0             12017 	ld	a,#0xC0
   2A19 12                12018 	ld	(de),a
                          12019 ;	ishallbequeen.c 1479
                          12020 ; genAssign
                          12021 ; AOP_HL for _eHitIndex
   2A1A 46                12022 	ld	b,(hl)
                          12023 ; genPlus
   2A1B 3E C4             12024 	ld	a,#<_eRealType
   2A1D 80                12025 	add	a,b
   2A1E 5F                12026 	ld	e,a
   2A1F 3E 00             12027 	ld	a,#>_eRealType
   2A21 CE 00             12028 	adc	a,#0x00
   2A23 57                12029 	ld	d,a
                          12030 ; genAssign (pointer)
   2A24 3E 00             12031 	ld	a,#0x00
   2A26 12                12032 	ld	(de),a
                          12033 ;	ishallbequeen.c 1480
                          12034 ; genAssign
                          12035 ; AOP_HL for _eHitIndex
   2A27 46                12036 	ld	b,(hl)
                          12037 ; genPlus
                          12038 ; AOP_STK for _destroyEnemy_sloc2_1_0
   2A28 3E AF             12039 	ld	a,#<_eY
   2A2A 80                12040 	add	a,b
   2A2B F8 00             12041 	lda	hl,0(sp)
   2A2D 77                12042 	ld	(hl),a ; 3
   2A2E 3E 00             12043 	ld	a,#>_eY
   2A30 CE 00             12044 	adc	a,#0x00
   2A32 23                12045 	inc	hl
   2A33 77                12046 	ld	(hl),a ; 3
                          12047 ; genIpush
   2A34 3E 50             12048 	ld	a,#0x50
   2A36 F5                12049 	push	af
   2A37 33                12050 	inc	sp
                          12051 ; genIpush
                          12052 ; AOP_SFR for _DIV_REG
   2A38 F0 00             12053 	ldh	a,(_DIV_REG+0) ; x
                          12054 ; Removed redundent load
   2A3A F5                12055 	push	af
   2A3B 33                12056 	inc	sp
                          12057 ; genCall
   2A3C CD 00 00          12058 	call	__moduchar
   2A3F 4B                12059 	ld	c,e
   2A40 E8 02             12060 	lda	sp,2(sp)
                          12061 ; genPlus
                          12062 ; genPlusIncr
   2A42 79                12063 	ld	a,c
   2A43 C6 30             12064 	add	a,#0x30
   2A45 4F                12065 	ld	c,a
                          12066 ; genAssign (pointer)
                          12067 ; AOP_STK for _destroyEnemy_sloc2_1_0
   2A46 F8 00             12068 	lda	hl,0(sp)
   2A48 5E                12069 	ld	e,(hl)
   2A49 23                12070 	inc	hl
   2A4A 56                12071 	ld	d,(hl)
   2A4B 79                12072 	ld	a,c
   2A4C 12                12073 	ld	(de),a
                          12074 ;	ishallbequeen.c 1481
                          12075 ; genAssign
                          12076 ; AOP_HL for _eHitIndex
   2A4D 21 8A 00          12077 	ld	hl,#_eHitIndex + 0
   2A50 4E                12078 	ld	c,(hl)
                          12079 ; genPlus
   2A51 3E B8             12080 	ld	a,#<_eHP
   2A53 81                12081 	add	a,c
   2A54 5F                12082 	ld	e,a
   2A55 3E 00             12083 	ld	a,#>_eHP
   2A57 CE 00             12084 	adc	a,#0x00
   2A59 57                12085 	ld	d,a
                          12086 ; genAssign (pointer)
   2A5A 3E 10             12087 	ld	a,#0x10
   2A5C 12                12088 	ld	(de),a
                          12089 ;	ishallbequeen.c 1482
                          12090 ; genGoto
   2A5D C3 1B 2D          12091 	jp	00118$
                          12092 ;	ishallbequeen.c 1489
                          12093 ; genLabel
   2A60                   12094 00107$:
                          12095 ;	ishallbequeen.c 1486
                          12096 ; genAssign
                          12097 ; AOP_HL for _i
   2A60 21 0B 00          12098 	ld	hl,#_i + 0
   2A63 36 00             12099 	ld	(hl),#0x00
                          12100 ; genLabel
   2A65                   12101 00121$:
                          12102 ; genCmpEq
                          12103 ; AOP_HL for _i
   2A65 21 0B 00          12104 	ld	hl,#_i + 0
   2A68 7E                12105 	ld	a,(hl) ; 2
   2A69 FE 03             12106 	cp	a,#0x03
                          12107 ; Rule 5
   2A6B CA 8F 2A          12108 	jp	z,00124$
   2A6E                   12109 00140$:
                          12110 ;	ishallbequeen.c 1487
                          12111 ; genAssign
                          12112 ; AOP_HL for _i
   2A6E 21 0B 00          12113 	ld	hl,#_i + 0
   2A71 4E                12114 	ld	c,(hl)
                          12115 ; genPlus
   2A72 3E BE             12116 	ld	a,#<_eType
   2A74 81                12117 	add	a,c
   2A75 5F                12118 	ld	e,a
   2A76 3E 00             12119 	ld	a,#>_eType
   2A78 CE 00             12120 	adc	a,#0x00
   2A7A 57                12121 	ld	d,a
                          12122 ; genAssign (pointer)
   2A7B 3E D0             12123 	ld	a,#0xD0
   2A7D 12                12124 	ld	(de),a
                          12125 ;	ishallbequeen.c 1488
                          12126 ; genAssign
                          12127 ; AOP_HL for _i
   2A7E 4E                12128 	ld	c,(hl)
                          12129 ; genPlus
   2A7F 3E C4             12130 	ld	a,#<_eRealType
   2A81 81                12131 	add	a,c
   2A82 5F                12132 	ld	e,a
   2A83 3E 00             12133 	ld	a,#>_eRealType
   2A85 CE 00             12134 	adc	a,#0x00
   2A87 57                12135 	ld	d,a
                          12136 ; genAssign (pointer)
   2A88 3E 01             12137 	ld	a,#0x01
   2A8A 12                12138 	ld	(de),a
                          12139 ;	ishallbequeen.c 1486
                          12140 ; genPlus
                          12141 ; AOP_HL for _i
                          12142 ; genPlusIncr
   2A8B 34                12143 	inc	(hl)
                          12144 ; genGoto
   2A8C C3 65 2A          12145 	jp	00121$
                          12146 ; genLabel
   2A8F                   12147 00124$:
                          12148 ;	ishallbequeen.c 1491
                          12149 ; genAssign
                          12150 ; AOP_HL for _eHitIndex
   2A8F 21 8A 00          12151 	ld	hl,#_eHitIndex + 0
   2A92 4E                12152 	ld	c,(hl)
                          12153 ; genPlus
   2A93 3E BE             12154 	ld	a,#<_eType
   2A95 81                12155 	add	a,c
   2A96 5F                12156 	ld	e,a
   2A97 3E 00             12157 	ld	a,#>_eType
   2A99 CE 00             12158 	adc	a,#0x00
   2A9B 57                12159 	ld	d,a
                          12160 ; genAssign (pointer)
   2A9C 3E D0             12161 	ld	a,#0xD0
   2A9E 12                12162 	ld	(de),a
                          12163 ;	ishallbequeen.c 1492
                          12164 ; genAssign
                          12165 ; AOP_HL for _eHitIndex
   2A9F 4E                12166 	ld	c,(hl)
                          12167 ; genPlus
   2AA0 3E C4             12168 	ld	a,#<_eRealType
   2AA2 81                12169 	add	a,c
   2AA3 5F                12170 	ld	e,a
   2AA4 3E 00             12171 	ld	a,#>_eRealType
   2AA6 CE 00             12172 	adc	a,#0x00
   2AA8 57                12173 	ld	d,a
                          12174 ; genAssign (pointer)
   2AA9 3E 01             12175 	ld	a,#0x01
   2AAB 12                12176 	ld	(de),a
                          12177 ;	ishallbequeen.c 1493
                          12178 ; genAssign
                          12179 ; AOP_HL for _eHitIndex
   2AAC 4E                12180 	ld	c,(hl)
                          12181 ; genPlus
                          12182 ; AOP_STK for _destroyEnemy_sloc2_1_0
   2AAD 3E AF             12183 	ld	a,#<_eY
   2AAF 81                12184 	add	a,c
   2AB0 F8 00             12185 	lda	hl,0(sp)
   2AB2 77                12186 	ld	(hl),a ; 3
   2AB3 3E 00             12187 	ld	a,#>_eY
   2AB5 CE 00             12188 	adc	a,#0x00
   2AB7 23                12189 	inc	hl
   2AB8 77                12190 	ld	(hl),a ; 3
                          12191 ; genIpush
   2AB9 3E 50             12192 	ld	a,#0x50
   2ABB F5                12193 	push	af
   2ABC 33                12194 	inc	sp
                          12195 ; genIpush
                          12196 ; AOP_SFR for _DIV_REG
   2ABD F0 00             12197 	ldh	a,(_DIV_REG+0) ; x
                          12198 ; Removed redundent load
   2ABF F5                12199 	push	af
   2AC0 33                12200 	inc	sp
                          12201 ; genCall
   2AC1 CD 00 00          12202 	call	__moduchar
   2AC4 4B                12203 	ld	c,e
   2AC5 E8 02             12204 	lda	sp,2(sp)
                          12205 ; genPlus
                          12206 ; genPlusIncr
   2AC7 79                12207 	ld	a,c
   2AC8 C6 30             12208 	add	a,#0x30
   2ACA 4F                12209 	ld	c,a
                          12210 ; genAssign (pointer)
                          12211 ; AOP_STK for _destroyEnemy_sloc2_1_0
   2ACB F8 00             12212 	lda	hl,0(sp)
   2ACD 5E                12213 	ld	e,(hl)
   2ACE 23                12214 	inc	hl
   2ACF 56                12215 	ld	d,(hl)
   2AD0 79                12216 	ld	a,c
   2AD1 12                12217 	ld	(de),a
                          12218 ;	ishallbequeen.c 1494
                          12219 ; genAssign
                          12220 ; AOP_HL for _eHitIndex
   2AD2 21 8A 00          12221 	ld	hl,#_eHitIndex + 0
   2AD5 4E                12222 	ld	c,(hl)
                          12223 ; genPlus
   2AD6 3E B8             12224 	ld	a,#<_eHP
   2AD8 81                12225 	add	a,c
   2AD9 5F                12226 	ld	e,a
   2ADA 3E 00             12227 	ld	a,#>_eHP
   2ADC CE 00             12228 	adc	a,#0x00
   2ADE 57                12229 	ld	d,a
                          12230 ; genAssign (pointer)
   2ADF 3E 18             12231 	ld	a,#0x18
   2AE1 12                12232 	ld	(de),a
                          12233 ;	ishallbequeen.c 1495
                          12234 ; genGoto
   2AE2 C3 1B 2D          12235 	jp	00118$
                          12236 ;	ishallbequeen.c 1546
                          12237 ; genLabel
   2AE5                   12238 00117$:
                          12239 ;	ishallbequeen.c 1498
                          12240 ; genIpush
   2AE5 3E 04             12241 	ld	a,#0x04
   2AE7 F5                12242 	push	af
   2AE8 33                12243 	inc	sp
                          12244 ; genIpush
                          12245 ; AOP_STK for _destroyEnemy_sloc1_1_0
   2AE9 F8 03             12246 	lda	hl,3(sp)
   2AEB 7E                12247 	ld	a,(hl)
   2AEC F5                12248 	push	af
   2AED 33                12249 	inc	sp
                          12250 ; genCall
   2AEE CD 00 00          12251 	call	__moduchar
   2AF1 4B                12252 	ld	c,e
   2AF2 E8 02             12253 	lda	sp,2(sp)
                          12254 ; genCmpGt
   2AF4 AF                12255 	xor	a,a
   2AF5 3E 04             12256 	ld	a,#0x04
   2AF7 99                12257 	sbc	a,c ; 2
   2AF8 DA 1B 2D          12258 	jp	c,00118$
                          12259 ; genJumpTab
   2AFB 59                12260 	ld	e,c
   2AFC 16 00             12261 	ld	d,#0x00
   2AFE 21 05 2B          12262 	ld	hl,#00141$
   2B01 19                12263 	add	hl,de
   2B02 19                12264 	add	hl,de
   2B03 19                12265 	add	hl,de
   2B04 E9                12266 	jp	(hl)
   2B05                   12267 00141$:
   2B05 C3 14 2B          12268 	jp	00109$
   2B08 C3 77 2B          12269 	jp	00110$
   2B0B C3 FF 2B          12270 	jp	00111$
   2B0E C3 6F 2C          12271 	jp	00115$
   2B11 C3 14 2B          12272 	jp	00108$
                          12273 ;	ishallbequeen.c 1502
                          12274 ; genLabel
   2B14                   12275 00109$:
                          12276 ; genLabel
   2B14                   12277 00108$:
                          12278 ; genAssign
                          12279 ; AOP_HL for _eHitIndex
   2B14 21 8A 00          12280 	ld	hl,#_eHitIndex + 0
   2B17 4E                12281 	ld	c,(hl)
                          12282 ; genPlus
   2B18 3E BE             12283 	ld	a,#<_eType
   2B1A 81                12284 	add	a,c
   2B1B 5F                12285 	ld	e,a
   2B1C 3E 00             12286 	ld	a,#>_eType
   2B1E CE 00             12287 	adc	a,#0x00
   2B20 57                12288 	ld	d,a
                          12289 ; genAssign (pointer)
   2B21 3E C0             12290 	ld	a,#0xC0
   2B23 12                12291 	ld	(de),a
                          12292 ;	ishallbequeen.c 1503
                          12293 ; genAssign
                          12294 ; AOP_HL for _eHitIndex
   2B24 4E                12295 	ld	c,(hl)
                          12296 ; genPlus
                          12297 ; AOP_STK for _destroyEnemy_sloc2_1_0
   2B25 3E AF             12298 	ld	a,#<_eY
   2B27 81                12299 	add	a,c
   2B28 F8 00             12300 	lda	hl,0(sp)
   2B2A 77                12301 	ld	(hl),a ; 3
   2B2B 3E 00             12302 	ld	a,#>_eY
   2B2D CE 00             12303 	adc	a,#0x00
   2B2F 23                12304 	inc	hl
   2B30 77                12305 	ld	(hl),a ; 3
                          12306 ; genIpush
   2B31 3E 50             12307 	ld	a,#0x50
   2B33 F5                12308 	push	af
   2B34 33                12309 	inc	sp
                          12310 ; genIpush
                          12311 ; AOP_SFR for _DIV_REG
   2B35 F0 00             12312 	ldh	a,(_DIV_REG+0) ; x
                          12313 ; Removed redundent load
   2B37 F5                12314 	push	af
   2B38 33                12315 	inc	sp
                          12316 ; genCall
   2B39 CD 00 00          12317 	call	__moduchar
   2B3C 4B                12318 	ld	c,e
   2B3D E8 02             12319 	lda	sp,2(sp)
                          12320 ; genPlus
                          12321 ; genPlusIncr
   2B3F 79                12322 	ld	a,c
   2B40 C6 30             12323 	add	a,#0x30
   2B42 4F                12324 	ld	c,a
                          12325 ; genAssign (pointer)
                          12326 ; AOP_STK for _destroyEnemy_sloc2_1_0
   2B43 F8 00             12327 	lda	hl,0(sp)
   2B45 5E                12328 	ld	e,(hl)
   2B46 23                12329 	inc	hl
   2B47 56                12330 	ld	d,(hl)
   2B48 79                12331 	ld	a,c
   2B49 12                12332 	ld	(de),a
                          12333 ;	ishallbequeen.c 1504
                          12334 ; genAssign
                          12335 ; AOP_HL for _eHitIndex
   2B4A 21 8A 00          12336 	ld	hl,#_eHitIndex + 0
   2B4D 4E                12337 	ld	c,(hl)
                          12338 ; genPlus
   2B4E 3E B8             12339 	ld	a,#<_eHP
   2B50 81                12340 	add	a,c
   2B51 5F                12341 	ld	e,a
   2B52 3E 00             12342 	ld	a,#>_eHP
   2B54 CE 00             12343 	adc	a,#0x00
   2B56 57                12344 	ld	d,a
                          12345 ; genAssign (pointer)
   2B57 3E 10             12346 	ld	a,#0x10
   2B59 12                12347 	ld	(de),a
                          12348 ;	ishallbequeen.c 1505
                          12349 ; genAssign
                          12350 ; AOP_HL for _eHitIndex
   2B5A 4E                12351 	ld	c,(hl)
                          12352 ; genPlus
   2B5B 3E C4             12353 	ld	a,#<_eRealType
   2B5D 81                12354 	add	a,c
   2B5E 5F                12355 	ld	e,a
   2B5F 3E 00             12356 	ld	a,#>_eRealType
   2B61 CE 00             12357 	adc	a,#0x00
   2B63 57                12358 	ld	d,a
                          12359 ; genAssign (pointer)
   2B64 3E 00             12360 	ld	a,#0x00
   2B66 12                12361 	ld	(de),a
                          12362 ;	ishallbequeen.c 1506
                          12363 ; genAssign
                          12364 ; AOP_HL for _eHitIndex
   2B67 4E                12365 	ld	c,(hl)
                          12366 ; genPlus
   2B68 3E C1             12367 	ld	a,#<_eDamage
   2B6A 81                12368 	add	a,c
   2B6B 5F                12369 	ld	e,a
   2B6C 3E 00             12370 	ld	a,#>_eDamage
   2B6E CE 00             12371 	adc	a,#0x00
   2B70 57                12372 	ld	d,a
                          12373 ; genAssign (pointer)
   2B71 3E 03             12374 	ld	a,#0x03
   2B73 12                12375 	ld	(de),a
                          12376 ;	ishallbequeen.c 1507
                          12377 ; genGoto
   2B74 C3 1B 2D          12378 	jp	00118$
                          12379 ;	ishallbequeen.c 1511
                          12380 ; genLabel
   2B77                   12381 00110$:
                          12382 ; genAssign
                          12383 ; AOP_HL for _eHitIndex
   2B77 21 8A 00          12384 	ld	hl,#_eHitIndex + 0
   2B7A 4E                12385 	ld	c,(hl)
                          12386 ; genPlus
   2B7B 3E BE             12387 	ld	a,#<_eType
   2B7D 81                12388 	add	a,c
   2B7E 5F                12389 	ld	e,a
   2B7F 3E 00             12390 	ld	a,#>_eType
   2B81 CE 00             12391 	adc	a,#0x00
   2B83 57                12392 	ld	d,a
                          12393 ; genAssign (pointer)
   2B84 3E D0             12394 	ld	a,#0xD0
   2B86 12                12395 	ld	(de),a
                          12396 ;	ishallbequeen.c 1512
                          12397 ; genAssign
                          12398 ; AOP_HL for _eHitIndex
   2B87 4E                12399 	ld	c,(hl)
                          12400 ; genPlus
                          12401 ; AOP_STK for _destroyEnemy_sloc2_1_0
   2B88 3E AF             12402 	ld	a,#<_eY
   2B8A 81                12403 	add	a,c
   2B8B F8 00             12404 	lda	hl,0(sp)
   2B8D 77                12405 	ld	(hl),a ; 3
   2B8E 3E 00             12406 	ld	a,#>_eY
   2B90 CE 00             12407 	adc	a,#0x00
   2B92 23                12408 	inc	hl
   2B93 77                12409 	ld	(hl),a ; 3
                          12410 ; genIpush
   2B94 3E 50             12411 	ld	a,#0x50
   2B96 F5                12412 	push	af
   2B97 33                12413 	inc	sp
                          12414 ; genIpush
                          12415 ; AOP_SFR for _DIV_REG
   2B98 F0 00             12416 	ldh	a,(_DIV_REG+0) ; x
                          12417 ; Removed redundent load
   2B9A F5                12418 	push	af
   2B9B 33                12419 	inc	sp
                          12420 ; genCall
   2B9C CD 00 00          12421 	call	__moduchar
   2B9F 4B                12422 	ld	c,e
   2BA0 E8 02             12423 	lda	sp,2(sp)
                          12424 ; genPlus
                          12425 ; genPlusIncr
   2BA2 79                12426 	ld	a,c
   2BA3 C6 30             12427 	add	a,#0x30
   2BA5 4F                12428 	ld	c,a
                          12429 ; genAssign (pointer)
                          12430 ; AOP_STK for _destroyEnemy_sloc2_1_0
   2BA6 F8 00             12431 	lda	hl,0(sp)
   2BA8 5E                12432 	ld	e,(hl)
   2BA9 23                12433 	inc	hl
   2BAA 56                12434 	ld	d,(hl)
   2BAB 79                12435 	ld	a,c
   2BAC 12                12436 	ld	(de),a
                          12437 ;	ishallbequeen.c 1513
                          12438 ; genAssign
                          12439 ; AOP_HL for _eHitIndex
   2BAD 21 8A 00          12440 	ld	hl,#_eHitIndex + 0
   2BB0 4E                12441 	ld	c,(hl)
                          12442 ; genPlus
   2BB1 3E B8             12443 	ld	a,#<_eHP
   2BB3 81                12444 	add	a,c
   2BB4 5F                12445 	ld	e,a
   2BB5 3E 00             12446 	ld	a,#>_eHP
   2BB7 CE 00             12447 	adc	a,#0x00
   2BB9 57                12448 	ld	d,a
                          12449 ; genAssign (pointer)
   2BBA 3E 20             12450 	ld	a,#0x20
   2BBC 12                12451 	ld	(de),a
                          12452 ;	ishallbequeen.c 1514
                          12453 ; genAssign
                          12454 ; AOP_HL for _eHitIndex
   2BBD 4E                12455 	ld	c,(hl)
                          12456 ; genPlus
   2BBE 3E C4             12457 	ld	a,#<_eRealType
   2BC0 81                12458 	add	a,c
   2BC1 5F                12459 	ld	e,a
   2BC2 3E 00             12460 	ld	a,#>_eRealType
   2BC4 CE 00             12461 	adc	a,#0x00
   2BC6 57                12462 	ld	d,a
                          12463 ; genAssign (pointer)
   2BC7 3E 01             12464 	ld	a,#0x01
   2BC9 12                12465 	ld	(de),a
                          12466 ;	ishallbequeen.c 1515
                          12467 ; genAssign
                          12468 ; AOP_HL for _eHitIndex
   2BCA 4E                12469 	ld	c,(hl)
                          12470 ; genPlus
                          12471 ; AOP_STK for _destroyEnemy_sloc2_1_0
   2BCB 3E B5             12472 	ld	a,#<_eState
   2BCD 81                12473 	add	a,c
   2BCE F8 00             12474 	lda	hl,0(sp)
   2BD0 77                12475 	ld	(hl),a ; 3
   2BD1 3E 00             12476 	ld	a,#>_eState
   2BD3 CE 00             12477 	adc	a,#0x00
   2BD5 23                12478 	inc	hl
   2BD6 77                12479 	ld	(hl),a ; 3
                          12480 ; genIpush
   2BD7 3E 14             12481 	ld	a,#0x14
   2BD9 F5                12482 	push	af
   2BDA 33                12483 	inc	sp
                          12484 ; genIpush
                          12485 ; AOP_SFR for _DIV_REG
   2BDB F0 00             12486 	ldh	a,(_DIV_REG+0) ; x
                          12487 ; Removed redundent load
   2BDD F5                12488 	push	af
   2BDE 33                12489 	inc	sp
                          12490 ; genCall
   2BDF CD 00 00          12491 	call	__moduchar
   2BE2 4B                12492 	ld	c,e
   2BE3 E8 02             12493 	lda	sp,2(sp)
                          12494 ; genAssign (pointer)
                          12495 ; AOP_STK for _destroyEnemy_sloc2_1_0
   2BE5 F8 00             12496 	lda	hl,0(sp)
   2BE7 5E                12497 	ld	e,(hl)
   2BE8 23                12498 	inc	hl
   2BE9 56                12499 	ld	d,(hl)
   2BEA 79                12500 	ld	a,c
   2BEB 12                12501 	ld	(de),a
                          12502 ;	ishallbequeen.c 1516
                          12503 ; genAssign
                          12504 ; AOP_HL for _eHitIndex
   2BEC 21 8A 00          12505 	ld	hl,#_eHitIndex + 0
   2BEF 4E                12506 	ld	c,(hl)
                          12507 ; genPlus
   2BF0 3E C1             12508 	ld	a,#<_eDamage
   2BF2 81                12509 	add	a,c
   2BF3 5F                12510 	ld	e,a
   2BF4 3E 00             12511 	ld	a,#>_eDamage
   2BF6 CE 00             12512 	adc	a,#0x00
   2BF8 57                12513 	ld	d,a
                          12514 ; genAssign (pointer)
   2BF9 3E 02             12515 	ld	a,#0x02
   2BFB 12                12516 	ld	(de),a
                          12517 ;	ishallbequeen.c 1517
                          12518 ; genGoto
   2BFC C3 1B 2D          12519 	jp	00118$
                          12520 ;	ishallbequeen.c 1521
                          12521 ; genLabel
   2BFF                   12522 00111$:
                          12523 ; genAssign
                          12524 ; AOP_HL for _eHitIndex
   2BFF 21 8A 00          12525 	ld	hl,#_eHitIndex + 0
   2C02 4E                12526 	ld	c,(hl)
                          12527 ; genPlus
   2C03 3E BE             12528 	ld	a,#<_eType
   2C05 81                12529 	add	a,c
   2C06 5F                12530 	ld	e,a
   2C07 3E 00             12531 	ld	a,#>_eType
   2C09 CE 00             12532 	adc	a,#0x00
   2C0B 57                12533 	ld	d,a
                          12534 ; genAssign (pointer)
   2C0C 3E E0             12535 	ld	a,#0xE0
   2C0E 12                12536 	ld	(de),a
                          12537 ;	ishallbequeen.c 1522
                          12538 ; genAssign
                          12539 ; AOP_HL for _eHitIndex
   2C0F 4E                12540 	ld	c,(hl)
                          12541 ; genPlus
                          12542 ; AOP_STK for _destroyEnemy_sloc2_1_0
   2C10 3E AF             12543 	ld	a,#<_eY
   2C12 81                12544 	add	a,c
   2C13 F8 00             12545 	lda	hl,0(sp)
   2C15 77                12546 	ld	(hl),a ; 3
   2C16 3E 00             12547 	ld	a,#>_eY
   2C18 CE 00             12548 	adc	a,#0x00
   2C1A 23                12549 	inc	hl
   2C1B 77                12550 	ld	(hl),a ; 3
                          12551 ; genIpush
   2C1C 3E 50             12552 	ld	a,#0x50
   2C1E F5                12553 	push	af
   2C1F 33                12554 	inc	sp
                          12555 ; genIpush
                          12556 ; AOP_SFR for _DIV_REG
   2C20 F0 00             12557 	ldh	a,(_DIV_REG+0) ; x
                          12558 ; Removed redundent load
   2C22 F5                12559 	push	af
   2C23 33                12560 	inc	sp
                          12561 ; genCall
   2C24 CD 00 00          12562 	call	__moduchar
   2C27 4B                12563 	ld	c,e
   2C28 E8 02             12564 	lda	sp,2(sp)
                          12565 ; genPlus
                          12566 ; genPlusIncr
   2C2A 79                12567 	ld	a,c
   2C2B C6 30             12568 	add	a,#0x30
   2C2D 4F                12569 	ld	c,a
                          12570 ; genAssign (pointer)
                          12571 ; AOP_STK for _destroyEnemy_sloc2_1_0
   2C2E F8 00             12572 	lda	hl,0(sp)
   2C30 5E                12573 	ld	e,(hl)
   2C31 23                12574 	inc	hl
   2C32 56                12575 	ld	d,(hl)
   2C33 79                12576 	ld	a,c
   2C34 12                12577 	ld	(de),a
                          12578 ;	ishallbequeen.c 1523
                          12579 ; genAssign
                          12580 ; AOP_HL for _eHitIndex
   2C35 21 8A 00          12581 	ld	hl,#_eHitIndex + 0
   2C38 4E                12582 	ld	c,(hl)
                          12583 ; genPlus
   2C39 3E B8             12584 	ld	a,#<_eHP
   2C3B 81                12585 	add	a,c
   2C3C 5F                12586 	ld	e,a
   2C3D 3E 00             12587 	ld	a,#>_eHP
   2C3F CE 00             12588 	adc	a,#0x00
   2C41 57                12589 	ld	d,a
                          12590 ; genAssign (pointer)
   2C42 3E 30             12591 	ld	a,#0x30
   2C44 12                12592 	ld	(de),a
                          12593 ;	ishallbequeen.c 1524
                          12594 ; genAssign
                          12595 ; AOP_HL for _eHitIndex
   2C45 4E                12596 	ld	c,(hl)
                          12597 ; genPlus
   2C46 3E C4             12598 	ld	a,#<_eRealType
   2C48 81                12599 	add	a,c
   2C49 5F                12600 	ld	e,a
   2C4A 3E 00             12601 	ld	a,#>_eRealType
   2C4C CE 00             12602 	adc	a,#0x00
   2C4E 57                12603 	ld	d,a
                          12604 ; genAssign (pointer)
   2C4F 3E 02             12605 	ld	a,#0x02
   2C51 12                12606 	ld	(de),a
                          12607 ;	ishallbequeen.c 1525
                          12608 ; genAssign
                          12609 ; AOP_HL for _eHitIndex
   2C52 4E                12610 	ld	c,(hl)
                          12611 ; genPlus
   2C53 3E B5             12612 	ld	a,#<_eState
   2C55 81                12613 	add	a,c
   2C56 5F                12614 	ld	e,a
   2C57 3E 00             12615 	ld	a,#>_eState
   2C59 CE 00             12616 	adc	a,#0x00
   2C5B 57                12617 	ld	d,a
                          12618 ; genAssign (pointer)
                          12619 ; AOP_SFR for _DIV_REG
   2C5C F0 00             12620 	ldh	a,(_DIV_REG+0) ; x
   2C5E 12                12621 	ld	(de),a
                          12622 ;	ishallbequeen.c 1526
                          12623 ; genAssign
                          12624 ; AOP_HL for _eHitIndex
   2C5F 4E                12625 	ld	c,(hl)
                          12626 ; genPlus
   2C60 3E C1             12627 	ld	a,#<_eDamage
   2C62 81                12628 	add	a,c
   2C63 5F                12629 	ld	e,a
   2C64 3E 00             12630 	ld	a,#>_eDamage
   2C66 CE 00             12631 	adc	a,#0x00
   2C68 57                12632 	ld	d,a
                          12633 ; genAssign (pointer)
   2C69 3E 06             12634 	ld	a,#0x06
   2C6B 12                12635 	ld	(de),a
                          12636 ;	ishallbequeen.c 1527
                          12637 ; genGoto
   2C6C C3 1B 2D          12638 	jp	00118$
                          12639 ;	ishallbequeen.c 1538
                          12640 ; genLabel
   2C6F                   12641 00115$:
                          12642 ;	ishallbequeen.c 1532
                          12643 ; genIfx
                          12644 ; AOP_STK for _destroyEnemy_sloc0_1_0
   2C6F AF                12645 	xor	a,a
   2C70 F8 03             12646 	lda	hl,3(sp)
   2C72 B6                12647 	or	a,(hl)
   2C73 B7                12648 	or	a,a
   2C74 CA 91 2C          12649 	jp	z,00113$
                          12650 ;	ishallbequeen.c 1534
                          12651 ; genAssign
                          12652 ; AOP_HL for _eHitIndex
   2C77 21 8A 00          12653 	ld	hl,#_eHitIndex + 0
   2C7A 4E                12654 	ld	c,(hl)
                          12655 ; genPlus
   2C7B 3E AC             12656 	ld	a,#<_eX
   2C7D 81                12657 	add	a,c
   2C7E 5F                12658 	ld	e,a
   2C7F 3E 00             12659 	ld	a,#>_eX
   2C81 CE 00             12660 	adc	a,#0x00
   2C83 57                12661 	ld	d,a
                          12662 ; genLeftShift
                          12663 ; AOP_HL for _eHitIndex
   2C84 7E                12664 	ld	a,(hl)
   2C85 87                12665 	add	a,a
   2C86 87                12666 	add	a,a
   2C87 4F                12667 	ld	c,a
                          12668 ; genMinus
   2C88 3E F0             12669 	ld	a,#0xF0
   2C8A 91                12670 	sub	a,c
   2C8B 4F                12671 	ld	c,a
                          12672 ; genAssign (pointer)
   2C8C 79                12673 	ld	a,c
   2C8D 12                12674 	ld	(de),a
                          12675 ;	ishallbequeen.c 1535
                          12676 ; genGoto
   2C8E C3 AE 2C          12677 	jp	00114$
                          12678 ;	ishallbequeen.c 1537
                          12679 ; genLabel
   2C91                   12680 00113$:
                          12681 ; genAssign
                          12682 ; AOP_HL for _eHitIndex
   2C91 21 8A 00          12683 	ld	hl,#_eHitIndex + 0
   2C94 4E                12684 	ld	c,(hl)
                          12685 ; genPlus
   2C95 3E AC             12686 	ld	a,#<_eX
   2C97 81                12687 	add	a,c
   2C98 5F                12688 	ld	e,a
   2C99 3E 00             12689 	ld	a,#>_eX
   2C9B CE 00             12690 	adc	a,#0x00
   2C9D 57                12691 	ld	d,a
                          12692 ; genLeftShift
                          12693 ; AOP_HL for _eHitIndex
   2C9E 7E                12694 	ld	a,(hl)
   2C9F CB 17             12695 	rl	a
   2CA1 CB 17             12696 	rl	a
   2CA3 CB 17             12697 	rl	a
   2CA5 E6 F8             12698 	and	a,#0xF8
   2CA7 4F                12699 	ld	c,a
                          12700 ; genPlus
                          12701 ; genPlusIncr
   2CA8 79                12702 	ld	a,c
   2CA9 C6 A0             12703 	add	a,#0xA0
   2CAB 4F                12704 	ld	c,a
                          12705 ; genAssign (pointer)
   2CAC 79                12706 	ld	a,c
   2CAD 12                12707 	ld	(de),a
                          12708 ;	ishallbequeen.c 1538
                          12709 ; genLabel
   2CAE                   12710 00114$:
                          12711 ;	ishallbequeen.c 1539
                          12712 ; genAssign
                          12713 ; AOP_HL for _eHitIndex
   2CAE 21 8A 00          12714 	ld	hl,#_eHitIndex + 0
   2CB1 4E                12715 	ld	c,(hl)
                          12716 ; genPlus
   2CB2 3E B5             12717 	ld	a,#<_eState
   2CB4 81                12718 	add	a,c
   2CB5 5F                12719 	ld	e,a
   2CB6 3E 00             12720 	ld	a,#>_eState
   2CB8 CE 00             12721 	adc	a,#0x00
   2CBA 57                12722 	ld	d,a
                          12723 ; genAssign (pointer)
   2CBB 3E 00             12724 	ld	a,#0x00
   2CBD 12                12725 	ld	(de),a
                          12726 ;	ishallbequeen.c 1540
                          12727 ; genAssign
                          12728 ; AOP_HL for _eHitIndex
   2CBE 4E                12729 	ld	c,(hl)
                          12730 ; genPlus
                          12731 ; AOP_STK for _destroyEnemy_sloc2_1_0
   2CBF 3E AF             12732 	ld	a,#<_eY
   2CC1 81                12733 	add	a,c
   2CC2 F8 00             12734 	lda	hl,0(sp)
   2CC4 77                12735 	ld	(hl),a ; 3
   2CC5 3E 00             12736 	ld	a,#>_eY
   2CC7 CE 00             12737 	adc	a,#0x00
   2CC9 23                12738 	inc	hl
   2CCA 77                12739 	ld	(hl),a ; 3
                          12740 ; genIpush
   2CCB 3E 50             12741 	ld	a,#0x50
   2CCD F5                12742 	push	af
   2CCE 33                12743 	inc	sp
                          12744 ; genIpush
                          12745 ; AOP_SFR for _DIV_REG
   2CCF F0 00             12746 	ldh	a,(_DIV_REG+0) ; x
                          12747 ; Removed redundent load
   2CD1 F5                12748 	push	af
   2CD2 33                12749 	inc	sp
                          12750 ; genCall
   2CD3 CD 00 00          12751 	call	__moduchar
   2CD6 4B                12752 	ld	c,e
   2CD7 E8 02             12753 	lda	sp,2(sp)
                          12754 ; genPlus
                          12755 ; genPlusIncr
   2CD9 79                12756 	ld	a,c
   2CDA C6 30             12757 	add	a,#0x30
   2CDC 4F                12758 	ld	c,a
                          12759 ; genAssign (pointer)
                          12760 ; AOP_STK for _destroyEnemy_sloc2_1_0
   2CDD F8 00             12761 	lda	hl,0(sp)
   2CDF 5E                12762 	ld	e,(hl)
   2CE0 23                12763 	inc	hl
   2CE1 56                12764 	ld	d,(hl)
   2CE2 79                12765 	ld	a,c
   2CE3 12                12766 	ld	(de),a
                          12767 ;	ishallbequeen.c 1541
                          12768 ; genAssign
                          12769 ; AOP_HL for _eHitIndex
   2CE4 21 8A 00          12770 	ld	hl,#_eHitIndex + 0
   2CE7 4E                12771 	ld	c,(hl)
                          12772 ; genPlus
   2CE8 3E B8             12773 	ld	a,#<_eHP
   2CEA 81                12774 	add	a,c
   2CEB 5F                12775 	ld	e,a
   2CEC 3E 00             12776 	ld	a,#>_eHP
   2CEE CE 00             12777 	adc	a,#0x00
   2CF0 57                12778 	ld	d,a
                          12779 ; genAssign (pointer)
   2CF1 3E 20             12780 	ld	a,#0x20
   2CF3 12                12781 	ld	(de),a
                          12782 ;	ishallbequeen.c 1542
                          12783 ; genAssign
                          12784 ; AOP_HL for _eHitIndex
   2CF4 4E                12785 	ld	c,(hl)
                          12786 ; genPlus
   2CF5 3E C4             12787 	ld	a,#<_eRealType
   2CF7 81                12788 	add	a,c
   2CF8 5F                12789 	ld	e,a
   2CF9 3E 00             12790 	ld	a,#>_eRealType
   2CFB CE 00             12791 	adc	a,#0x00
   2CFD 57                12792 	ld	d,a
                          12793 ; genAssign (pointer)
   2CFE 3E 03             12794 	ld	a,#0x03
   2D00 12                12795 	ld	(de),a
                          12796 ;	ishallbequeen.c 1543
                          12797 ; genAssign
                          12798 ; AOP_HL for _eHitIndex
   2D01 4E                12799 	ld	c,(hl)
                          12800 ; genPlus
   2D02 3E BE             12801 	ld	a,#<_eType
   2D04 81                12802 	add	a,c
   2D05 5F                12803 	ld	e,a
   2D06 3E 00             12804 	ld	a,#>_eType
   2D08 CE 00             12805 	adc	a,#0x00
   2D0A 57                12806 	ld	d,a
                          12807 ; genAssign (pointer)
   2D0B 3E B4             12808 	ld	a,#0xB4
   2D0D 12                12809 	ld	(de),a
                          12810 ;	ishallbequeen.c 1544
                          12811 ; genAssign
                          12812 ; AOP_HL for _eHitIndex
   2D0E 4E                12813 	ld	c,(hl)
                          12814 ; genPlus
   2D0F 3E C1             12815 	ld	a,#<_eDamage
   2D11 81                12816 	add	a,c
   2D12 5F                12817 	ld	e,a
   2D13 3E 00             12818 	ld	a,#>_eDamage
   2D15 CE 00             12819 	adc	a,#0x00
   2D17 57                12820 	ld	d,a
                          12821 ; genAssign (pointer)
   2D18 3E 04             12822 	ld	a,#0x04
   2D1A 12                12823 	ld	(de),a
                          12824 ;	ishallbequeen.c 1549
                          12825 ; genLabel
   2D1B                   12826 00118$:
                          12827 ;	ishallbequeen.c 1552
                          12828 ; genMinus
                          12829 ; AOP_HL for _enemiesRemaining
   2D1B 21 A5 00          12830 	ld	hl,#_enemiesRemaining + 0
   2D1E 35                12831 	dec	(hl)
                          12832 ;	ishallbequeen.c 1553
                          12833 ; genIpush
   2D1F 3E 02             12834 	ld	a,#0x02
   2D21 F5                12835 	push	af
   2D22 33                12836 	inc	sp
                          12837 ; genIpush
   2D23 3E 01             12838 	ld	a,#0x01
   2D25 F5                12839 	push	af
   2D26 33                12840 	inc	sp
                          12841 ; genIpush
   2D27 3E 11             12842 	ld	a,#0x11
   2D29 F5                12843 	push	af
   2D2A 33                12844 	inc	sp
                          12845 ; genIpush
                          12846 ; AOP_HL for _enemiesRemaining
   2D2B 7E                12847 	ld	a,(hl)
   2D2C F5                12848 	push	af
   2D2D 33                12849 	inc	sp
                          12850 ; genCall
   2D2E CD EA 27          12851 	call	_showValue
   2D31 E8 04             12852 	lda	sp,4(sp)
                          12853 ;	ishallbequeen.c 1555
                          12854 ; genCmpEq
                          12855 ; AOP_HL for _enemiesRemaining
   2D33 21 A5 00          12856 	ld	hl,#_enemiesRemaining + 0
   2D36 7E                12857 	ld	a,(hl)
   2D37 B7                12858 	or	a,a
   2D38 C2 3D 2D          12859 	jp	nz,00142$
   2D3B 18 03             12860 	jr	00143$
   2D3D                   12861 00142$:
   2D3D C3 83 2D          12862 	jp	00120$
   2D40                   12863 00143$:
                          12864 ;	ishallbequeen.c 1556
                          12865 ; genPlus
                          12866 ; AOP_HL for _level
                          12867 ; genPlusIncr
   2D40 21 0A 00          12868 	ld	hl,#_level + 0
   2D43 34                12869 	inc	(hl)
                          12870 ;	ishallbequeen.c 1557
                          12871 ; genIpush
   2D44 3E 01             12872 	ld	a,#0x01
   2D46 F5                12873 	push	af
   2D47 33                12874 	inc	sp
                          12875 ; genIpush
   2D48 3E 01             12876 	ld	a,#0x01
   2D4A F5                12877 	push	af
   2D4B 33                12878 	inc	sp
                          12879 ; genIpush
   2D4C 3E 0C             12880 	ld	a,#0x0C
   2D4E F5                12881 	push	af
   2D4F 33                12882 	inc	sp
                          12883 ; genIpush
                          12884 ; AOP_HL for _level
   2D50 7E                12885 	ld	a,(hl)
   2D51 F5                12886 	push	af
   2D52 33                12887 	inc	sp
                          12888 ; genCall
   2D53 CD EA 27          12889 	call	_showValue
   2D56 E8 04             12890 	lda	sp,4(sp)
                          12891 ;	ishallbequeen.c 1558
                          12892 ; genIpush
   2D58 3E 0A             12893 	ld	a,#0x0A
   2D5A F5                12894 	push	af
   2D5B 33                12895 	inc	sp
                          12896 ; genIpush
                          12897 ; AOP_HL for _level
   2D5C 21 0A 00          12898 	ld	hl,#_level + 0
   2D5F 7E                12899 	ld	a,(hl)
   2D60 F5                12900 	push	af
   2D61 33                12901 	inc	sp
                          12902 ; genCall
   2D62 CD 00 00          12903 	call	__muluchar
   2D65 4B                12904 	ld	c,e
   2D66 E8 02             12905 	lda	sp,2(sp)
                          12906 ; genPlus
                          12907 ; AOP_HL for _enemiesRemaining
                          12908 ; genPlusIncr
   2D68 79                12909 	ld	a,c
   2D69 C6 0D             12910 	add	a,#0x0D
   2D6B 21 A5 00          12911 	ld	hl,#_enemiesRemaining + 0
   2D6E 77                12912 	ld	(hl),a
                          12913 ;	ishallbequeen.c 1559
                          12914 ; genIpush
   2D6F 3E 02             12915 	ld	a,#0x02
   2D71 F5                12916 	push	af
   2D72 33                12917 	inc	sp
                          12918 ; genIpush
   2D73 3E 01             12919 	ld	a,#0x01
   2D75 F5                12920 	push	af
   2D76 33                12921 	inc	sp
                          12922 ; genIpush
   2D77 3E 11             12923 	ld	a,#0x11
   2D79 F5                12924 	push	af
   2D7A 33                12925 	inc	sp
                          12926 ; genIpush
                          12927 ; AOP_HL for _enemiesRemaining
   2D7B 7E                12928 	ld	a,(hl)
   2D7C F5                12929 	push	af
   2D7D 33                12930 	inc	sp
                          12931 ; genCall
   2D7E CD EA 27          12932 	call	_showValue
   2D81 E8 04             12933 	lda	sp,4(sp)
                          12934 ; genLabel
   2D83                   12935 00120$:
                          12936 ;	ishallbequeen.c 1562
                          12937 ; genCall
   2D83 CD 44 29          12938 	call	_stopAllSounds
                          12939 ; genLabel
   2D86                   12940 00125$:
                          12941 ; genEndFunction
   2D86 E8 04             12942 	lda	sp,4(sp)
   2D88 C1                12943 	pop bc
   2D89 C9                12944 	ret
   2D8A                   12945 ___destroyEnemy_end:
                          12946 ;	ishallbequeen.c 1566
                          12947 ; genLabel
                          12948 ; genFunction
                          12949 ;	---------------------------------
                          12950 ; Function instantiatePowerUp
                          12951 ; ---------------------------------
   2D8A                   12952 ___instantiatePowerUp_start:
   2D8A                   12953 _instantiatePowerUp:
   2D8A C5                12954 	push	bc
                          12955 ;	ishallbequeen.c 1568
                          12956 ; genCmpGt
                          12957 ; AOP_HL for _powerUpY
   2D8B AF                12958 	xor	a,a
   2D8C 3E A0             12959 	ld	a,#0xA0
   2D8E 21 27 00          12960 	ld	hl,#_powerUpY + 0
   2D91 9E                12961 	sbc	a,(hl) ; 2
   2D92 D2 42 2E          12962 	jp	nc,00106$
                          12963 ;	ishallbequeen.c 1569
                          12964 ; genAssign
                          12965 ; AOP_HL for _powerUpNoise
   2D95 21 29 00          12966 	ld	hl,#_powerUpNoise + 0
   2D98 36 E6             12967 	ld	(hl),#0xE6
                          12968 ;	ishallbequeen.c 1570
                          12969 ; genAssign
                          12970 ; AOP_HL for _eHitIndex
   2D9A 21 8A 00          12971 	ld	hl,#_eHitIndex + 0
   2D9D 4E                12972 	ld	c,(hl)
                          12973 ; genPlus
   2D9E 3E AC             12974 	ld	a,#<_eX
   2DA0 81                12975 	add	a,c
   2DA1 5F                12976 	ld	e,a
   2DA2 3E 00             12977 	ld	a,#>_eX
   2DA4 CE 00             12978 	adc	a,#0x00
   2DA6 57                12979 	ld	d,a
                          12980 ; genPointerGet
   2DA7 1A                12981 	ld	a,(de)
   2DA8 4F                12982 	ld	c,a
                          12983 ; genPlus
                          12984 ; AOP_HL for _powerUpX
                          12985 ; genPlusIncr
   2DA9 79                12986 	ld	a,c
   2DAA C6 04             12987 	add	a,#0x04
   2DAC 21 26 00          12988 	ld	hl,#_powerUpX + 0
   2DAF 77                12989 	ld	(hl),a
                          12990 ;	ishallbequeen.c 1571
                          12991 ; genAssign
                          12992 ; AOP_HL for _eHitIndex
   2DB0 21 8A 00          12993 	ld	hl,#_eHitIndex + 0
   2DB3 4E                12994 	ld	c,(hl)
                          12995 ; genPlus
   2DB4 3E AF             12996 	ld	a,#<_eY
   2DB6 81                12997 	add	a,c
   2DB7 5F                12998 	ld	e,a
   2DB8 3E 00             12999 	ld	a,#>_eY
   2DBA CE 00             13000 	adc	a,#0x00
   2DBC 57                13001 	ld	d,a
                          13002 ; genPointerGet
   2DBD 1A                13003 	ld	a,(de)
   2DBE 4F                13004 	ld	c,a
                          13005 ; genPlus
                          13006 ; AOP_HL for _powerUpY
                          13007 ; genPlusIncr
   2DBF 79                13008 	ld	a,c
   2DC0 C6 08             13009 	add	a,#0x08
   2DC2 21 27 00          13010 	ld	hl,#_powerUpY + 0
   2DC5 77                13011 	ld	(hl),a
                          13012 ;	ishallbequeen.c 1572
                          13013 ; genIpush
   2DC6 3E 02             13014 	ld	a,#0x02
   2DC8 F5                13015 	push	af
   2DC9 33                13016 	inc	sp
                          13017 ; genIpush
                          13018 ; AOP_SFR for _DIV_REG
   2DCA F0 00             13019 	ldh	a,(_DIV_REG+0) ; x
                          13020 ; Removed redundent load
   2DCC F5                13021 	push	af
   2DCD 33                13022 	inc	sp
                          13023 ; genCall
   2DCE CD 00 00          13024 	call	__moduchar
                          13025 ; AOP_HL for _powerUpType
   2DD1 21 28 00          13026 	ld	hl,#_powerUpType + 0
   2DD4 73                13027 	ld	(hl),e
   2DD5 E8 02             13028 	lda	sp,2(sp)
                          13029 ;	ishallbequeen.c 1574
                          13030 ; genCmpEq
                          13031 ; AOP_HL for _powerUpType
   2DD7 7E                13032 	ld	a,(hl)
   2DD8 B7                13033 	or	a,a
   2DD9 C2 DE 2D          13034 	jp	nz,00110$
   2DDC 18 03             13035 	jr	00111$
   2DDE                   13036 00110$:
   2DDE C3 13 2E          13037 	jp	00102$
   2DE1                   13038 00111$:
                          13039 ;	ishallbequeen.c 1575
                          13040 ; genIpush
   2DE1 3E F5             13041 	ld	a,#0xF5
   2DE3 F5                13042 	push	af
   2DE4 33                13043 	inc	sp
                          13044 ; genIpush
   2DE5 3E 22             13045 	ld	a,#0x22
   2DE7 F5                13046 	push	af
   2DE8 33                13047 	inc	sp
                          13048 ; genCall
   2DE9 CD 00 00          13049 	call	_set_sprite_tile
   2DEC E8 02             13050 	lda	sp,2(sp)
                          13051 ;	ishallbequeen.c 1576
                          13052 ; genIpush
   2DEE 3E 06             13053 	ld	a,#0x06
   2DF0 F5                13054 	push	af
   2DF1 33                13055 	inc	sp
                          13056 ; genIpush
   2DF2 3E 22             13057 	ld	a,#0x22
   2DF4 F5                13058 	push	af
   2DF5 33                13059 	inc	sp
                          13060 ; genCall
   2DF6 CD 00 00          13061 	call	_set_sprite_prop
   2DF9 E8 02             13062 	lda	sp,2(sp)
                          13063 ;	ishallbequeen.c 1577
                          13064 ; genIpush
                          13065 ; AOP_HL for _powerUpY
   2DFB 21 27 00          13066 	ld	hl,#_powerUpY + 0
   2DFE 7E                13067 	ld	a,(hl)
   2DFF F5                13068 	push	af
   2E00 33                13069 	inc	sp
                          13070 ; genIpush
                          13071 ; AOP_HL for _powerUpX
   2E01 21 26 00          13072 	ld	hl,#_powerUpX + 0
   2E04 7E                13073 	ld	a,(hl)
   2E05 F5                13074 	push	af
   2E06 33                13075 	inc	sp
                          13076 ; genIpush
   2E07 3E 22             13077 	ld	a,#0x22
   2E09 F5                13078 	push	af
   2E0A 33                13079 	inc	sp
                          13080 ; genCall
   2E0B CD 00 00          13081 	call	_move_sprite
   2E0E E8 03             13082 	lda	sp,3(sp)
                          13083 ; genGoto
   2E10 C3 42 2E          13084 	jp	00106$
                          13085 ; genLabel
   2E13                   13086 00102$:
                          13087 ;	ishallbequeen.c 1579
                          13088 ; genIpush
   2E13 3E F6             13089 	ld	a,#0xF6
   2E15 F5                13090 	push	af
   2E16 33                13091 	inc	sp
                          13092 ; genIpush
   2E17 3E 22             13093 	ld	a,#0x22
   2E19 F5                13094 	push	af
   2E1A 33                13095 	inc	sp
                          13096 ; genCall
   2E1B CD 00 00          13097 	call	_set_sprite_tile
   2E1E E8 02             13098 	lda	sp,2(sp)
                          13099 ;	ishallbequeen.c 1580
                          13100 ; genIpush
   2E20 3E 07             13101 	ld	a,#0x07
   2E22 F5                13102 	push	af
   2E23 33                13103 	inc	sp
                          13104 ; genIpush
   2E24 3E 22             13105 	ld	a,#0x22
   2E26 F5                13106 	push	af
   2E27 33                13107 	inc	sp
                          13108 ; genCall
   2E28 CD 00 00          13109 	call	_set_sprite_prop
   2E2B E8 02             13110 	lda	sp,2(sp)
                          13111 ;	ishallbequeen.c 1581
                          13112 ; genIpush
                          13113 ; AOP_HL for _powerUpY
   2E2D 21 27 00          13114 	ld	hl,#_powerUpY + 0
   2E30 7E                13115 	ld	a,(hl)
   2E31 F5                13116 	push	af
   2E32 33                13117 	inc	sp
                          13118 ; genIpush
                          13119 ; AOP_HL for _powerUpX
   2E33 21 26 00          13120 	ld	hl,#_powerUpX + 0
   2E36 7E                13121 	ld	a,(hl)
   2E37 F5                13122 	push	af
   2E38 33                13123 	inc	sp
                          13124 ; genIpush
   2E39 3E 22             13125 	ld	a,#0x22
   2E3B F5                13126 	push	af
   2E3C 33                13127 	inc	sp
                          13128 ; genCall
   2E3D CD 00 00          13129 	call	_move_sprite
   2E40 E8 03             13130 	lda	sp,3(sp)
                          13131 ; genLabel
   2E42                   13132 00106$:
                          13133 ; genEndFunction
   2E42 C1                13134 	pop	bc
   2E43 C9                13135 	ret
   2E44                   13136 ___instantiatePowerUp_end:
                          13137 ;	ishallbequeen.c 1587
                          13138 ; genLabel
                          13139 ; genFunction
                          13140 ;	---------------------------------
                          13141 ; Function LaunchFireBall
                          13142 ; ---------------------------------
   2E44                   13143 ___LaunchFireBall_start:
   2E44                   13144 _LaunchFireBall:
   2E44 C5                13145 	push	bc
                          13146 ;	ishallbequeen.c 1589
                          13147 ; genAssign
                          13148 ; AOP_HL for _flipX
                          13149 ; AOP_HL for _fireBallDir
   2E45 21 8B 00          13150 	ld	hl,#_flipX + 0
   2E48 7E                13151 	ld	a,(hl)
   2E49 21 03 00          13152 	ld	hl,#_fireBallDir + 0
   2E4C 77                13153 	ld	(hl),a
                          13154 ;	ishallbequeen.c 1590
                          13155 ; genAssign
                          13156 ; AOP_HL for _fireBallLife
   2E4D 21 02 00          13157 	ld	hl,#_fireBallLife + 0
   2E50 36 40             13158 	ld	(hl),#0x40
                          13159 ;	ishallbequeen.c 1592
                          13160 ; genAssign
                          13161 ; AOP_HL for _playerFrame
   2E52 21 83 00          13162 	ld	hl,#_playerFrame + 0
   2E55 36 04             13163 	ld	(hl),#0x04
                          13164 ;	ishallbequeen.c 1593
                          13165 ; genCall
   2E57 CD 6D 1B          13166 	call	_updatePlayerFrame
                          13167 ;	ishallbequeen.c 1595
                          13168 ; genPlus
                          13169 ; AOP_HL for _pY
                          13170 ; AOP_HL for _fireBallY
                          13171 ; genPlusIncr
   2E5A 21 81 00          13172 	ld	hl,#_pY + 0
   2E5D 7E                13173 	ld	a,(hl)
   2E5E C6 10             13174 	add	a,#0x10
   2E60 21 01 00          13175 	ld	hl,#_fireBallY + 0
   2E63 77                13176 	ld	(hl),a
                          13177 ;	ishallbequeen.c 1597
                          13178 ; genCmpEq
                          13179 ; AOP_HL for _flipX
   2E64 21 8B 00          13180 	ld	hl,#_flipX + 0
   2E67 7E                13181 	ld	a,(hl)
   2E68 B7                13182 	or	a,a
                          13183 ; Rule 5
   2E69 CA 78 2E          13184 	jp	z,00101$
   2E6C                   13185 00108$:
                          13186 ; genCmpEq
                          13187 ; AOP_HL for _flipX
   2E6C 21 8B 00          13188 	ld	hl,#_flipX + 0
   2E6F 7E                13189 	ld	a,(hl) ; 2
   2E70 FE 01             13190 	cp	a,#0x01
                          13191 ; Rule 5
   2E72 CA 92 2E          13192 	jp	z,00102$
   2E75                   13193 00109$:
                          13194 ; genGoto
   2E75 C3 A9 2E          13195 	jp	00103$
                          13196 ;	ishallbequeen.c 1599
                          13197 ; genLabel
   2E78                   13198 00101$:
                          13199 ; genIpush
   2E78 3E 00             13200 	ld	a,#0x00
   2E7A F5                13201 	push	af
   2E7B 33                13202 	inc	sp
                          13203 ; genIpush
   2E7C 3E 21             13204 	ld	a,#0x21
   2E7E F5                13205 	push	af
   2E7F 33                13206 	inc	sp
                          13207 ; genCall
   2E80 CD 00 00          13208 	call	_set_sprite_prop
   2E83 E8 02             13209 	lda	sp,2(sp)
                          13210 ;	ishallbequeen.c 1600
                          13211 ; genPlus
                          13212 ; AOP_HL for _pX
                          13213 ; AOP_HL for _fireBallX
                          13214 ; genPlusIncr
   2E85 21 80 00          13215 	ld	hl,#_pX + 0
   2E88 7E                13216 	ld	a,(hl)
   2E89 C6 18             13217 	add	a,#0x18
   2E8B 21 00 00          13218 	ld	hl,#_fireBallX + 0
   2E8E 77                13219 	ld	(hl),a
                          13220 ;	ishallbequeen.c 1601
                          13221 ; genGoto
   2E8F C3 A9 2E          13222 	jp	00103$
                          13223 ;	ishallbequeen.c 1603
                          13224 ; genLabel
   2E92                   13225 00102$:
                          13226 ; genIpush
   2E92 3E 20             13227 	ld	a,#0x20
   2E94 F5                13228 	push	af
   2E95 33                13229 	inc	sp
                          13230 ; genIpush
   2E96 3E 21             13231 	ld	a,#0x21
   2E98 F5                13232 	push	af
   2E99 33                13233 	inc	sp
                          13234 ; genCall
   2E9A CD 00 00          13235 	call	_set_sprite_prop
   2E9D E8 02             13236 	lda	sp,2(sp)
                          13237 ;	ishallbequeen.c 1604
                          13238 ; genMinus
                          13239 ; AOP_HL for _pX
                          13240 ; AOP_HL for _fireBallX
   2E9F 21 80 00          13241 	ld	hl,#_pX + 0
   2EA2 7E                13242 	ld	a,(hl)
   2EA3 C6 F8             13243 	add	a,#0xF8
   2EA5 21 00 00          13244 	ld	hl,#_fireBallX + 0
   2EA8 77                13245 	ld	(hl),a
                          13246 ;	ishallbequeen.c 1606
                          13247 ; genLabel
   2EA9                   13248 00103$:
                          13249 ;	ishallbequeen.c 1608
                          13250 ; genIpush
                          13251 ; AOP_HL for _fireBallY
   2EA9 21 01 00          13252 	ld	hl,#_fireBallY + 0
   2EAC 7E                13253 	ld	a,(hl)
   2EAD F5                13254 	push	af
   2EAE 33                13255 	inc	sp
                          13256 ; genIpush
                          13257 ; AOP_HL for _fireBallX
   2EAF 21 00 00          13258 	ld	hl,#_fireBallX + 0
   2EB2 7E                13259 	ld	a,(hl)
   2EB3 F5                13260 	push	af
   2EB4 33                13261 	inc	sp
                          13262 ; genIpush
   2EB5 3E 21             13263 	ld	a,#0x21
   2EB7 F5                13264 	push	af
   2EB8 33                13265 	inc	sp
                          13266 ; genCall
   2EB9 CD 00 00          13267 	call	_move_sprite
   2EBC E8 03             13268 	lda	sp,3(sp)
                          13269 ;	ishallbequeen.c 1609
                          13270 ; genCall
   2EBE CD 00 00          13271 	call	_wait_vbl_done
                          13272 ;	ishallbequeen.c 1610
                          13273 ; genCall
   2EC1 CD 00 00          13274 	call	_wait_vbl_done
                          13275 ;	ishallbequeen.c 1611
                          13276 ; genAssign
                          13277 ; AOP_HL for _playerFrame
   2EC4 21 83 00          13278 	ld	hl,#_playerFrame + 0
   2EC7 36 00             13279 	ld	(hl),#0x00
                          13280 ; genLabel
   2EC9                   13281 00104$:
                          13282 ; genEndFunction
   2EC9 C1                13283 	pop	bc
   2ECA C9                13284 	ret
   2ECB                   13285 ___LaunchFireBall_end:
                          13286 ;	ishallbequeen.c 1620
                          13287 ; genLabel
                          13288 ; genFunction
                          13289 ;	---------------------------------
                          13290 ; Function initGame
                          13291 ; ---------------------------------
   2ECB                   13292 ___initGame_start:
   2ECB                   13293 _initGame:
   2ECB C5                13294 	push	bc
                          13295 ;	ishallbequeen.c 1621
                          13296 ; genAssign
                          13297 ; AOP_HL for _pX
   2ECC 21 80 00          13298 	ld	hl,#_pX + 0
   2ECF 36 40             13299 	ld	(hl),#0x40
                          13300 ;	ishallbequeen.c 1622
                          13301 ; genAssign
                          13302 ; AOP_HL for _pY
   2ED1 21 81 00          13303 	ld	hl,#_pY + 0
   2ED4 36 40             13304 	ld	(hl),#0x40
                          13305 ;	ishallbequeen.c 1623
                          13306 ; genAssign
                          13307 ; AOP_HL for _jumpTime
   2ED6 21 84 00          13308 	ld	hl,#_jumpTime + 0
   2ED9 36 00             13309 	ld	(hl),#0x00
                          13310 ;	ishallbequeen.c 1624
                          13311 ; genAssign
                          13312 ; AOP_HL for _superAttacks
   2EDB 21 09 00          13313 	ld	hl,#_superAttacks + 0
   2EDE 36 03             13314 	ld	(hl),#0x03
                          13315 ;	ishallbequeen.c 1625
                          13316 ; genAssign
                          13317 ; AOP_HL for _myDamage
   2EE0 21 85 00          13318 	ld	hl,#_myDamage + 0
   2EE3 36 09             13319 	ld	(hl),#0x09
                          13320 ;	ishallbequeen.c 1626
                          13321 ; genAssign
                          13322 ; AOP_HL for _attackDelay
   2EE5 21 23 00          13323 	ld	hl,#_attackDelay + 0
   2EE8 36 00             13324 	ld	(hl),#0x00
                          13325 ;	ishallbequeen.c 1628
                          13326 ; genAssign
                          13327 ; AOP_HL for _HP
   2EEA 21 88 00          13328 	ld	hl,#_HP + 0
   2EED 36 20             13329 	ld	(hl),#0x20
                          13330 ;	ishallbequeen.c 1629
                          13331 ; genAssign
                          13332 ; AOP_HL for _MP
   2EEF 21 89 00          13333 	ld	hl,#_MP + 0
   2EF2 36 10             13334 	ld	(hl),#0x10
                          13335 ;	ishallbequeen.c 1634
                          13336 ; genAssign
                          13337 ; AOP_HL for _fireBallLife
   2EF4 21 02 00          13338 	ld	hl,#_fireBallLife + 0
   2EF7 36 00             13339 	ld	(hl),#0x00
                          13340 ;	ishallbequeen.c 1635
                          13341 ; genAssign
                          13342 ; AOP_HL for _flipX
   2EF9 21 8B 00          13343 	ld	hl,#_flipX + 0
   2EFC 36 00             13344 	ld	(hl),#0x00
                          13345 ;	ishallbequeen.c 1636
                          13346 ; genAssign
                          13347 ; AOP_HL for _screenShake
   2EFE 21 20 00          13348 	ld	hl,#_screenShake + 0
   2F01 36 00             13349 	ld	(hl),#0x00
                          13350 ;	ishallbequeen.c 1637
                          13351 ; genAssign
                          13352 ; AOP_HL for _powerUpY
   2F03 21 27 00          13353 	ld	hl,#_powerUpY + 0
   2F06 36 B4             13354 	ld	(hl),#0xB4
                          13355 ;	ishallbequeen.c 1638
                          13356 ; genAssign
                          13357 ; AOP_HL for _powerUpNoise
   2F08 21 29 00          13358 	ld	hl,#_powerUpNoise + 0
   2F0B 36 FF             13359 	ld	(hl),#0xFF
                          13360 ;	ishallbequeen.c 1640
                          13361 ; genAssign
                          13362 ; AOP_HL for _pState
   2F0D 21 82 00          13363 	ld	hl,#_pState + 0
   2F10 36 00             13364 	ld	(hl),#0x00
                          13365 ;	ishallbequeen.c 1643
                          13366 ; genAssign
                          13367 ; AOP_HL for _playerFrame
   2F12 21 83 00          13368 	ld	hl,#_playerFrame + 0
   2F15 36 00             13369 	ld	(hl),#0x00
                          13370 ;	ishallbequeen.c 1644
                          13371 ; genCall
   2F17 CD AC 1B          13372 	call	_updatePlayer
                          13373 ;	ishallbequeen.c 1645
                          13374 ; genCall
   2F1A CD 6D 1B          13375 	call	_updatePlayerFrame
                          13376 ;	ishallbequeen.c 1646
                          13377 ; genIpush
                          13378 ; AOP_HL for _HP
   2F1D 21 88 00          13379 	ld	hl,#_HP + 0
   2F20 7E                13380 	ld	a,(hl)
   2F21 F5                13381 	push	af
   2F22 33                13382 	inc	sp
                          13383 ; genIpush
   2F23 3E 00             13384 	ld	a,#0x00
   2F25 F5                13385 	push	af
   2F26 33                13386 	inc	sp
                          13387 ; genCall
   2F27 CD 1C 0F          13388 	call	_updateBar
   2F2A E8 02             13389 	lda	sp,2(sp)
                          13390 ;	ishallbequeen.c 1648
                          13391 ; genIpush
                          13392 ; AOP_HL for _MP
   2F2C 21 89 00          13393 	ld	hl,#_MP + 0
   2F2F 7E                13394 	ld	a,(hl)
   2F30 F5                13395 	push	af
   2F31 33                13396 	inc	sp
                          13397 ; genIpush
   2F32 3E 01             13398 	ld	a,#0x01
   2F34 F5                13399 	push	af
   2F35 33                13400 	inc	sp
                          13401 ; genCall
   2F36 CD 1C 0F          13402 	call	_updateBar
   2F39 E8 02             13403 	lda	sp,2(sp)
                          13404 ;	ishallbequeen.c 1651
                          13405 ; genCmpEq
                          13406 ; AOP_HL for _scene
   2F3B 21 7D 00          13407 	ld	hl,#_scene + 0
   2F3E 7E                13408 	ld	a,(hl) ; 2
   2F3F FE 05             13409 	cp	a,#0x05
   2F41 C2 46 2F          13410 	jp	nz,00118$
   2F44 18 03             13411 	jr	00119$
   2F46                   13412 00118$:
   2F46 C3 53 2F          13413 	jp	00102$
   2F49                   13414 00119$:
                          13415 ;	ishallbequeen.c 1652
                          13416 ; genAssign
                          13417 ; AOP_HL for _level
   2F49 21 0A 00          13418 	ld	hl,#_level + 0
   2F4C 36 01             13419 	ld	(hl),#0x01
                          13420 ;	ishallbequeen.c 1654
                          13421 ; genAssign
                          13422 ; AOP_HL for _enemiesRemaining
   2F4E 21 A5 00          13423 	ld	hl,#_enemiesRemaining + 0
   2F51 36 17             13424 	ld	(hl),#0x17
                          13425 ; genLabel
   2F53                   13426 00102$:
                          13427 ;	ishallbequeen.c 1657
                          13428 ; genCmpEq
                          13429 ; AOP_HL for _scene
   2F53 21 7D 00          13430 	ld	hl,#_scene + 0
   2F56 7E                13431 	ld	a,(hl) ; 2
   2F57 FE 0F             13432 	cp	a,#0x0F
   2F59 C2 5E 2F          13433 	jp	nz,00120$
   2F5C 18 03             13434 	jr	00121$
   2F5E                   13435 00120$:
   2F5E C3 6B 2F          13436 	jp	00104$
   2F61                   13437 00121$:
                          13438 ;	ishallbequeen.c 1658
                          13439 ; genAssign
                          13440 ; AOP_HL for _level
   2F61 21 0A 00          13441 	ld	hl,#_level + 0
   2F64 36 03             13442 	ld	(hl),#0x03
                          13443 ;	ishallbequeen.c 1659
                          13444 ; genAssign
                          13445 ; AOP_HL for _enemiesRemaining
   2F66 21 A5 00          13446 	ld	hl,#_enemiesRemaining + 0
   2F69 36 2B             13447 	ld	(hl),#0x2B
                          13448 ; genLabel
   2F6B                   13449 00104$:
                          13450 ;	ishallbequeen.c 1662
                          13451 ; genCmpEq
                          13452 ; AOP_HL for _scene
   2F6B 21 7D 00          13453 	ld	hl,#_scene + 0
   2F6E 7E                13454 	ld	a,(hl) ; 2
   2F6F FE 19             13455 	cp	a,#0x19
   2F71 C2 76 2F          13456 	jp	nz,00122$
   2F74 18 03             13457 	jr	00123$
   2F76                   13458 00122$:
   2F76 C3 83 2F          13459 	jp	00106$
   2F79                   13460 00123$:
                          13461 ;	ishallbequeen.c 1663
                          13462 ; genAssign
                          13463 ; AOP_HL for _enemiesRemaining
   2F79 21 A5 00          13464 	ld	hl,#_enemiesRemaining + 0
   2F7C 36 3F             13465 	ld	(hl),#0x3F
                          13466 ;	ishallbequeen.c 1664
                          13467 ; genAssign
                          13468 ; AOP_HL for _level
   2F7E 21 0A 00          13469 	ld	hl,#_level + 0
   2F81 36 05             13470 	ld	(hl),#0x05
                          13471 ; genLabel
   2F83                   13472 00106$:
                          13473 ;	ishallbequeen.c 1667
                          13474 ; genIpush
   2F83 3E 01             13475 	ld	a,#0x01
   2F85 F5                13476 	push	af
   2F86 33                13477 	inc	sp
                          13478 ; genIpush
   2F87 3E 01             13479 	ld	a,#0x01
   2F89 F5                13480 	push	af
   2F8A 33                13481 	inc	sp
                          13482 ; genIpush
   2F8B 3E 0C             13483 	ld	a,#0x0C
   2F8D F5                13484 	push	af
   2F8E 33                13485 	inc	sp
                          13486 ; genIpush
                          13487 ; AOP_HL for _level
   2F8F 21 0A 00          13488 	ld	hl,#_level + 0
   2F92 7E                13489 	ld	a,(hl)
   2F93 F5                13490 	push	af
   2F94 33                13491 	inc	sp
                          13492 ; genCall
   2F95 CD EA 27          13493 	call	_showValue
   2F98 E8 04             13494 	lda	sp,4(sp)
                          13495 ;	ishallbequeen.c 1670
                          13496 ; genAssign
                          13497 ; AOP_HL for _eHitIndex
   2F9A 21 8A 00          13498 	ld	hl,#_eHitIndex + 0
   2F9D 36 00             13499 	ld	(hl),#0x00
                          13500 ; genLabel
   2F9F                   13501 00107$:
                          13502 ; genCmpEq
                          13503 ; AOP_HL for _eHitIndex
   2F9F 21 8A 00          13504 	ld	hl,#_eHitIndex + 0
   2FA2 7E                13505 	ld	a,(hl) ; 2
   2FA3 FE 03             13506 	cp	a,#0x03
                          13507 ; Rule 5
   2FA5 CA 03 30          13508 	jp	z,00110$
   2FA8                   13509 00124$:
                          13510 ;	ishallbequeen.c 1671
                          13511 ; genAssign
                          13512 ; AOP_HL for _eHitIndex
   2FA8 21 8A 00          13513 	ld	hl,#_eHitIndex + 0
   2FAB 4E                13514 	ld	c,(hl)
                          13515 ; genPlus
   2FAC 3E BB             13516 	ld	a,#<_eTime
   2FAE 81                13517 	add	a,c
   2FAF 5F                13518 	ld	e,a
   2FB0 3E 00             13519 	ld	a,#>_eTime
   2FB2 CE 00             13520 	adc	a,#0x00
   2FB4 57                13521 	ld	d,a
                          13522 ; genAssign (pointer)
   2FB5 3E 00             13523 	ld	a,#0x00
   2FB7 12                13524 	ld	(de),a
                          13525 ;	ishallbequeen.c 1672
                          13526 ; genAssign
                          13527 ; AOP_HL for _eHitIndex
   2FB8 4E                13528 	ld	c,(hl)
                          13529 ; genPlus
   2FB9 3E B2             13530 	ld	a,#<_eFrame
   2FBB 81                13531 	add	a,c
   2FBC 5F                13532 	ld	e,a
   2FBD 3E 00             13533 	ld	a,#>_eFrame
   2FBF CE 00             13534 	adc	a,#0x00
   2FC1 57                13535 	ld	d,a
                          13536 ; genAssign (pointer)
   2FC2 3E 00             13537 	ld	a,#0x00
   2FC4 12                13538 	ld	(de),a
                          13539 ;	ishallbequeen.c 1673
                          13540 ; genAssign
                          13541 ; AOP_HL for _eHitIndex
   2FC5 4E                13542 	ld	c,(hl)
                          13543 ; genPlus
   2FC6 3E B8             13544 	ld	a,#<_eHP
   2FC8 81                13545 	add	a,c
   2FC9 5F                13546 	ld	e,a
   2FCA 3E 00             13547 	ld	a,#>_eHP
   2FCC CE 00             13548 	adc	a,#0x00
   2FCE 57                13549 	ld	d,a
                          13550 ; genAssign (pointer)
   2FCF 3E 10             13551 	ld	a,#0x10
   2FD1 12                13552 	ld	(de),a
                          13553 ;	ishallbequeen.c 1674
                          13554 ; genAssign
                          13555 ; AOP_HL for _eHitIndex
   2FD2 4E                13556 	ld	c,(hl)
                          13557 ; genPlus
   2FD3 3E BE             13558 	ld	a,#<_eType
   2FD5 81                13559 	add	a,c
   2FD6 5F                13560 	ld	e,a
   2FD7 3E 00             13561 	ld	a,#>_eType
   2FD9 CE 00             13562 	adc	a,#0x00
   2FDB 57                13563 	ld	d,a
                          13564 ; genAssign (pointer)
   2FDC 3E C0             13565 	ld	a,#0xC0
   2FDE 12                13566 	ld	(de),a
                          13567 ;	ishallbequeen.c 1675
                          13568 ; genAssign
                          13569 ; AOP_HL for _eHitIndex
   2FDF 4E                13570 	ld	c,(hl)
                          13571 ; genPlus
   2FE0 3E C4             13572 	ld	a,#<_eRealType
   2FE2 81                13573 	add	a,c
   2FE3 5F                13574 	ld	e,a
   2FE4 3E 00             13575 	ld	a,#>_eRealType
   2FE6 CE 00             13576 	adc	a,#0x00
   2FE8 57                13577 	ld	d,a
                          13578 ; genAssign (pointer)
   2FE9 3E 01             13579 	ld	a,#0x01
   2FEB 12                13580 	ld	(de),a
                          13581 ;	ishallbequeen.c 1676
                          13582 ; genAssign
                          13583 ; AOP_HL for _eHitIndex
   2FEC 4E                13584 	ld	c,(hl)
                          13585 ; genPlus
   2FED 3E C1             13586 	ld	a,#<_eDamage
   2FEF 81                13587 	add	a,c
   2FF0 5F                13588 	ld	e,a
   2FF1 3E 00             13589 	ld	a,#>_eDamage
   2FF3 CE 00             13590 	adc	a,#0x00
   2FF5 57                13591 	ld	d,a
                          13592 ; genAssign (pointer)
   2FF6 3E 04             13593 	ld	a,#0x04
   2FF8 12                13594 	ld	(de),a
                          13595 ;	ishallbequeen.c 1677
                          13596 ; genCall
   2FF9 CD 77 29          13597 	call	_destroyEnemy
                          13598 ;	ishallbequeen.c 1670
                          13599 ; genPlus
                          13600 ; AOP_HL for _eHitIndex
                          13601 ; genPlusIncr
   2FFC 21 8A 00          13602 	ld	hl,#_eHitIndex + 0
   2FFF 34                13603 	inc	(hl)
                          13604 ; genGoto
   3000 C3 9F 2F          13605 	jp	00107$
                          13606 ; genLabel
   3003                   13607 00110$:
                          13608 ;	ishallbequeen.c 1680
                          13609 ; genIpush
   3003 3E 02             13610 	ld	a,#0x02
   3005 F5                13611 	push	af
   3006 33                13612 	inc	sp
                          13613 ; genIpush
   3007 3E 01             13614 	ld	a,#0x01
   3009 F5                13615 	push	af
   300A 33                13616 	inc	sp
                          13617 ; genIpush
   300B 3E 11             13618 	ld	a,#0x11
   300D F5                13619 	push	af
   300E 33                13620 	inc	sp
                          13621 ; genIpush
                          13622 ; AOP_HL for _enemiesRemaining
   300F 21 A5 00          13623 	ld	hl,#_enemiesRemaining + 0
   3012 7E                13624 	ld	a,(hl)
   3013 F5                13625 	push	af
   3014 33                13626 	inc	sp
                          13627 ; genCall
   3015 CD EA 27          13628 	call	_showValue
   3018 E8 04             13629 	lda	sp,4(sp)
                          13630 ;	ishallbequeen.c 1685
                          13631 ; genCall
   301A CD 44 29          13632 	call	_stopAllSounds
                          13633 ;	ishallbequeen.c 1687
                          13634 ; genOr
                          13635 ; AOP_SFR for _LCDC_REG
                          13636 ; Type res[4] = l[4]&r[1]
                          13637 ; Size res[1] = l[1]&r[1]
   301D F0 00             13638 	ldh	a,(_LCDC_REG+0) ; x
   301F F6 20             13639 	or	a,#0x20
   3021 E0 00             13640 	ldh	(_LCDC_REG+0),a
                          13641 ;	ishallbequeen.c 1688
                          13642 ; genOr
                          13643 ; AOP_SFR for _LCDC_REG
                          13644 ; Type res[4] = l[4]&r[1]
                          13645 ; Size res[1] = l[1]&r[1]
   3023 F0 00             13646 	ldh	a,(_LCDC_REG+0) ; x
   3025 F6 02             13647 	or	a,#0x02
   3027 E0 00             13648 	ldh	(_LCDC_REG+0),a
                          13649 ;	ishallbequeen.c 1689
                          13650 ; genOr
                          13651 ; AOP_SFR for _LCDC_REG
                          13652 ; Type res[4] = l[4]&r[1]
                          13653 ; Size res[1] = l[1]&r[1]
   3029 F0 00             13654 	ldh	a,(_LCDC_REG+0) ; x
   302B F6 01             13655 	or	a,#0x01
   302D E0 00             13656 	ldh	(_LCDC_REG+0),a
                          13657 ; genLabel
   302F                   13658 00111$:
                          13659 ; genEndFunction
   302F C1                13660 	pop	bc
   3030 C9                13661 	ret
   3031                   13662 ___initGame_end:
                          13663 	.area _CODE
   3031                   13664 _blackPalette:
   3031 00 00             13665 	.byte #0x00,#0x00
   3033 00 00             13666 	.byte #0x00,#0x00
   3035 00 00             13667 	.byte #0x00,#0x00
   3037 00 00             13668 	.byte #0x00,#0x00
   3039 00 00             13669 	.byte #0x00,#0x00
   303B 00 00             13670 	.byte #0x00,#0x00
   303D 00 00             13671 	.byte #0x00,#0x00
   303F 00 00             13672 	.byte #0x00,#0x00
   3041 00 00             13673 	.byte #0x00,#0x00
   3043 00 00             13674 	.byte #0x00,#0x00
   3045 00 00             13675 	.byte #0x00,#0x00
   3047 00 00             13676 	.byte #0x00,#0x00
   3049 00 00             13677 	.byte #0x00,#0x00
   304B 00 00             13678 	.byte #0x00,#0x00
   304D 00 00             13679 	.byte #0x00,#0x00
   304F 00 00             13680 	.byte #0x00,#0x00
   3051 00 00             13681 	.byte #0x00,#0x00
   3053 00 00             13682 	.byte #0x00,#0x00
   3055 00 00             13683 	.byte #0x00,#0x00
   3057 00 00             13684 	.byte #0x00,#0x00
   3059 00 00             13685 	.byte #0x00,#0x00
   305B 00 00             13686 	.byte #0x00,#0x00
   305D 00 00             13687 	.byte #0x00,#0x00
   305F 00 00             13688 	.byte #0x00,#0x00
   3061 00 00             13689 	.byte #0x00,#0x00
   3063 00 00             13690 	.byte #0x00,#0x00
   3065 00 00             13691 	.byte #0x00,#0x00
   3067 00 00             13692 	.byte #0x00,#0x00
   3069 00 00             13693 	.byte #0x00,#0x00
   306B 00 00             13694 	.byte #0x00,#0x00
   306D 00 00             13695 	.byte #0x00,#0x00
   306F 00 00             13696 	.byte #0x00,#0x00
   3071                   13697 _halfPalette:
   3071 1E 00             13698 	.byte #0x1E,#0x00
   3073 14 00             13699 	.byte #0x14,#0x00
   3075 0A 00             13700 	.byte #0x0A,#0x00
   3077 00 00             13701 	.byte #0x00,#0x00
   3079 1E 00             13702 	.byte #0x1E,#0x00
   307B 14 00             13703 	.byte #0x14,#0x00
   307D 0A 00             13704 	.byte #0x0A,#0x00
   307F 00 00             13705 	.byte #0x00,#0x00
   3081 1E 00             13706 	.byte #0x1E,#0x00
   3083 14 00             13707 	.byte #0x14,#0x00
   3085 0A 00             13708 	.byte #0x0A,#0x00
   3087 00 00             13709 	.byte #0x00,#0x00
   3089 1E 00             13710 	.byte #0x1E,#0x00
   308B 14 00             13711 	.byte #0x14,#0x00
   308D 0A 00             13712 	.byte #0x0A,#0x00
   308F 00 00             13713 	.byte #0x00,#0x00
   3091 1E 00             13714 	.byte #0x1E,#0x00
   3093 14 00             13715 	.byte #0x14,#0x00
   3095 0A 00             13716 	.byte #0x0A,#0x00
   3097 00 00             13717 	.byte #0x00,#0x00
   3099 1E 00             13718 	.byte #0x1E,#0x00
   309B 14 00             13719 	.byte #0x14,#0x00
   309D 0A 00             13720 	.byte #0x0A,#0x00
   309F 00 00             13721 	.byte #0x00,#0x00
   30A1 1E 00             13722 	.byte #0x1E,#0x00
   30A3 14 00             13723 	.byte #0x14,#0x00
   30A5 0A 00             13724 	.byte #0x0A,#0x00
   30A7 00 00             13725 	.byte #0x00,#0x00
   30A9 1E 00             13726 	.byte #0x1E,#0x00
   30AB 14 00             13727 	.byte #0x14,#0x00
   30AD 0A 00             13728 	.byte #0x0A,#0x00
   30AF 00 00             13729 	.byte #0x00,#0x00
ASxxxx Assembler V01.75  (GameBoy Z80-like CPU), page 1.

Symbol Table

    _BCPD_REG                          **** GX
    _BCPS_REG                          **** GX
    _BGP_REG                           **** GX
    _DIV_REG                           **** GX
    _DMA_REG                           **** GX
    _HDMA1_REG                         **** GX
    _HDMA2_REG                         **** GX
    _HDMA3_REG                         **** GX
    _HDMA4_REG                         **** GX
    _HDMA5_REG                         **** GX
  1 _HP                                0088 GR
    _IE_REG                            **** GX
    _IF_REG                            **** GX
    _KEY1_REG                          **** GX
    _LCDC_REG                          **** GX
    _LYC_REG                           **** GX
    _LY_REG                            **** GX
  0 _LaunchFireBall                    2E44 GR
  1 _MP                                0089 GR
    _NR10_REG                          **** GX
    _NR11_REG                          **** GX
    _NR12_REG                          **** GX
    _NR13_REG                          **** GX
    _NR14_REG                          **** GX
    _NR21_REG                          **** GX
    _NR22_REG                          **** GX
    _NR23_REG                          **** GX
    _NR24_REG                          **** GX
    _NR30_REG                          **** GX
    _NR31_REG                          **** GX
    _NR32_REG                          **** GX
    _NR33_REG                          **** GX
    _NR34_REG                          **** GX
    _NR41_REG                          **** GX
    _NR42_REG                          **** GX
    _NR43_REG                          **** GX
    _NR44_REG                          **** GX
    _NR50_REG                          **** GX
    _NR51_REG                          **** GX
    _NR52_REG                          **** GX
    _OBP0_REG                          **** GX
    _OBP1_REG                          **** GX
    _OCPD_REG                          **** GX
    _OCPS_REG                          **** GX
    _P1_REG                            **** GX
    _RP_REG                            **** GX
    _SB_REG                            **** GX
    _SCX_REG                           **** GX
    _SCY_REG                           **** GX
    _SC_REG                            **** GX
    _STAT_REG                          **** GX
    _SVBK_REG                          **** GX
    _TAC_REG                           **** GX
    _TIMA_REG                          **** GX
    _TMA_REG                           **** GX
    _VBK_REG                           **** GX
    _WX_REG                            **** GX
    _WY_REG                            **** GX
  0 ___LaunchFireBall_end              2ECB R
  0 ___LaunchFireBall_start            2E44 R
  0 ___checkCollisions_end             25AF R
  0 ___checkCollisions_start           2162 R
  0 ___collisionCheck_end              25EE R
  0 ___collisionCheck_start            25AF R
  0 ___destroyEnemy_end                2D8A R
  0 ___destroyEnemy_start              2977 R
  0 ___endGame_end                     2913 R
  0 ___endGame_start                   28DA R
  0 ___fadeInBkg_end                   2691 R
  0 ___fadeInBkg_start                 25EE R
  0 ___fadeInSprites_end               278C R
  0 ___fadeInSprites_start             2734 R
  0 ___fadeOutBkg_end                  2734 R
  0 ___fadeOutBkg_start                2691 R
  0 ___fadeOutSprites_end              27E4 R
  0 ___fadeOutSprites_start            278C R
  0 ___initGame_end                    3031 R
  0 ___initGame_start                  2ECB R
  0 ___instantiatePowerUp_end          2E44 R
  0 ___instantiatePowerUp_start        2D8A R
  0 ___main_end                        0F1C R
  0 ___main_start                      0000 R
  0 ___moveEnemySprites_end            1B16 R
  0 ___moveEnemySprites_start          1A21 R
  0 ___performStateChange_end          27E7 R
  0 ___performStateChange_start        27E4 R
  0 ___setProps_end                    1B6D R
  0 ___setProps_start                  1B16 R
  0 ___showValue_end                   28DA R
  0 ___showValue_start                 27EA R
  0 ___stopAllSounds_end               2977 R
  0 ___stopAllSounds_start             2944 R
  0 ___switchRomBanks_end              2944 R
  0 ___switchRomBanks_start            292C R
  0 ___updateBar_end                   0FD3 R
  0 ___updateBar_start                 0F1C R
  0 ___updateEnemies_end               1A21 R
  0 ___updateEnemies_start             0FD3 R
  0 ___updatePlayerFrame_end           1BAC R
  0 ___updatePlayerFrame_start         1B6D R
  0 ___updatePlayer_end                2162 R
  0 ___updatePlayer_start              1BAC R
  0 ___updateScore_end                 27EA R
  0 ___updateScore_start               27E7 R
  0 ___waitFrames_end                  292C R
  0 ___waitFrames_start                2913 R
    __cpu                              **** GX
    __divuchar                         **** GX
    __io_in                            **** GX
    __io_out                           **** GX
    __io_status                        **** GX
    __moduchar                         **** GX
    __muluchar                         **** GX
    _add_LCD                           **** GX
    _add_TIM                           **** GX
    _add_VBL                           **** GX
    _arand                             **** GX
  1 _attackDelay                       0023 GR
  1 _barArray                          008C GR
  0 _blackPalette                      3031 GR
    _cgb_compatibility                 **** GX
  0 _checkCollisions                   2162 GR
  0 _collisionCheck                    25AF GR
  1 _conversationID                    002D GR
  1 _conversationIndex                 002C GR
  1 _conversationTime                  002B GR
    _cpu_fast                          **** GX
    _cpu_slow                          **** GX
  1 _currentConversation               002E GR
  1 _debugValueArray                   0004 GR
    _delay                             **** GX
  0 _destroyEnemy                      2977 GR
    _disable_interrupts                **** GX
    _display_off                       **** GX
  1 _eDamage                           00C1 GR
  1 _eFrame                            00B2 GR
  1 _eHP                               00B8 GR
  1 _eHitIndex                         008A GR
  1 _eRealType                         00C4 GR
  1 _eState                            00B5 GR
  1 _eTargetX                          00A6 GR
  1 _eTargetY                          00A9 GR
  1 _eTime                             00BB GR
  1 _eType                             00BE GR
  1 _eX                                00AC GR
  1 _eY                                00AF GR
    _enable_interrupts                 **** GX
  0 _endGame                           28DA GR
  1 _enemiesRemaining                  00A5 GR
  0 _fadeInBkg                         25EE GR
  0 _fadeInSprites                     2734 GR
  0 _fadeOutBkg                        2691 GR
  0 _fadeOutSprites                    278C GR
  1 _fireBallDir                       0003 GR
  1 _fireBallLife                      0002 GR
  1 _fireBallX                         0000 GR
  1 _fireBallY                         0001 GR
  1 _flipX                             008B GR
  1 _frameCounter                      00A4 GR
  1 _fullRow                           0090 GR
    _get_bkg_tiles                     **** GX
    _get_data                          **** GX
    _get_mode                          **** GX
    _get_sprite_data                   **** GX
    _get_sprite_prop                   **** GX
    _get_sprite_tile                   **** GX
    _get_tiles                         **** GX
    _get_win_tiles                     **** GX
  1 _globalY                           001F GR
  1 _hMode                             0007 GR
  0 _halfPalette                       3071 GR
    _hiramcpy                          **** GX
  1 _i                                 000B GR
  1 _iFrames                           0087 GR
  1 _ii                                0013 GR
  1 _initBank                          007B GR
  0 _initGame                          2ECB GR
    _initarand                         **** GX
    _initrand                          **** GX
  0 _instantiatePowerUp                2D8A GR
  1 _isMoving                          007F GR
  1 _j                                 000C GR
  1 _jj                                0015 GR
    _joypad                            **** GX
  1 _jumpTime                          0084 GR
  1 _k                                 000D GR
  1 _kk                                0017 GR
  1 _l                                 000E GR
  1 _lastKeys                          001E GR
  1 _level                             000A GR
  1 _ll                                0019 GR
  1 _m                                 000F GR
  0 _main                              0000 GR
  1 _maxLevel                          0022 GR
  1 _menuX                             0024 GR
  1 _menuY                             0025 GR
    _mode                              **** GX
  1 _move                              007E GR
  0 _moveEnemySprites                  1A21 GR
    _move_bkg                          **** GX
    _move_sprite                       **** GX
    _move_win                          **** GX
  1 _myDamage                          0085 GR
  1 _myDelay                           001B GR
  1 _n                                 0010 GR
  1 _newBank                           007C GR
  1 _pState                            0082 GR
  1 _pX                                0080 GR
  1 _pY                                0081 GR
  1 _painNoise                         0008 GR
  0 _performStateChange                27E4 GR
  1 _playerFrame                       0083 GR
  1 _powerUpNoise                      0029 GR
  1 _powerUpType                       0028 GR
  1 _powerUpX                          0026 GR
  1 _powerUpY                          0027 GR
  1 _punchWindDown                     0086 GR
    _rand                              **** GX
    _randw                             **** GX
    _receive_byte                      **** GX
    _remove_JOY                        **** GX
    _remove_LCD                        **** GX
    _remove_SIO                        **** GX
    _remove_TIM                        **** GX
    _remove_VBL                        **** GX
    _reset                             **** GX
  1 _scene                             007D GR
  1 _screen                            001C GR
  1 _screenShake                       0020 GR
    _scroll_bkg                        **** GX
    _scroll_sprite                     **** GX
    _scroll_win                        **** GX
  1 _seed                              001D GR
    _send_byte                         **** GX
  0 _setProps                          1B16 GR
    _set_bkg_data                      **** GX
    _set_bkg_palette                   **** GX
    _set_bkg_palette_entry             **** GX
    _set_bkg_tiles                     **** GX
    _set_data                          **** GX
    _set_interrupts                    **** GX
    _set_sprite_data                   **** GX
    _set_sprite_palette                **** GX
    _set_sprite_palette_entry          **** GX
    _set_sprite_prop                   **** GX
    _set_sprite_tile                   **** GX
    _set_tiles                         **** GX
    _set_win_data                      **** GX
    _set_win_tiles                     **** GX
    _sgb_check                         **** GX
  1 _shadowY                           002A GR
  1 _shakeDir                          0021 GR
  0 _showValue                         27EA GR
  0 _stopAllSounds                     2944 GR
  1 _superAttacks                      0009 GR
  0 _switchRomBanks                    292C GR
    _sys_time                          **** GX
  1 _tempVal                           0011 GR
  0 _updateBar                         0F1C GR
  0 _updateEnemies                     0FD3 GR
    _updateGame                        **** GX
  0 _updatePlayer                      1BAC GR
  0 _updatePlayerFrame                 1B6D GR
  0 _updateScore                       27E7 GR
  0 _waitFrames                        2913 GR
    _wait_vbl_done                     **** GX
    _waitpad                           **** GX
    _waitpadup                         **** GX
  1 _walkNoise                         0006 GR
  1 _wn                                0012 GR

ASxxxx Assembler V01.75  (GameBoy Z80-like CPU), page 2.

Area Table

   0 _CODE                              size 30B1   flags 0
   1 _DATA                              size   C7   flags 0
   2 _OVERLAY                           size    0   flags 0
   3 _ISEG                              size    0   flags 0
   4 _BSEG                              size    0   flags 0
   5 _XSEG                              size    0   flags 0
   6 _GSINIT                            size   18   flags 0
   7 _GSFINAL                           size    0   flags 0
