                              1 ;--------------------------------------------------------
                              2 ; File Created by SDCC : FreeWare ANSI-C Compiler
                              3 ; Version 2.2.1 Mon Jul 04 15:23:05 2016
                              4 
                              5 ;--------------------------------------------------------
                              6 	.module lcc33840
                              7 	
                              8 ;--------------------------------------------------------
                              9 ; Public variables in this module
                             10 ;--------------------------------------------------------
                             11 	.globl _spritePalette
                             12 	.globl _bkgPalette
                             13 	.globl _introPalette
                             14 	.globl _titleScreenColours
                             15 	.globl _titleScreenTiles
                             16 	.globl _titleScreenTileData
                             17 	.globl _menuSprites
                             18 	.globl _refreshLogoMap
                             19 	.globl _preTitleScreen
                             20 	.globl _updateGame
                             21 	.globl _get_tiles
                             22 	.globl _set_tiles
                             23 	.globl _get_data
                             24 	.globl _set_data
                             25 	.globl _scroll_sprite
                             26 	.globl _move_sprite
                             27 	.globl _get_sprite_prop
                             28 	.globl _set_sprite_prop
                             29 	.globl _get_sprite_tile
                             30 	.globl _set_sprite_tile
                             31 	.globl _get_sprite_data
                             32 	.globl _set_sprite_data
                             33 	.globl _scroll_win
                             34 	.globl _move_win
                             35 	.globl _get_win_tiles
                             36 	.globl _set_win_tiles
                             37 	.globl _set_win_data
                             38 	.globl _scroll_bkg
                             39 	.globl _move_bkg
                             40 	.globl _get_bkg_tiles
                             41 	.globl _set_bkg_tiles
                             42 	.globl _set_bkg_data
                             43 	.globl _hiramcpy
                             44 	.globl _display_off
                             45 	.globl _wait_vbl_done
                             46 	.globl _reset
                             47 	.globl _set_interrupts
                             48 	.globl _disable_interrupts
                             49 	.globl _enable_interrupts
                             50 	.globl _waitpadup
                             51 	.globl _waitpad
                             52 	.globl _joypad
                             53 	.globl _delay
                             54 	.globl _receive_byte
                             55 	.globl _send_byte
                             56 	.globl _get_mode
                             57 	.globl _mode
                             58 	.globl _add_TIM
                             59 	.globl _add_LCD
                             60 	.globl _add_VBL
                             61 	.globl _remove_JOY
                             62 	.globl _remove_SIO
                             63 	.globl _remove_TIM
                             64 	.globl _remove_LCD
                             65 	.globl _remove_VBL
                             66 	.globl _cgb_compatibility
                             67 	.globl _cpu_fast
                             68 	.globl _cpu_slow
                             69 	.globl _set_sprite_palette_entry
                             70 	.globl _set_bkg_palette_entry
                             71 	.globl _set_sprite_palette
                             72 	.globl _set_bkg_palette
                             73 	.globl _sgb_check
                             74 	.globl _strncpy
                             75 	.globl _strncmp
                             76 	.globl _strncat
                             77 	.globl _strlen
                             78 	.globl _strcat
                             79 	.globl _reverse
                             80 	.globl _memcpy
                             81 	.globl _strcmp
                             82 	.globl _strcpy
                             83 ;--------------------------------------------------------
                             84 ; Externals used
                             85 ;--------------------------------------------------------
                             86 	.globl _switchRomBanks
                             87 	.globl _stopAllSounds
                             88 	.globl _fadeOutBkg
                             89 	.globl _fadeOutSprites
                             90 	.globl _fadeInBkg
                             91 	.globl _fadeInSprites
                             92 	.globl _IE_REG
                             93 	.globl _SVBK_REG
                             94 	.globl _OCPD_REG
                             95 	.globl _OCPS_REG
                             96 	.globl _BCPD_REG
                             97 	.globl _BCPS_REG
                             98 	.globl _RP_REG
                             99 	.globl _HDMA5_REG
                            100 	.globl _HDMA4_REG
                            101 	.globl _HDMA3_REG
                            102 	.globl _HDMA2_REG
                            103 	.globl _HDMA1_REG
                            104 	.globl _VBK_REG
                            105 	.globl _KEY1_REG
                            106 	.globl _WX_REG
                            107 	.globl _WY_REG
                            108 	.globl _OBP1_REG
                            109 	.globl _OBP0_REG
                            110 	.globl _BGP_REG
                            111 	.globl _DMA_REG
                            112 	.globl _LYC_REG
                            113 	.globl _LY_REG
                            114 	.globl _SCX_REG
                            115 	.globl _SCY_REG
                            116 	.globl _STAT_REG
                            117 	.globl _LCDC_REG
                            118 	.globl _NR52_REG
                            119 	.globl _NR51_REG
                            120 	.globl _NR50_REG
                            121 	.globl _NR44_REG
                            122 	.globl _NR43_REG
                            123 	.globl _NR42_REG
                            124 	.globl _NR41_REG
                            125 	.globl _NR34_REG
                            126 	.globl _NR33_REG
                            127 	.globl _NR32_REG
                            128 	.globl _NR31_REG
                            129 	.globl _NR30_REG
                            130 	.globl _NR24_REG
                            131 	.globl _NR23_REG
                            132 	.globl _NR22_REG
                            133 	.globl _NR21_REG
                            134 	.globl _NR14_REG
                            135 	.globl _NR13_REG
                            136 	.globl _NR12_REG
                            137 	.globl _NR11_REG
                            138 	.globl _NR10_REG
                            139 	.globl _IF_REG
                            140 	.globl _TAC_REG
                            141 	.globl _TMA_REG
                            142 	.globl _TIMA_REG
                            143 	.globl _DIV_REG
                            144 	.globl _SC_REG
                            145 	.globl _SB_REG
                            146 	.globl _P1_REG
                            147 	.globl _fullRow
                            148 	.globl _level
                            149 	.globl _maxLevel
                            150 	.globl _menuY
                            151 	.globl _menuX
                            152 	.globl _pY
                            153 	.globl _pX
                            154 	.globl _scene
                            155 	.globl _initBank
                            156 	.globl _newBank
                            157 	.globl _lastKeys
                            158 	.globl _ll
                            159 	.globl _kk
                            160 	.globl _jj
                            161 	.globl _ii
                            162 	.globl _m
                            163 	.globl _l
                            164 	.globl _k
                            165 	.globl _j
                            166 	.globl _i
                            167 	.globl _hMode
                            168 	.globl __io_out
                            169 	.globl __io_in
                            170 	.globl __io_status
                            171 	.globl _sys_time
                            172 	.globl __cpu
                            173 ;--------------------------------------------------------
                            174 ; special function registers
                            175 ;--------------------------------------------------------
                            176 ;--------------------------------------------------------
                            177 ; special function bits 
                            178 ;--------------------------------------------------------
                            179 ;--------------------------------------------------------
                            180 ; internal ram data
                            181 ;--------------------------------------------------------
                            182 	.area _DATA_1
                            183 ;--------------------------------------------------------
                            184 ; overlayable items in internal ram 
                            185 ;--------------------------------------------------------
                            186 	.area _OVERLAY
                            187 ;--------------------------------------------------------
                            188 ; indirectly addressable internal ram data
                            189 ;--------------------------------------------------------
                            190 	.area _ISEG
                            191 ;--------------------------------------------------------
                            192 ; bit data
                            193 ;--------------------------------------------------------
                            194 	.area _BSEG
                            195 ;--------------------------------------------------------
                            196 ; external ram data
                            197 ;--------------------------------------------------------
                            198 	.area _XSEG
                            199 ;--------------------------------------------------------
                            200 ; global & static initialisations
                            201 ;--------------------------------------------------------
                            202 	.area _GSINIT
                            203 	.area _GSFINAL
                            204 	.area _GSINIT
                            205 ;--------------------------------------------------------
                            206 ; code
                            207 ;--------------------------------------------------------
                            208 	.area _CODE_1
                            209 ;	rombank1.c 90
                            210 ; genLabel
                            211 ; genFunction
                            212 ;	---------------------------------
                            213 ; Function updateGame
                            214 ; ---------------------------------
   0000                     215 ___updateGame_start:
   0000                     216 _updateGame:
   0000 C5                  217 	push	bc
   0001 E8 FF               218 	lda sp,-1(sp)
                            219 ;	rombank1.c 93
                            220 ; genCmpEq
                            221 ; AOP_HL for _initBank
   0003 21 00 00            222 	ld	hl,#_initBank + 0
   0006 7E                  223 	ld	a,(hl) ; 2
   0007 FE 01               224 	cp	a,#0x01
   0009 C2 0E 00            225 	jp	nz,00330$
   000C 18 03               226 	jr	00331$
   000E                     227 00330$:
   000E C3 75 04            228 	jp	00195$
   0011                     229 00331$:
                            230 ;	rombank1.c 95
                            231 ; genAssign
                            232 ; AOP_HL for _i
   0011 21 00 00            233 	ld	hl,#_i + 0
   0014 36 00               234 	ld	(hl),#0x00
                            235 ; genLabel
   0016                     236 00197$:
                            237 ; genCmpEq
                            238 ; AOP_HL for _i
   0016 21 00 00            239 	ld	hl,#_i + 0
   0019 7E                  240 	ld	a,(hl) ; 2
   001A FE 28               241 	cp	a,#0x28
                            242 ; Rule 5
   001C CA 39 00            243 	jp	z,00200$
   001F                     244 00332$:
                            245 ;	rombank1.c 96
                            246 ; genIpush
   001F 3E 00               247 	ld	a,#0x00
   0021 F5                  248 	push	af
   0022 33                  249 	inc	sp
                            250 ; genIpush
   0023 3E 00               251 	ld	a,#0x00
   0025 F5                  252 	push	af
   0026 33                  253 	inc	sp
                            254 ; genIpush
                            255 ; AOP_HL for _i
   0027 21 00 00            256 	ld	hl,#_i + 0
   002A 7E                  257 	ld	a,(hl)
   002B F5                  258 	push	af
   002C 33                  259 	inc	sp
                            260 ; genCall
   002D CD 00 00            261 	call	_move_sprite
   0030 E8 03               262 	lda	sp,3(sp)
                            263 ;	rombank1.c 95
                            264 ; genPlus
                            265 ; AOP_HL for _i
                            266 ; genPlusIncr
   0032 21 00 00            267 	ld	hl,#_i + 0
   0035 34                  268 	inc	(hl)
                            269 ; genGoto
   0036 C3 16 00            270 	jp	00197$
                            271 ; genLabel
   0039                     272 00200$:
                            273 ;	rombank1.c 99
                            274 ; genCmpEq
                            275 ; AOP_HL for _scene
   0039 21 00 00            276 	ld	hl,#_scene + 0
   003C 7E                  277 	ld	a,(hl)
   003D B7                  278 	or	a,a
                            279 ; Rule 5
   003E CA 4D 00            280 	jp	z,00101$
   0041                     281 00333$:
                            282 ; genCmpEq
                            283 ; AOP_HL for _scene
   0041 21 00 00            284 	ld	hl,#_scene + 0
   0044 7E                  285 	ld	a,(hl) ; 2
   0045 FE 01               286 	cp	a,#0x01
                            287 ; Rule 5
   0047 CA D1 02            288 	jp	z,00106$
   004A                     289 00334$:
                            290 ; genGoto
   004A C3 68 04            291 	jp	00111$
                            292 ;	rombank1.c 101
                            293 ; genLabel
   004D                     294 00101$:
                            295 ; genOr
                            296 ; AOP_SFR for _LCDC_REG
                            297 ; Type res[4] = l[4]&r[1]
                            298 ; Size res[1] = l[1]&r[1]
   004D F0 00               299 	ldh	a,(_LCDC_REG+0) ; x
   004F F6 01               300 	or	a,#0x01
   0051 E0 00               301 	ldh	(_LCDC_REG+0),a
                            302 ;	rombank1.c 102
                            303 ; genAnd
                            304 ; AOP_SFR for _LCDC_REG
   0053 F0 00               305 	ldh	a,(_LCDC_REG+0) ; x
   0055 E6 FD               306 	and	a,#0xFD
   0057 E0 00               307 	ldh	(_LCDC_REG+0),a
                            308 ;	rombank1.c 103
                            309 ; genAnd
                            310 ; AOP_SFR for _LCDC_REG
   0059 F0 00               311 	ldh	a,(_LCDC_REG+0) ; x
   005B E6 DF               312 	and	a,#0xDF
   005D E0 00               313 	ldh	(_LCDC_REG+0),a
                            314 ;	rombank1.c 104
                            315 ; genCall
   005F CD 00 00            316 	call	_enable_interrupts
                            317 ;	rombank1.c 108
                            318 ; genCmpEq
                            319 ; AOP_HL for __cpu
   0062 21 00 00            320 	ld	hl,#__cpu + 0
   0065 7E                  321 	ld	a,(hl) ; 2
   0066 FE 11               322 	cp	a,#0x11
   0068 C2 6F 00            323 	jp	nz,00335$
   006B 3E 01               324 	ld	a,#0x01
   006D 18 01               325 	jr	00336$
   006F                     326 00335$:
   006F AF                  327 	xor	a,a
   0070                     328 00336$:
   0070 4F                  329 	ld	c,a
                            330 ; genIfx
                            331 ; Removed redundent or a,a
   0071 AF                  332 	xor	a,a
   0072 B1                  333 	or	a,c
   0073 CA 3A 02            334 	jp	z,00103$
                            335 ;	rombank1.c 109
                            336 ; genAssign
                            337 ; AOP_SFR for _VBK_REG
   0076 3E 01               338 	ld	a,#0x01
   0078 E0 00               339 	ldh	(_VBK_REG+0),a
                            340 ;	rombank1.c 111
                            341 ; genIpush
   007A 21 D6 22            342 	ld	hl,#_spritePalette + 0
   007D E5                  343 	push	hl
                            344 ; genIpush
   007E 3E 02               345 	ld	a,#0x02
   0080 F5                  346 	push	af
   0081 33                  347 	inc	sp
                            348 ; genIpush
   0082 3E 00               349 	ld	a,#0x00
   0084 F5                  350 	push	af
   0085 33                  351 	inc	sp
                            352 ; genCall
   0086 CD 00 00            353 	call	_set_sprite_palette
   0089 E8 04               354 	lda	sp,4(sp)
                            355 ;	rombank1.c 112
                            356 ; genIpush
   008B 21 6E 22            357 	ld	hl,#_introPalette + 0
   008E E5                  358 	push	hl
                            359 ; genIpush
   008F 3E 05               360 	ld	a,#0x05
   0091 F5                  361 	push	af
   0092 33                  362 	inc	sp
                            363 ; genIpush
   0093 3E 00               364 	ld	a,#0x00
   0095 F5                  365 	push	af
   0096 33                  366 	inc	sp
                            367 ; genCall
   0097 CD 00 00            368 	call	_set_bkg_palette
   009A E8 04               369 	lda	sp,4(sp)
                            370 ;	rombank1.c 114
                            371 ; genAssign
                            372 ; AOP_HL for _i
   009C 21 00 00            373 	ld	hl,#_i + 0
   009F 36 00               374 	ld	(hl),#0x00
                            375 ; genLabel
   00A1                     376 00201$:
                            377 ; genCmpEq
                            378 ; AOP_HL for _i
   00A1 21 00 00            379 	ld	hl,#_i + 0
   00A4 7E                  380 	ld	a,(hl) ; 2
   00A5 FE 14               381 	cp	a,#0x14
                            382 ; Rule 5
   00A7 CA BE 00            383 	jp	z,00204$
   00AA                     384 00337$:
                            385 ;	rombank1.c 115
                            386 ; genAssign
                            387 ; AOP_HL for _i
   00AA 21 00 00            388 	ld	hl,#_i + 0
   00AD 46                  389 	ld	b,(hl)
                            390 ; genPlus
   00AE 3E 00               391 	ld	a,#<_fullRow
   00B0 80                  392 	add	a,b
   00B1 5F                  393 	ld	e,a
   00B2 3E 00               394 	ld	a,#>_fullRow
   00B4 CE 00               395 	adc	a,#0x00
   00B6 57                  396 	ld	d,a
                            397 ; genAssign (pointer)
   00B7 3E 00               398 	ld	a,#0x00
   00B9 12                  399 	ld	(de),a
                            400 ;	rombank1.c 114
                            401 ; genPlus
                            402 ; AOP_HL for _i
                            403 ; genPlusIncr
   00BA 34                  404 	inc	(hl)
                            405 ; genGoto
   00BB C3 A1 00            406 	jp	00201$
                            407 ; genLabel
   00BE                     408 00204$:
                            409 ;	rombank1.c 118
                            410 ; genAssign
                            411 ; AOP_HL for _i
   00BE 21 00 00            412 	ld	hl,#_i + 0
   00C1 36 00               413 	ld	(hl),#0x00
                            414 ; genLabel
   00C3                     415 00205$:
                            416 ; genCmpEq
                            417 ; AOP_HL for _i
   00C3 21 00 00            418 	ld	hl,#_i + 0
   00C6 7E                  419 	ld	a,(hl) ; 2
   00C7 FE 08               420 	cp	a,#0x08
                            421 ; Rule 5
   00C9 CA EE 00            422 	jp	z,00208$
   00CC                     423 00338$:
                            424 ;	rombank1.c 119
                            425 ; genIpush
   00CC 21 00 00            426 	ld	hl,#_fullRow + 0
   00CF E5                  427 	push	hl
                            428 ; genIpush
   00D0 3E 01               429 	ld	a,#0x01
   00D2 F5                  430 	push	af
   00D3 33                  431 	inc	sp
                            432 ; genIpush
   00D4 3E 14               433 	ld	a,#0x14
   00D6 F5                  434 	push	af
   00D7 33                  435 	inc	sp
                            436 ; genIpush
                            437 ; AOP_HL for _i
   00D8 21 00 00            438 	ld	hl,#_i + 0
   00DB 7E                  439 	ld	a,(hl)
   00DC F5                  440 	push	af
   00DD 33                  441 	inc	sp
                            442 ; genIpush
   00DE 3E 00               443 	ld	a,#0x00
   00E0 F5                  444 	push	af
   00E1 33                  445 	inc	sp
                            446 ; genCall
   00E2 CD 00 00            447 	call	_set_bkg_tiles
   00E5 E8 06               448 	lda	sp,6(sp)
                            449 ;	rombank1.c 118
                            450 ; genPlus
                            451 ; AOP_HL for _i
                            452 ; genPlusIncr
   00E7 21 00 00            453 	ld	hl,#_i + 0
   00EA 34                  454 	inc	(hl)
                            455 ; genGoto
   00EB C3 C3 00            456 	jp	00205$
                            457 ; genLabel
   00EE                     458 00208$:
                            459 ;	rombank1.c 122
                            460 ; genAssign
                            461 ; AOP_HL for _i
   00EE 21 00 00            462 	ld	hl,#_i + 0
   00F1 36 00               463 	ld	(hl),#0x00
                            464 ; genLabel
   00F3                     465 00209$:
                            466 ; genCmpEq
                            467 ; AOP_HL for _i
   00F3 21 00 00            468 	ld	hl,#_i + 0
   00F6 7E                  469 	ld	a,(hl) ; 2
   00F7 FE 14               470 	cp	a,#0x14
                            471 ; Rule 5
   00F9 CA 10 01            472 	jp	z,00212$
   00FC                     473 00339$:
                            474 ;	rombank1.c 123
                            475 ; genAssign
                            476 ; AOP_HL for _i
   00FC 21 00 00            477 	ld	hl,#_i + 0
   00FF 46                  478 	ld	b,(hl)
                            479 ; genPlus
   0100 3E 00               480 	ld	a,#<_fullRow
   0102 80                  481 	add	a,b
   0103 5F                  482 	ld	e,a
   0104 3E 00               483 	ld	a,#>_fullRow
   0106 CE 00               484 	adc	a,#0x00
   0108 57                  485 	ld	d,a
                            486 ; genAssign (pointer)
   0109 3E 01               487 	ld	a,#0x01
   010B 12                  488 	ld	(de),a
                            489 ;	rombank1.c 122
                            490 ; genPlus
                            491 ; AOP_HL for _i
                            492 ; genPlusIncr
   010C 34                  493 	inc	(hl)
                            494 ; genGoto
   010D C3 F3 00            495 	jp	00209$
                            496 ; genLabel
   0110                     497 00212$:
                            498 ;	rombank1.c 126
                            499 ; genAssign
                            500 ; AOP_HL for _i
   0110 21 00 00            501 	ld	hl,#_i + 0
   0113 36 08               502 	ld	(hl),#0x08
                            503 ; genLabel
   0115                     504 00213$:
                            505 ; genCmpEq
                            506 ; AOP_HL for _i
   0115 21 00 00            507 	ld	hl,#_i + 0
   0118 7E                  508 	ld	a,(hl) ; 2
   0119 FE 10               509 	cp	a,#0x10
                            510 ; Rule 5
   011B CA 40 01            511 	jp	z,00216$
   011E                     512 00340$:
                            513 ;	rombank1.c 127
                            514 ; genIpush
   011E 21 00 00            515 	ld	hl,#_fullRow + 0
   0121 E5                  516 	push	hl
                            517 ; genIpush
   0122 3E 01               518 	ld	a,#0x01
   0124 F5                  519 	push	af
   0125 33                  520 	inc	sp
                            521 ; genIpush
   0126 3E 14               522 	ld	a,#0x14
   0128 F5                  523 	push	af
   0129 33                  524 	inc	sp
                            525 ; genIpush
                            526 ; AOP_HL for _i
   012A 21 00 00            527 	ld	hl,#_i + 0
   012D 7E                  528 	ld	a,(hl)
   012E F5                  529 	push	af
   012F 33                  530 	inc	sp
                            531 ; genIpush
   0130 3E 00               532 	ld	a,#0x00
   0132 F5                  533 	push	af
   0133 33                  534 	inc	sp
                            535 ; genCall
   0134 CD 00 00            536 	call	_set_bkg_tiles
   0137 E8 06               537 	lda	sp,6(sp)
                            538 ;	rombank1.c 126
                            539 ; genPlus
                            540 ; AOP_HL for _i
                            541 ; genPlusIncr
   0139 21 00 00            542 	ld	hl,#_i + 0
   013C 34                  543 	inc	(hl)
                            544 ; genGoto
   013D C3 15 01            545 	jp	00213$
                            546 ; genLabel
   0140                     547 00216$:
                            548 ;	rombank1.c 130
                            549 ; genAssign
                            550 ; AOP_HL for _i
   0140 21 00 00            551 	ld	hl,#_i + 0
   0143 36 00               552 	ld	(hl),#0x00
                            553 ; genLabel
   0145                     554 00217$:
                            555 ; genCmpEq
                            556 ; AOP_HL for _i
   0145 21 00 00            557 	ld	hl,#_i + 0
   0148 7E                  558 	ld	a,(hl) ; 2
   0149 FE 14               559 	cp	a,#0x14
                            560 ; Rule 5
   014B CA 62 01            561 	jp	z,00220$
   014E                     562 00341$:
                            563 ;	rombank1.c 131
                            564 ; genAssign
                            565 ; AOP_HL for _i
   014E 21 00 00            566 	ld	hl,#_i + 0
   0151 46                  567 	ld	b,(hl)
                            568 ; genPlus
   0152 3E 00               569 	ld	a,#<_fullRow
   0154 80                  570 	add	a,b
   0155 5F                  571 	ld	e,a
   0156 3E 00               572 	ld	a,#>_fullRow
   0158 CE 00               573 	adc	a,#0x00
   015A 57                  574 	ld	d,a
                            575 ; genAssign (pointer)
   015B 3E 02               576 	ld	a,#0x02
   015D 12                  577 	ld	(de),a
                            578 ;	rombank1.c 130
                            579 ; genPlus
                            580 ; AOP_HL for _i
                            581 ; genPlusIncr
   015E 34                  582 	inc	(hl)
                            583 ; genGoto
   015F C3 45 01            584 	jp	00217$
                            585 ; genLabel
   0162                     586 00220$:
                            587 ;	rombank1.c 134
                            588 ; genAssign
                            589 ; AOP_HL for _i
   0162 21 00 00            590 	ld	hl,#_i + 0
   0165 36 10               591 	ld	(hl),#0x10
                            592 ; genLabel
   0167                     593 00221$:
                            594 ; genCmpEq
                            595 ; AOP_HL for _i
   0167 21 00 00            596 	ld	hl,#_i + 0
   016A 7E                  597 	ld	a,(hl) ; 2
   016B FE 18               598 	cp	a,#0x18
                            599 ; Rule 5
   016D CA 92 01            600 	jp	z,00224$
   0170                     601 00342$:
                            602 ;	rombank1.c 135
                            603 ; genIpush
   0170 21 00 00            604 	ld	hl,#_fullRow + 0
   0173 E5                  605 	push	hl
                            606 ; genIpush
   0174 3E 01               607 	ld	a,#0x01
   0176 F5                  608 	push	af
   0177 33                  609 	inc	sp
                            610 ; genIpush
   0178 3E 14               611 	ld	a,#0x14
   017A F5                  612 	push	af
   017B 33                  613 	inc	sp
                            614 ; genIpush
                            615 ; AOP_HL for _i
   017C 21 00 00            616 	ld	hl,#_i + 0
   017F 7E                  617 	ld	a,(hl)
   0180 F5                  618 	push	af
   0181 33                  619 	inc	sp
                            620 ; genIpush
   0182 3E 00               621 	ld	a,#0x00
   0184 F5                  622 	push	af
   0185 33                  623 	inc	sp
                            624 ; genCall
   0186 CD 00 00            625 	call	_set_bkg_tiles
   0189 E8 06               626 	lda	sp,6(sp)
                            627 ;	rombank1.c 134
                            628 ; genPlus
                            629 ; AOP_HL for _i
                            630 ; genPlusIncr
   018B 21 00 00            631 	ld	hl,#_i + 0
   018E 34                  632 	inc	(hl)
                            633 ; genGoto
   018F C3 67 01            634 	jp	00221$
                            635 ; genLabel
   0192                     636 00224$:
                            637 ;	rombank1.c 138
                            638 ; genAssign
                            639 ; AOP_HL for _i
   0192 21 00 00            640 	ld	hl,#_i + 0
   0195 36 00               641 	ld	(hl),#0x00
                            642 ; genLabel
   0197                     643 00225$:
                            644 ; genCmpEq
                            645 ; AOP_HL for _i
   0197 21 00 00            646 	ld	hl,#_i + 0
   019A 7E                  647 	ld	a,(hl) ; 2
   019B FE 14               648 	cp	a,#0x14
                            649 ; Rule 5
   019D CA B4 01            650 	jp	z,00228$
   01A0                     651 00343$:
                            652 ;	rombank1.c 139
                            653 ; genAssign
                            654 ; AOP_HL for _i
   01A0 21 00 00            655 	ld	hl,#_i + 0
   01A3 46                  656 	ld	b,(hl)
                            657 ; genPlus
   01A4 3E 00               658 	ld	a,#<_fullRow
   01A6 80                  659 	add	a,b
   01A7 5F                  660 	ld	e,a
   01A8 3E 00               661 	ld	a,#>_fullRow
   01AA CE 00               662 	adc	a,#0x00
   01AC 57                  663 	ld	d,a
                            664 ; genAssign (pointer)
   01AD 3E 03               665 	ld	a,#0x03
   01AF 12                  666 	ld	(de),a
                            667 ;	rombank1.c 138
                            668 ; genPlus
                            669 ; AOP_HL for _i
                            670 ; genPlusIncr
   01B0 34                  671 	inc	(hl)
                            672 ; genGoto
   01B1 C3 97 01            673 	jp	00225$
                            674 ; genLabel
   01B4                     675 00228$:
                            676 ;	rombank1.c 142
                            677 ; genAssign
                            678 ; AOP_HL for _i
   01B4 21 00 00            679 	ld	hl,#_i + 0
   01B7 36 18               680 	ld	(hl),#0x18
                            681 ; genLabel
   01B9                     682 00229$:
                            683 ; genCmpEq
                            684 ; AOP_HL for _i
   01B9 21 00 00            685 	ld	hl,#_i + 0
   01BC 7E                  686 	ld	a,(hl) ; 2
   01BD FE 20               687 	cp	a,#0x20
                            688 ; Rule 5
   01BF CA E4 01            689 	jp	z,00232$
   01C2                     690 00344$:
                            691 ;	rombank1.c 143
                            692 ; genIpush
   01C2 21 00 00            693 	ld	hl,#_fullRow + 0
   01C5 E5                  694 	push	hl
                            695 ; genIpush
   01C6 3E 01               696 	ld	a,#0x01
   01C8 F5                  697 	push	af
   01C9 33                  698 	inc	sp
                            699 ; genIpush
   01CA 3E 14               700 	ld	a,#0x14
   01CC F5                  701 	push	af
   01CD 33                  702 	inc	sp
                            703 ; genIpush
                            704 ; AOP_HL for _i
   01CE 21 00 00            705 	ld	hl,#_i + 0
   01D1 7E                  706 	ld	a,(hl)
   01D2 F5                  707 	push	af
   01D3 33                  708 	inc	sp
                            709 ; genIpush
   01D4 3E 00               710 	ld	a,#0x00
   01D6 F5                  711 	push	af
   01D7 33                  712 	inc	sp
                            713 ; genCall
   01D8 CD 00 00            714 	call	_set_bkg_tiles
   01DB E8 06               715 	lda	sp,6(sp)
                            716 ;	rombank1.c 142
                            717 ; genPlus
                            718 ; AOP_HL for _i
                            719 ; genPlusIncr
   01DD 21 00 00            720 	ld	hl,#_i + 0
   01E0 34                  721 	inc	(hl)
                            722 ; genGoto
   01E1 C3 B9 01            723 	jp	00229$
                            724 ; genLabel
   01E4                     725 00232$:
                            726 ;	rombank1.c 146
                            727 ; genAssign
                            728 ; AOP_HL for _i
   01E4 21 00 00            729 	ld	hl,#_i + 0
   01E7 36 00               730 	ld	(hl),#0x00
                            731 ; genLabel
   01E9                     732 00233$:
                            733 ; genCmpEq
                            734 ; AOP_HL for _i
   01E9 21 00 00            735 	ld	hl,#_i + 0
   01EC 7E                  736 	ld	a,(hl) ; 2
   01ED FE 14               737 	cp	a,#0x14
                            738 ; Rule 5
   01EF CA 06 02            739 	jp	z,00236$
   01F2                     740 00345$:
                            741 ;	rombank1.c 147
                            742 ; genAssign
                            743 ; AOP_HL for _i
   01F2 21 00 00            744 	ld	hl,#_i + 0
   01F5 46                  745 	ld	b,(hl)
                            746 ; genPlus
   01F6 3E 00               747 	ld	a,#<_fullRow
   01F8 80                  748 	add	a,b
   01F9 5F                  749 	ld	e,a
   01FA 3E 00               750 	ld	a,#>_fullRow
   01FC CE 00               751 	adc	a,#0x00
   01FE 57                  752 	ld	d,a
                            753 ; genAssign (pointer)
   01FF 3E 04               754 	ld	a,#0x04
   0201 12                  755 	ld	(de),a
                            756 ;	rombank1.c 146
                            757 ; genPlus
                            758 ; AOP_HL for _i
                            759 ; genPlusIncr
   0202 34                  760 	inc	(hl)
                            761 ; genGoto
   0203 C3 E9 01            762 	jp	00233$
                            763 ; genLabel
   0206                     764 00236$:
                            765 ;	rombank1.c 150
                            766 ; genAssign
                            767 ; AOP_HL for _i
   0206 21 00 00            768 	ld	hl,#_i + 0
   0209 36 1A               769 	ld	(hl),#0x1A
                            770 ; genLabel
   020B                     771 00237$:
                            772 ; genCmpEq
                            773 ; AOP_HL for _i
   020B 21 00 00            774 	ld	hl,#_i + 0
   020E 7E                  775 	ld	a,(hl) ; 2
   020F FE 20               776 	cp	a,#0x20
                            777 ; Rule 5
   0211 CA 36 02            778 	jp	z,00240$
   0214                     779 00346$:
                            780 ;	rombank1.c 151
                            781 ; genIpush
   0214 21 00 00            782 	ld	hl,#_fullRow + 0
   0217 E5                  783 	push	hl
                            784 ; genIpush
   0218 3E 01               785 	ld	a,#0x01
   021A F5                  786 	push	af
   021B 33                  787 	inc	sp
                            788 ; genIpush
   021C 3E 14               789 	ld	a,#0x14
   021E F5                  790 	push	af
   021F 33                  791 	inc	sp
                            792 ; genIpush
                            793 ; AOP_HL for _i
   0220 21 00 00            794 	ld	hl,#_i + 0
   0223 7E                  795 	ld	a,(hl)
   0224 F5                  796 	push	af
   0225 33                  797 	inc	sp
                            798 ; genIpush
   0226 3E 00               799 	ld	a,#0x00
   0228 F5                  800 	push	af
   0229 33                  801 	inc	sp
                            802 ; genCall
   022A CD 00 00            803 	call	_set_bkg_tiles
   022D E8 06               804 	lda	sp,6(sp)
                            805 ;	rombank1.c 150
                            806 ; genPlus
                            807 ; AOP_HL for _i
                            808 ; genPlusIncr
   022F 21 00 00            809 	ld	hl,#_i + 0
   0232 34                  810 	inc	(hl)
                            811 ; genGoto
   0233 C3 0B 02            812 	jp	00237$
                            813 ; genLabel
   0236                     814 00240$:
                            815 ;	rombank1.c 154
                            816 ; genAssign
                            817 ; AOP_SFR for _VBK_REG
   0236 3E 00               818 	ld	a,#0x00
   0238 E0 00               819 	ldh	(_VBK_REG+0),a
                            820 ; genLabel
   023A                     821 00103$:
                            822 ;	rombank1.c 157
                            823 ; genIpush
   023A 21 7C 08            824 	ld	hl,#_preTitleScreen + 0
   023D E5                  825 	push	hl
                            826 ; genIpush
   023E 3E 58               827 	ld	a,#0x58
   0240 F5                  828 	push	af
   0241 33                  829 	inc	sp
                            830 ; genIpush
   0242 3E 00               831 	ld	a,#0x00
   0244 F5                  832 	push	af
   0245 33                  833 	inc	sp
                            834 ; genCall
   0246 CD 00 00            835 	call	_set_bkg_data
   0249 E8 04               836 	lda	sp,4(sp)
                            837 ;	rombank1.c 159
                            838 ; genAssign
                            839 ; AOP_HL for _i
   024B 21 00 00            840 	ld	hl,#_i + 0
   024E 36 00               841 	ld	(hl),#0x00
                            842 ; genLabel
   0250                     843 00241$:
                            844 ; genCmpEq
                            845 ; AOP_HL for _i
   0250 21 00 00            846 	ld	hl,#_i + 0
   0253 7E                  847 	ld	a,(hl) ; 2
   0254 FE 14               848 	cp	a,#0x14
                            849 ; Rule 5
   0256 CA 6D 02            850 	jp	z,00244$
   0259                     851 00347$:
                            852 ;	rombank1.c 160
                            853 ; genAssign
                            854 ; AOP_HL for _i
   0259 21 00 00            855 	ld	hl,#_i + 0
   025C 46                  856 	ld	b,(hl)
                            857 ; genPlus
   025D 3E 00               858 	ld	a,#<_fullRow
   025F 80                  859 	add	a,b
   0260 5F                  860 	ld	e,a
   0261 3E 00               861 	ld	a,#>_fullRow
   0263 CE 00               862 	adc	a,#0x00
   0265 57                  863 	ld	d,a
                            864 ; genAssign (pointer)
   0266 3E 44               865 	ld	a,#0x44
   0268 12                  866 	ld	(de),a
                            867 ;	rombank1.c 159
                            868 ; genPlus
                            869 ; AOP_HL for _i
                            870 ; genPlusIncr
   0269 34                  871 	inc	(hl)
                            872 ; genGoto
   026A C3 50 02            873 	jp	00241$
                            874 ; genLabel
   026D                     875 00244$:
                            876 ;	rombank1.c 163
                            877 ; genAssign
                            878 ; AOP_HL for _i
   026D 21 00 00            879 	ld	hl,#_i + 0
   0270 36 00               880 	ld	(hl),#0x00
                            881 ; genLabel
   0272                     882 00245$:
                            883 ; genCmpEq
                            884 ; AOP_HL for _i
   0272 21 00 00            885 	ld	hl,#_i + 0
   0275 7E                  886 	ld	a,(hl) ; 2
   0276 FE 20               887 	cp	a,#0x20
                            888 ; Rule 5
   0278 CA 9D 02            889 	jp	z,00248$
   027B                     890 00348$:
                            891 ;	rombank1.c 164
                            892 ; genIpush
   027B 21 00 00            893 	ld	hl,#_fullRow + 0
   027E E5                  894 	push	hl
                            895 ; genIpush
   027F 3E 01               896 	ld	a,#0x01
   0281 F5                  897 	push	af
   0282 33                  898 	inc	sp
                            899 ; genIpush
   0283 3E 14               900 	ld	a,#0x14
   0285 F5                  901 	push	af
   0286 33                  902 	inc	sp
                            903 ; genIpush
                            904 ; AOP_HL for _i
   0287 21 00 00            905 	ld	hl,#_i + 0
   028A 7E                  906 	ld	a,(hl)
   028B F5                  907 	push	af
   028C 33                  908 	inc	sp
                            909 ; genIpush
   028D 3E 00               910 	ld	a,#0x00
   028F F5                  911 	push	af
   0290 33                  912 	inc	sp
                            913 ; genCall
   0291 CD 00 00            914 	call	_set_bkg_tiles
   0294 E8 06               915 	lda	sp,6(sp)
                            916 ;	rombank1.c 163
                            917 ; genPlus
                            918 ; AOP_HL for _i
                            919 ; genPlusIncr
   0296 21 00 00            920 	ld	hl,#_i + 0
   0299 34                  921 	inc	(hl)
                            922 ; genGoto
   029A C3 72 02            923 	jp	00245$
                            924 ; genLabel
   029D                     925 00248$:
                            926 ;	rombank1.c 167
                            927 ; genAssign
                            928 ; AOP_HL for _j
   029D 21 00 00            929 	ld	hl,#_j + 0
   02A0 36 70               930 	ld	(hl),#0x70
                            931 ;	rombank1.c 168
                            932 ; genAssign
                            933 ; AOP_HL for _k
   02A2 21 00 00            934 	ld	hl,#_k + 0
   02A5 36 60               935 	ld	(hl),#0x60
                            936 ;	rombank1.c 169
                            937 ; genIpush
   02A7 21 7C 0E            938 	ld	hl,#_refreshLogoMap + 0
   02AA E5                  939 	push	hl
                            940 ; genIpush
   02AB 3E 0D               941 	ld	a,#0x0D
   02AD F5                  942 	push	af
   02AE 33                  943 	inc	sp
                            944 ; genIpush
   02AF 3E 0A               945 	ld	a,#0x0A
   02B1 F5                  946 	push	af
   02B2 33                  947 	inc	sp
                            948 ; genIpush
   02B3 3E 11               949 	ld	a,#0x11
   02B5 F5                  950 	push	af
   02B6 33                  951 	inc	sp
                            952 ; genIpush
   02B7 3E 05               953 	ld	a,#0x05
   02B9 F5                  954 	push	af
   02BA 33                  955 	inc	sp
                            956 ; genCall
   02BB CD 00 00            957 	call	_set_bkg_tiles
   02BE E8 06               958 	lda	sp,6(sp)
                            959 ;	rombank1.c 171
                            960 ; genIfx
                            961 ; Removed redundent or a,a
   02C0 AF                  962 	xor	a,a
   02C1 B1                  963 	or	a,c
   02C2 C2 68 04            964 	jp	nz,00111$
                            965 ;	rombank1.c 172
                            966 ; genIpush
   02C5 3E 0A               967 	ld	a,#0x0A
   02C7 F5                  968 	push	af
   02C8 33                  969 	inc	sp
                            970 ; genCall
   02C9 CD 00 00            971 	call	_fadeInBkg
   02CC E8 01               972 	lda	sp,1(sp)
                            973 ;	rombank1.c 174
                            974 ; genGoto
   02CE C3 68 04            975 	jp	00111$
                            976 ;	rombank1.c 177
                            977 ; genLabel
   02D1                     978 00106$:
                            979 ; genAssign
                            980 ; AOP_SFR for _VBK_REG
   02D1 3E 00               981 	ld	a,#0x00
   02D3 E0 00               982 	ldh	(_VBK_REG+0),a
                            983 ;	rombank1.c 179
                            984 ; genIpush
   02D5 21 FE 0E            985 	ld	hl,#_menuSprites + 0
   02D8 E5                  986 	push	hl
                            987 ; genIpush
   02D9 3E 0A               988 	ld	a,#0x0A
   02DB F5                  989 	push	af
   02DC 33                  990 	inc	sp
                            991 ; genIpush
   02DD 3E 00               992 	ld	a,#0x00
   02DF F5                  993 	push	af
   02E0 33                  994 	inc	sp
                            995 ; genCall
   02E1 CD 00 00            996 	call	_set_sprite_data
   02E4 E8 04               997 	lda	sp,4(sp)
                            998 ;	rombank1.c 181
                            999 ; genIpush
   02E6 3E 00              1000 	ld	a,#0x00
   02E8 F5                 1001 	push	af
   02E9 33                 1002 	inc	sp
                           1003 ; genIpush
   02EA 3E 00              1004 	ld	a,#0x00
   02EC F5                 1005 	push	af
   02ED 33                 1006 	inc	sp
                           1007 ; genCall
   02EE CD 00 00           1008 	call	_set_sprite_tile
   02F1 E8 02              1009 	lda	sp,2(sp)
                           1010 ;	rombank1.c 182
                           1011 ; genIpush
   02F3 3E 01              1012 	ld	a,#0x01
   02F5 F5                 1013 	push	af
   02F6 33                 1014 	inc	sp
                           1015 ; genIpush
   02F7 3E 01              1016 	ld	a,#0x01
   02F9 F5                 1017 	push	af
   02FA 33                 1018 	inc	sp
                           1019 ; genCall
   02FB CD 00 00           1020 	call	_set_sprite_tile
   02FE E8 02              1021 	lda	sp,2(sp)
                           1022 ;	rombank1.c 183
                           1023 ; genIpush
   0300 3E 00              1024 	ld	a,#0x00
   0302 F5                 1025 	push	af
   0303 33                 1026 	inc	sp
                           1027 ; genIpush
   0304 3E 00              1028 	ld	a,#0x00
   0306 F5                 1029 	push	af
   0307 33                 1030 	inc	sp
                           1031 ; genCall
   0308 CD 00 00           1032 	call	_set_sprite_prop
   030B E8 02              1033 	lda	sp,2(sp)
                           1034 ;	rombank1.c 184
                           1035 ; genIpush
   030D 3E 00              1036 	ld	a,#0x00
   030F F5                 1037 	push	af
   0310 33                 1038 	inc	sp
                           1039 ; genIpush
   0311 3E 01              1040 	ld	a,#0x01
   0313 F5                 1041 	push	af
   0314 33                 1042 	inc	sp
                           1043 ; genCall
   0315 CD 00 00           1044 	call	_set_sprite_prop
   0318 E8 02              1045 	lda	sp,2(sp)
                           1046 ;	rombank1.c 188
                           1047 ; genIpush
   031A 3E 01              1048 	ld	a,#0x01
   031C F5                 1049 	push	af
   031D 33                 1050 	inc	sp
                           1051 ; genIpush
   031E 3E 02              1052 	ld	a,#0x02
   0320 F5                 1053 	push	af
   0321 33                 1054 	inc	sp
                           1055 ; genCall
   0322 CD 00 00           1056 	call	_set_sprite_prop
   0325 E8 02              1057 	lda	sp,2(sp)
                           1058 ;	rombank1.c 189
                           1059 ; genIpush
   0327 3E 06              1060 	ld	a,#0x06
   0329 F5                 1061 	push	af
   032A 33                 1062 	inc	sp
                           1063 ; genIpush
   032B 3E 02              1064 	ld	a,#0x02
   032D F5                 1065 	push	af
   032E 33                 1066 	inc	sp
                           1067 ; genCall
   032F CD 00 00           1068 	call	_set_sprite_tile
   0332 E8 02              1069 	lda	sp,2(sp)
                           1070 ;	rombank1.c 191
                           1071 ; genAssign
                           1072 ; AOP_HL for _menuX
   0334 21 00 00           1073 	ld	hl,#_menuX + 0
   0337 36 50              1074 	ld	(hl),#0x50
                           1075 ;	rombank1.c 192
                           1076 ; genAssign
                           1077 ; AOP_HL for _menuY
   0339 21 00 00           1078 	ld	hl,#_menuY + 0
   033C 36 50              1079 	ld	(hl),#0x50
                           1080 ;	rombank1.c 194
                           1081 ; genIpush
   033E 3E 48              1082 	ld	a,#0x48
   0340 F5                 1083 	push	af
   0341 33                 1084 	inc	sp
                           1085 ; genIpush
                           1086 ; AOP_SFR for _DIV_REG
   0342 F0 00              1087 	ldh	a,(_DIV_REG+0) ; x
                           1088 ; Removed redundent load
   0344 F5                 1089 	push	af
   0345 33                 1090 	inc	sp
                           1091 ; genCall
   0346 CD 00 00           1092 	call	__moduchar
   0349 4B                 1093 	ld	c,e
   034A E8 02              1094 	lda	sp,2(sp)
                           1095 ; genPlus
                           1096 ; AOP_HL for _pX
                           1097 ; genPlusIncr
   034C 79                 1098 	ld	a,c
   034D C6 50              1099 	add	a,#0x50
   034F 21 00 00           1100 	ld	hl,#_pX + 0
   0352 77                 1101 	ld	(hl),a
                           1102 ;	rombank1.c 195
                           1103 ; genIpush
   0353 3E 20              1104 	ld	a,#0x20
   0355 F5                 1105 	push	af
   0356 33                 1106 	inc	sp
                           1107 ; genIpush
                           1108 ; AOP_SFR for _DIV_REG
   0357 F0 00              1109 	ldh	a,(_DIV_REG+0) ; x
                           1110 ; Removed redundent load
   0359 F5                 1111 	push	af
   035A 33                 1112 	inc	sp
                           1113 ; genCall
   035B CD 00 00           1114 	call	__moduchar
   035E 4B                 1115 	ld	c,e
   035F E8 02              1116 	lda	sp,2(sp)
                           1117 ; genPlus
                           1118 ; AOP_HL for _pY
                           1119 ; genPlusIncr
   0361 79                 1120 	ld	a,c
   0362 C6 10              1121 	add	a,#0x10
   0364 21 00 00           1122 	ld	hl,#_pY + 0
   0367 77                 1123 	ld	(hl),a
                           1124 ;	rombank1.c 196
                           1125 ; genIpush
                           1126 ; AOP_HL for _pY
   0368 7E                 1127 	ld	a,(hl)
   0369 F5                 1128 	push	af
   036A 33                 1129 	inc	sp
                           1130 ; genIpush
                           1131 ; AOP_HL for _pX
   036B 21 00 00           1132 	ld	hl,#_pX + 0
   036E 7E                 1133 	ld	a,(hl)
   036F F5                 1134 	push	af
   0370 33                 1135 	inc	sp
                           1136 ; genIpush
   0371 3E 02              1137 	ld	a,#0x02
   0373 F5                 1138 	push	af
   0374 33                 1139 	inc	sp
                           1140 ; genCall
   0375 CD 00 00           1141 	call	_move_sprite
   0378 E8 03              1142 	lda	sp,3(sp)
                           1143 ;	rombank1.c 198
                           1144 ; genIpush
   037A 3E 00              1145 	ld	a,#0x00
   037C F5                 1146 	push	af
   037D 33                 1147 	inc	sp
                           1148 ; genIpush
   037E 3E 00              1149 	ld	a,#0x00
   0380 F5                 1150 	push	af
   0381 33                 1151 	inc	sp
                           1152 ; genCall
   0382 CD 00 00           1153 	call	_move_bkg
   0385 E8 02              1154 	lda	sp,2(sp)
                           1155 ;	rombank1.c 199
                           1156 ; genIpush
   0387 21 9E 0F           1157 	ld	hl,#_titleScreenTileData + 0
   038A E5                 1158 	push	hl
                           1159 ; genIpush
   038B 3E 00              1160 	ld	a,#0x00
   038D F5                 1161 	push	af
   038E 33                 1162 	inc	sp
                           1163 ; genIpush
   038F 3E 00              1164 	ld	a,#0x00
   0391 F5                 1165 	push	af
   0392 33                 1166 	inc	sp
                           1167 ; genCall
   0393 CD 00 00           1168 	call	_set_bkg_data
   0396 E8 04              1169 	lda	sp,4(sp)
                           1170 ;	rombank1.c 200
                           1171 ; genIpush
   0398 21 9E 1F           1172 	ld	hl,#_titleScreenTiles + 0
   039B E5                 1173 	push	hl
                           1174 ; genIpush
   039C 3E 12              1175 	ld	a,#0x12
   039E F5                 1176 	push	af
   039F 33                 1177 	inc	sp
                           1178 ; genIpush
   03A0 3E 14              1179 	ld	a,#0x14
   03A2 F5                 1180 	push	af
   03A3 33                 1181 	inc	sp
                           1182 ; genIpush
   03A4 3E 00              1183 	ld	a,#0x00
   03A6 F5                 1184 	push	af
   03A7 33                 1185 	inc	sp
                           1186 ; genIpush
   03A8 3E 00              1187 	ld	a,#0x00
   03AA F5                 1188 	push	af
   03AB 33                 1189 	inc	sp
                           1190 ; genCall
   03AC CD 00 00           1191 	call	_set_bkg_tiles
   03AF E8 06              1192 	lda	sp,6(sp)
                           1193 ;	rombank1.c 205
                           1194 ; genIpush
   03B1 3E 01              1195 	ld	a,#0x01
   03B3 F5                 1196 	push	af
   03B4 33                 1197 	inc	sp
                           1198 ; genIpush
   03B5 3E 02              1199 	ld	a,#0x02
   03B7 F5                 1200 	push	af
   03B8 33                 1201 	inc	sp
                           1202 ; genCall
   03B9 CD 00 00           1203 	call	_set_sprite_prop
   03BC E8 02              1204 	lda	sp,2(sp)
                           1205 ;	rombank1.c 206
                           1206 ; genIpush
                           1207 ; AOP_HL for _menuY
   03BE 21 00 00           1208 	ld	hl,#_menuY + 0
   03C1 7E                 1209 	ld	a,(hl)
   03C2 F5                 1210 	push	af
   03C3 33                 1211 	inc	sp
                           1212 ; genIpush
                           1213 ; AOP_HL for _menuX
   03C4 21 00 00           1214 	ld	hl,#_menuX + 0
   03C7 7E                 1215 	ld	a,(hl)
   03C8 F5                 1216 	push	af
   03C9 33                 1217 	inc	sp
                           1218 ; genIpush
   03CA 3E 00              1219 	ld	a,#0x00
   03CC F5                 1220 	push	af
   03CD 33                 1221 	inc	sp
                           1222 ; genCall
   03CE CD 00 00           1223 	call	_move_sprite
   03D1 E8 03              1224 	lda	sp,3(sp)
                           1225 ;	rombank1.c 207
                           1226 ; genPlus
                           1227 ; AOP_HL for _menuX
                           1228 ; genPlusIncr
   03D3 21 00 00           1229 	ld	hl,#_menuX + 0
   03D6 7E                 1230 	ld	a,(hl)
   03D7 C6 08              1231 	add	a,#0x08
   03D9 4F                 1232 	ld	c,a
                           1233 ; genIpush
                           1234 ; AOP_HL for _menuY
   03DA 21 00 00           1235 	ld	hl,#_menuY + 0
   03DD 7E                 1236 	ld	a,(hl)
   03DE F5                 1237 	push	af
   03DF 33                 1238 	inc	sp
                           1239 ; genIpush
   03E0 79                 1240 	ld	a,c
   03E1 F5                 1241 	push	af
   03E2 33                 1242 	inc	sp
                           1243 ; genIpush
   03E3 3E 01              1244 	ld	a,#0x01
   03E5 F5                 1245 	push	af
   03E6 33                 1246 	inc	sp
                           1247 ; genCall
   03E7 CD 00 00           1248 	call	_move_sprite
   03EA E8 03              1249 	lda	sp,3(sp)
                           1250 ;	rombank1.c 209
                           1251 ; genAnd
                           1252 ; AOP_SFR for _LCDC_REG
   03EC F0 00              1253 	ldh	a,(_LCDC_REG+0) ; x
   03EE E6 FD              1254 	and	a,#0xFD
   03F0 E0 00              1255 	ldh	(_LCDC_REG+0),a
                           1256 ;	rombank1.c 210
                           1257 ; genIpush
   03F2 3E 03              1258 	ld	a,#0x03
   03F4 F5                 1259 	push	af
   03F5 33                 1260 	inc	sp
                           1261 ; genCall
   03F6 CD 00 00           1262 	call	_fadeInBkg
   03F9 E8 01              1263 	lda	sp,1(sp)
                           1264 ;	rombank1.c 214
                           1265 ; genCmpEq
                           1266 ; AOP_HL for __cpu
   03FB 21 00 00           1267 	ld	hl,#__cpu + 0
   03FE 7E                 1268 	ld	a,(hl) ; 2
   03FF FE 11              1269 	cp	a,#0x11
   0401 C2 08 04           1270 	jp	nz,00349$
   0404 3E 01              1271 	ld	a,#0x01
   0406 18 01              1272 	jr	00350$
   0408                    1273 00349$:
   0408 AF                 1274 	xor	a,a
   0409                    1275 00350$:
   0409 4F                 1276 	ld	c,a
                           1277 ; genIfx
                           1278 ; Removed redundent or a,a
   040A AF                 1279 	xor	a,a
   040B B1                 1280 	or	a,c
   040C CA 44 04           1281 	jp	z,00108$
                           1282 ;	rombank1.c 215
                           1283 ; genCall
   040F CD 00 00           1284 	call	_wait_vbl_done
                           1285 ;	rombank1.c 216
                           1286 ; genAssign
                           1287 ; AOP_SFR for _VBK_REG
   0412 3E 01              1288 	ld	a,#0x01
   0414 E0 00              1289 	ldh	(_VBK_REG+0),a
                           1290 ;	rombank1.c 217
                           1291 ; genIpush
   0416 21 06 21           1292 	ld	hl,#_titleScreenColours + 0
   0419 E5                 1293 	push	hl
                           1294 ; genIpush
   041A 3E 12              1295 	ld	a,#0x12
   041C F5                 1296 	push	af
   041D 33                 1297 	inc	sp
                           1298 ; genIpush
   041E 3E 14              1299 	ld	a,#0x14
   0420 F5                 1300 	push	af
   0421 33                 1301 	inc	sp
                           1302 ; genIpush
   0422 3E 00              1303 	ld	a,#0x00
   0424 F5                 1304 	push	af
   0425 33                 1305 	inc	sp
                           1306 ; genIpush
   0426 3E 00              1307 	ld	a,#0x00
   0428 F5                 1308 	push	af
   0429 33                 1309 	inc	sp
                           1310 ; genCall
   042A CD 00 00           1311 	call	_set_bkg_tiles
   042D E8 06              1312 	lda	sp,6(sp)
                           1313 ;	rombank1.c 218
                           1314 ; genIpush
   042F 21 96 22           1315 	ld	hl,#_bkgPalette + 0
   0432 E5                 1316 	push	hl
                           1317 ; genIpush
   0433 3E 08              1318 	ld	a,#0x08
   0435 F5                 1319 	push	af
   0436 33                 1320 	inc	sp
                           1321 ; genIpush
   0437 3E 00              1322 	ld	a,#0x00
   0439 F5                 1323 	push	af
   043A 33                 1324 	inc	sp
                           1325 ; genCall
   043B CD 00 00           1326 	call	_set_bkg_palette
   043E E8 04              1327 	lda	sp,4(sp)
                           1328 ;	rombank1.c 219
                           1329 ; genAssign
                           1330 ; AOP_SFR for _VBK_REG
   0440 3E 00              1331 	ld	a,#0x00
   0442 E0 00              1332 	ldh	(_VBK_REG+0),a
                           1333 ; genLabel
   0444                    1334 00108$:
                           1335 ;	rombank1.c 222
                           1336 ; genIpush
   0444 3E 0A              1337 	ld	a,#0x0A
   0446 F5                 1338 	push	af
   0447 33                 1339 	inc	sp
                           1340 ; genCall
   0448 CD 00 00           1341 	call	_fadeInSprites
   044B E8 01              1342 	lda	sp,1(sp)
                           1343 ;	rombank1.c 223
                           1344 ; genIfx
                           1345 ; Removed redundent or a,a
   044D AF                 1346 	xor	a,a
   044E B1                 1347 	or	a,c
   044F CA 63 04           1348 	jp	z,00110$
                           1349 ;	rombank1.c 224
                           1350 ; genIpush
   0452 21 D6 22           1351 	ld	hl,#_spritePalette + 0
   0455 E5                 1352 	push	hl
                           1353 ; genIpush
   0456 3E 02              1354 	ld	a,#0x02
   0458 F5                 1355 	push	af
   0459 33                 1356 	inc	sp
                           1357 ; genIpush
   045A 3E 00              1358 	ld	a,#0x00
   045C F5                 1359 	push	af
   045D 33                 1360 	inc	sp
                           1361 ; genCall
   045E CD 00 00           1362 	call	_set_sprite_palette
   0461 E8 04              1363 	lda	sp,4(sp)
                           1364 ; genLabel
   0463                    1365 00110$:
                           1366 ;	rombank1.c 227
                           1367 ; genAssign
                           1368 ; AOP_HL for _j
   0463 21 00 00           1369 	ld	hl,#_j + 0
   0466 36 00              1370 	ld	(hl),#0x00
                           1371 ;	rombank1.c 229
                           1372 ; genLabel
   0468                    1373 00111$:
                           1374 ;	rombank1.c 231
                           1375 ; genAssign
                           1376 ; AOP_HL for _m
   0468 21 00 00           1377 	ld	hl,#_m + 0
   046B 36 00              1378 	ld	(hl),#0x00
                           1379 ;	rombank1.c 232
                           1380 ; genAssign
                           1381 ; AOP_HL for _initBank
   046D 21 00 00           1382 	ld	hl,#_initBank + 0
   0470 36 00              1383 	ld	(hl),#0x00
                           1384 ; genGoto
   0472 C3 78 08           1385 	jp	00257$
                           1386 ; genLabel
   0475                    1387 00195$:
                           1388 ;	rombank1.c 238
                           1389 ; genCmpEq
                           1390 ; AOP_HL for _scene
   0475 21 00 00           1391 	ld	hl,#_scene + 0
   0478 7E                 1392 	ld	a,(hl)
   0479 B7                 1393 	or	a,a
                           1394 ; Rule 5
   047A CA 89 04           1395 	jp	z,00119$
   047D                    1396 00351$:
                           1397 ; genCmpEq
                           1398 ; AOP_HL for _scene
   047D 21 00 00           1399 	ld	hl,#_scene + 0
   0480 7E                 1400 	ld	a,(hl) ; 2
   0481 FE 01              1401 	cp	a,#0x01
                           1402 ; Rule 5
   0483 CA 14 05           1403 	jp	z,00120$
   0486                    1404 00352$:
                           1405 ; genGoto
   0486 C3 78 08           1406 	jp	00257$
                           1407 ;	rombank1.c 259
                           1408 ; genLabel
   0489                    1409 00119$:
                           1410 ;	rombank1.c 241
                           1411 ; genCmpEq
                           1412 ; AOP_HL for _j
   0489 21 00 00           1413 	ld	hl,#_j + 0
   048C 7E                 1414 	ld	a,(hl)
   048D B7                 1415 	or	a,a
                           1416 ; Rule 5
   048E CA A5 04           1417 	jp	z,00117$
   0491                    1418 00353$:
                           1419 ;	rombank1.c 242
                           1420 ; genMinus
                           1421 ; AOP_HL for _j
   0491 21 00 00           1422 	ld	hl,#_j + 0
   0494 35                 1423 	dec	(hl)
                           1424 ;	rombank1.c 243
                           1425 ; genIpush
   0495 3E 01              1426 	ld	a,#0x01
   0497 F5                 1427 	push	af
   0498 33                 1428 	inc	sp
                           1429 ; genIpush
   0499 3E 00              1430 	ld	a,#0x00
   049B F5                 1431 	push	af
   049C 33                 1432 	inc	sp
                           1433 ; genCall
   049D CD 00 00           1434 	call	_scroll_bkg
   04A0 E8 02              1435 	lda	sp,2(sp)
                           1436 ; genGoto
   04A2 C3 FF 04           1437 	jp	00118$
                           1438 ; genLabel
   04A5                    1439 00117$:
                           1440 ;	rombank1.c 247
                           1441 ; genCmpEq
                           1442 ; AOP_HL for _k
   04A5 21 00 00           1443 	ld	hl,#_k + 0
   04A8 7E                 1444 	ld	a,(hl)
   04A9 B7                 1445 	or	a,a
                           1446 ; Rule 5
   04AA CA FF 04           1447 	jp	z,00118$
   04AD                    1448 00354$:
                           1449 ;	rombank1.c 248
                           1450 ; genMinus
                           1451 ; AOP_HL for _k
   04AD 21 00 00           1452 	ld	hl,#_k + 0
   04B0 35                 1453 	dec	(hl)
                           1454 ;	rombank1.c 249
                           1455 ; genCmpEq
                           1456 ; AOP_HL for _k
   04B1 7E                 1457 	ld	a,(hl) ; 2
   04B2 FE 02              1458 	cp	a,#0x02
   04B4 C2 B9 04           1459 	jp	nz,00355$
   04B7 18 03              1460 	jr	00356$
   04B9                    1461 00355$:
   04B9 C3 FF 04           1462 	jp	00118$
   04BC                    1463 00356$:
                           1464 ;	rombank1.c 250
                           1465 ; genIpush
   04BC 3E 0A              1466 	ld	a,#0x0A
   04BE F5                 1467 	push	af
   04BF 33                 1468 	inc	sp
                           1469 ; genCall
   04C0 CD 00 00           1470 	call	_fadeOutBkg
   04C3 E8 01              1471 	lda	sp,1(sp)
                           1472 ;	rombank1.c 251
                           1473 ; genAssign
                           1474 ; AOP_HL for _i
   04C5 21 00 00           1475 	ld	hl,#_i + 0
   04C8 36 00              1476 	ld	(hl),#0x00
                           1477 ; genLabel
   04CA                    1478 00249$:
                           1479 ; genCmpEq
                           1480 ; AOP_HL for _i
   04CA 21 00 00           1481 	ld	hl,#_i + 0
   04CD 7E                 1482 	ld	a,(hl) ; 2
   04CE FE 20              1483 	cp	a,#0x20
                           1484 ; Rule 5
   04D0 CA F5 04           1485 	jp	z,00252$
   04D3                    1486 00357$:
                           1487 ;	rombank1.c 252
                           1488 ; genIpush
   04D3 21 00 00           1489 	ld	hl,#_fullRow + 0
   04D6 E5                 1490 	push	hl
                           1491 ; genIpush
   04D7 3E 01              1492 	ld	a,#0x01
   04D9 F5                 1493 	push	af
   04DA 33                 1494 	inc	sp
                           1495 ; genIpush
   04DB 3E 14              1496 	ld	a,#0x14
   04DD F5                 1497 	push	af
   04DE 33                 1498 	inc	sp
                           1499 ; genIpush
                           1500 ; AOP_HL for _i
   04DF 21 00 00           1501 	ld	hl,#_i + 0
   04E2 7E                 1502 	ld	a,(hl)
   04E3 F5                 1503 	push	af
   04E4 33                 1504 	inc	sp
                           1505 ; genIpush
   04E5 3E 00              1506 	ld	a,#0x00
   04E7 F5                 1507 	push	af
   04E8 33                 1508 	inc	sp
                           1509 ; genCall
   04E9 CD 00 00           1510 	call	_set_bkg_tiles
   04EC E8 06              1511 	lda	sp,6(sp)
                           1512 ;	rombank1.c 251
                           1513 ; genPlus
                           1514 ; AOP_HL for _i
                           1515 ; genPlusIncr
   04EE 21 00 00           1516 	ld	hl,#_i + 0
   04F1 34                 1517 	inc	(hl)
                           1518 ; genGoto
   04F2 C3 CA 04           1519 	jp	00249$
                           1520 ; genLabel
   04F5                    1521 00252$:
                           1522 ;	rombank1.c 254
                           1523 ; genAssign
                           1524 ; AOP_HL for _initBank
   04F5 21 00 00           1525 	ld	hl,#_initBank + 0
   04F8 36 01              1526 	ld	(hl),#0x01
                           1527 ;	rombank1.c 255
                           1528 ; genAssign
                           1529 ; AOP_HL for _scene
   04FA 21 00 00           1530 	ld	hl,#_scene + 0
   04FD 36 01              1531 	ld	(hl),#0x01
                           1532 ; genLabel
   04FF                    1533 00118$:
                           1534 ;	rombank1.c 260
                           1535 ; genOr
                           1536 ; AOP_SFR for _LCDC_REG
                           1537 ; Type res[4] = l[4]&r[1]
                           1538 ; Size res[1] = l[1]&r[1]
   04FF F0 00              1539 	ldh	a,(_LCDC_REG+0) ; x
   0501 F6 01              1540 	or	a,#0x01
   0503 E0 00              1541 	ldh	(_LCDC_REG+0),a
                           1542 ;	rombank1.c 261
                           1543 ; genAnd
                           1544 ; AOP_SFR for _LCDC_REG
   0505 F0 00              1545 	ldh	a,(_LCDC_REG+0) ; x
   0507 E6 DF              1546 	and	a,#0xDF
   0509 E0 00              1547 	ldh	(_LCDC_REG+0),a
                           1548 ;	rombank1.c 262
                           1549 ; genAnd
                           1550 ; AOP_SFR for _LCDC_REG
   050B F0 00              1551 	ldh	a,(_LCDC_REG+0) ; x
   050D E6 FD              1552 	and	a,#0xFD
   050F E0 00              1553 	ldh	(_LCDC_REG+0),a
                           1554 ;	rombank1.c 264
                           1555 ; genGoto
   0511 C3 78 08           1556 	jp	00257$
                           1557 ;	rombank1.c 269
                           1558 ; genLabel
   0514                    1559 00120$:
                           1560 ; genPlus
                           1561 ; AOP_HL for _k
                           1562 ; genPlusIncr
   0514 21 00 00           1563 	ld	hl,#_k + 0
   0517 34                 1564 	inc	(hl)
                           1565 ;	rombank1.c 270
                           1566 ; genCmpEq
                           1567 ; AOP_HL for _k
   0518 7E                 1568 	ld	a,(hl) ; 2
   0519 FE 03              1569 	cp	a,#0x03
   051B C2 20 05           1570 	jp	nz,00358$
   051E 18 03              1571 	jr	00359$
   0520                    1572 00358$:
   0520 C3 2C 05           1573 	jp	00122$
   0523                    1574 00359$:
                           1575 ;	rombank1.c 271
                           1576 ; genPlus
                           1577 ; AOP_HL for _j
                           1578 ; genPlusIncr
   0523 21 00 00           1579 	ld	hl,#_j + 0
   0526 34                 1580 	inc	(hl)
                           1581 ;	rombank1.c 272
                           1582 ; genAssign
                           1583 ; AOP_HL for _k
   0527 21 00 00           1584 	ld	hl,#_k + 0
   052A 36 00              1585 	ld	(hl),#0x00
                           1586 ; genLabel
   052C                    1587 00122$:
                           1588 ;	rombank1.c 276
                           1589 ; genCmpGt
                           1590 ; AOP_HL for _j
   052C AF                 1591 	xor	a,a
   052D 3E 01              1592 	ld	a,#0x01
   052F 21 00 00           1593 	ld	hl,#_j + 0
   0532 9E                 1594 	sbc	a,(hl) ; 2
   0533 D2 48 05           1595 	jp	nc,00124$
                           1596 ; genCmpLt
                           1597 ; AOP_HL for _j
   0536 7E                 1598 	ld	a,(hl)
   0537 FE 0A              1599 	cp	#0x0A
   0539 D2 48 05           1600 	jp	nc,00124$
                           1601 ;	rombank1.c 277
                           1602 ; genIpush
                           1603 ; AOP_HL for _j
   053C 7E                 1604 	ld	a,(hl)
   053D F5                 1605 	push	af
   053E 33                 1606 	inc	sp
                           1607 ; genIpush
   053F 3E 02              1608 	ld	a,#0x02
   0541 F5                 1609 	push	af
   0542 33                 1610 	inc	sp
                           1611 ; genCall
   0543 CD 00 00           1612 	call	_set_sprite_tile
   0546 E8 02              1613 	lda	sp,2(sp)
                           1614 ; genLabel
   0548                    1615 00124$:
                           1616 ;	rombank1.c 280
                           1617 ; genCmpEq
                           1618 ; AOP_HL for _j
   0548 21 00 00           1619 	ld	hl,#_j + 0
   054B 7E                 1620 	ld	a,(hl) ; 2
   054C FE 0A              1621 	cp	a,#0x0A
   054E C2 53 05           1622 	jp	nz,00360$
   0551 18 03              1623 	jr	00361$
   0553                    1624 00360$:
   0553 C3 63 05           1625 	jp	00127$
   0556                    1626 00361$:
                           1627 ;	rombank1.c 281
                           1628 ; genIpush
   0556 3E 00              1629 	ld	a,#0x00
   0558 F5                 1630 	push	af
   0559 33                 1631 	inc	sp
                           1632 ; genIpush
   055A 3E 02              1633 	ld	a,#0x02
   055C F5                 1634 	push	af
   055D 33                 1635 	inc	sp
                           1636 ; genCall
   055E CD 00 00           1637 	call	_move_sprite
   0561 E8 02              1638 	lda	sp,2(sp)
                           1639 ; genLabel
   0563                    1640 00127$:
                           1641 ;	rombank1.c 285
                           1642 ; genCmpGt
                           1643 ; AOP_HL for _j
   0563 AF                 1644 	xor	a,a
   0564 3E 14              1645 	ld	a,#0x14
   0566 21 00 00           1646 	ld	hl,#_j + 0
   0569 9E                 1647 	sbc	a,(hl) ; 2
   056A D2 AB 05           1648 	jp	nc,00129$
                           1649 ;	rombank1.c 286
                           1650 ; genAssign
                           1651 ; AOP_HL for _j
   056D 36 00              1652 	ld	(hl),#0x00
                           1653 ;	rombank1.c 287
                           1654 ; genIpush
   056F 3E 48              1655 	ld	a,#0x48
   0571 F5                 1656 	push	af
   0572 33                 1657 	inc	sp
                           1658 ; genIpush
                           1659 ; AOP_SFR for _DIV_REG
   0573 F0 00              1660 	ldh	a,(_DIV_REG+0) ; x
                           1661 ; Removed redundent load
   0575 F5                 1662 	push	af
   0576 33                 1663 	inc	sp
                           1664 ; genCall
   0577 CD 00 00           1665 	call	__moduchar
   057A 4B                 1666 	ld	c,e
   057B E8 02              1667 	lda	sp,2(sp)
                           1668 ; genPlus
                           1669 ; AOP_HL for _pX
                           1670 ; genPlusIncr
   057D 79                 1671 	ld	a,c
   057E C6 50              1672 	add	a,#0x50
   0580 21 00 00           1673 	ld	hl,#_pX + 0
   0583 77                 1674 	ld	(hl),a
                           1675 ;	rombank1.c 288
                           1676 ; genIpush
   0584 3E 20              1677 	ld	a,#0x20
   0586 F5                 1678 	push	af
   0587 33                 1679 	inc	sp
                           1680 ; genIpush
                           1681 ; AOP_SFR for _DIV_REG
   0588 F0 00              1682 	ldh	a,(_DIV_REG+0) ; x
                           1683 ; Removed redundent load
   058A F5                 1684 	push	af
   058B 33                 1685 	inc	sp
                           1686 ; genCall
   058C CD 00 00           1687 	call	__moduchar
   058F 4B                 1688 	ld	c,e
   0590 E8 02              1689 	lda	sp,2(sp)
                           1690 ; genPlus
                           1691 ; AOP_HL for _pY
                           1692 ; genPlusIncr
   0592 79                 1693 	ld	a,c
   0593 C6 10              1694 	add	a,#0x10
   0595 21 00 00           1695 	ld	hl,#_pY + 0
   0598 77                 1696 	ld	(hl),a
                           1697 ;	rombank1.c 289
                           1698 ; genIpush
                           1699 ; AOP_HL for _pY
   0599 7E                 1700 	ld	a,(hl)
   059A F5                 1701 	push	af
   059B 33                 1702 	inc	sp
                           1703 ; genIpush
                           1704 ; AOP_HL for _pX
   059C 21 00 00           1705 	ld	hl,#_pX + 0
   059F 7E                 1706 	ld	a,(hl)
   05A0 F5                 1707 	push	af
   05A1 33                 1708 	inc	sp
                           1709 ; genIpush
   05A2 3E 02              1710 	ld	a,#0x02
   05A4 F5                 1711 	push	af
   05A5 33                 1712 	inc	sp
                           1713 ; genCall
   05A6 CD 00 00           1714 	call	_move_sprite
   05A9 E8 03              1715 	lda	sp,3(sp)
                           1716 ; genLabel
   05AB                    1717 00129$:
                           1718 ;	rombank1.c 295
                           1719 ; genAnd
                           1720 ; AOP_HL for _lastKeys
   05AB 21 00 00           1721 	ld	hl,#_lastKeys + 0
   05AE 7E                 1722 	ld	a,(hl)
   05AF E6 04              1723 	and	a,#0x04
   05B1 4F                 1724 	ld	c,a
                           1725 ; genIfx
                           1726 ; Removed redundent or a,a
   05B2 AF                 1727 	xor	a,a
   05B3 B1                 1728 	or	a,c
   05B4 C2 DA 05           1729 	jp	nz,00137$
                           1730 ;	rombank1.c 297
                           1731 ; genCall
   05B7 CD 00 00           1732 	call	_joypad
   05BA 43                 1733 	ld	b,e
                           1734 ; genAnd
   05BB 78                 1735 	ld	a,b
   05BC CB 57              1736 	bit	2,a
   05BE CA DA 05           1737 	jp	z,00137$
                           1738 ;	rombank1.c 298
                           1739 ; genCmpEq
                           1740 ; AOP_HL for _m
   05C1 21 00 00           1741 	ld	hl,#_m + 0
   05C4 7E                 1742 	ld	a,(hl)
   05C5 B7                 1743 	or	a,a
   05C6 C2 CB 05           1744 	jp	nz,00362$
   05C9 18 03              1745 	jr	00363$
   05CB                    1746 00362$:
   05CB C3 D5 05           1747 	jp	00131$
   05CE                    1748 00363$:
                           1749 ;	rombank1.c 299
                           1750 ; genPlus
                           1751 ; AOP_HL for _m
                           1752 ; genPlusIncr
   05CE 21 00 00           1753 	ld	hl,#_m + 0
   05D1 34                 1754 	inc	(hl)
                           1755 ; genGoto
   05D2 C3 DA 05           1756 	jp	00137$
                           1757 ; genLabel
   05D5                    1758 00131$:
                           1759 ;	rombank1.c 301
                           1760 ; genAssign
                           1761 ; AOP_HL for _m
   05D5 21 00 00           1762 	ld	hl,#_m + 0
   05D8 36 00              1763 	ld	(hl),#0x00
                           1764 ; genLabel
   05DA                    1765 00137$:
                           1766 ;	rombank1.c 307
                           1767 ; genAnd
                           1768 ; AOP_HL for _lastKeys
                           1769 ; AOP_STK for _updateGame_sloc0_1_0
   05DA 21 00 00           1770 	ld	hl,#_lastKeys + 0
   05DD 7E                 1771 	ld	a,(hl)
   05DE E6 08              1772 	and	a,#0x08
   05E0 F8 00              1773 	lda	hl,0(sp)
   05E2 77                 1774 	ld	(hl),a ; 3
                           1775 ; genIfx
                           1776 ; AOP_STK for _updateGame_sloc0_1_0
                           1777 ; Removed redundent or a,a
   05E3 AF                 1778 	xor	a,a
   05E4 B6                 1779 	or	a,(hl)
   05E5 C2 0C 06           1780 	jp	nz,00145$
                           1781 ;	rombank1.c 309
                           1782 ; genCall
   05E8 CD 00 00           1783 	call	_joypad
   05EB 43                 1784 	ld	b,e
                           1785 ; genAnd
   05EC 78                 1786 	ld	a,b
   05ED CB 5F              1787 	bit	3,a
   05EF CA 0C 06           1788 	jp	z,00145$
                           1789 ;	rombank1.c 310
                           1790 ; genCmpEq
                           1791 ; AOP_HL for _m
   05F2 21 00 00           1792 	ld	hl,#_m + 0
   05F5 7E                 1793 	ld	a,(hl) ; 2
   05F6 FE 01              1794 	cp	a,#0x01
   05F8 C2 FD 05           1795 	jp	nz,00364$
   05FB 18 03              1796 	jr	00365$
   05FD                    1797 00364$:
   05FD C3 07 06           1798 	jp	00139$
   0600                    1799 00365$:
                           1800 ;	rombank1.c 311
                           1801 ; genPlus
                           1802 ; AOP_HL for _m
                           1803 ; genPlusIncr
   0600 21 00 00           1804 	ld	hl,#_m + 0
   0603 34                 1805 	inc	(hl)
                           1806 ; genGoto
   0604 C3 0C 06           1807 	jp	00145$
                           1808 ; genLabel
   0607                    1809 00139$:
                           1810 ;	rombank1.c 313
                           1811 ; genAssign
                           1812 ; AOP_HL for _m
   0607 21 00 00           1813 	ld	hl,#_m + 0
   060A 36 00              1814 	ld	(hl),#0x00
                           1815 ; genLabel
   060C                    1816 00145$:
                           1817 ;	rombank1.c 319
                           1818 ; genAnd
                           1819 ; AOP_HL for _lastKeys
   060C 21 00 00           1820 	ld	hl,#_lastKeys + 0
   060F 7E                 1821 	ld	a,(hl)
   0610 CB 4F              1822 	bit	1,a
   0612 C2 39 06           1823 	jp	nz,00153$
                           1824 ;	rombank1.c 321
                           1825 ; genCall
   0615 CD 00 00           1826 	call	_joypad
   0618 43                 1827 	ld	b,e
                           1828 ; genAnd
   0619 78                 1829 	ld	a,b
   061A CB 4F              1830 	bit	1,a
   061C CA 39 06           1831 	jp	z,00153$
                           1832 ;	rombank1.c 322
                           1833 ; genCmpEq
                           1834 ; AOP_HL for _m
   061F 21 00 00           1835 	ld	hl,#_m + 0
   0622 7E                 1836 	ld	a,(hl) ; 2
   0623 FE 02              1837 	cp	a,#0x02
   0625 C2 2A 06           1838 	jp	nz,00366$
   0628 18 03              1839 	jr	00367$
   062A                    1840 00366$:
   062A C3 34 06           1841 	jp	00147$
   062D                    1842 00367$:
                           1843 ;	rombank1.c 323
                           1844 ; genPlus
                           1845 ; AOP_HL for _m
                           1846 ; genPlusIncr
   062D 21 00 00           1847 	ld	hl,#_m + 0
   0630 34                 1848 	inc	(hl)
                           1849 ; genGoto
   0631 C3 39 06           1850 	jp	00153$
                           1851 ; genLabel
   0634                    1852 00147$:
                           1853 ;	rombank1.c 325
                           1854 ; genAssign
                           1855 ; AOP_HL for _m
   0634 21 00 00           1856 	ld	hl,#_m + 0
   0637 36 00              1857 	ld	(hl),#0x00
                           1858 ; genLabel
   0639                    1859 00153$:
                           1860 ;	rombank1.c 331
                           1861 ; genAnd
                           1862 ; AOP_HL for _lastKeys
   0639 21 00 00           1863 	ld	hl,#_lastKeys + 0
   063C 7E                 1864 	ld	a,(hl)
   063D CB 47              1865 	bit	0,a
   063F C2 66 06           1866 	jp	nz,00161$
                           1867 ;	rombank1.c 333
                           1868 ; genCall
   0642 CD 00 00           1869 	call	_joypad
   0645 43                 1870 	ld	b,e
                           1871 ; genAnd
   0646 78                 1872 	ld	a,b
   0647 CB 47              1873 	bit	0,a
   0649 CA 66 06           1874 	jp	z,00161$
                           1875 ;	rombank1.c 334
                           1876 ; genCmpEq
                           1877 ; AOP_HL for _m
   064C 21 00 00           1878 	ld	hl,#_m + 0
   064F 7E                 1879 	ld	a,(hl) ; 2
   0650 FE 03              1880 	cp	a,#0x03
   0652 C2 57 06           1881 	jp	nz,00368$
   0655 18 03              1882 	jr	00369$
   0657                    1883 00368$:
   0657 C3 61 06           1884 	jp	00155$
   065A                    1885 00369$:
                           1886 ;	rombank1.c 335
                           1887 ; genPlus
                           1888 ; AOP_HL for _m
                           1889 ; genPlusIncr
   065A 21 00 00           1890 	ld	hl,#_m + 0
   065D 34                 1891 	inc	(hl)
                           1892 ; genGoto
   065E C3 66 06           1893 	jp	00161$
                           1894 ; genLabel
   0661                    1895 00155$:
                           1896 ;	rombank1.c 337
                           1897 ; genAssign
                           1898 ; AOP_HL for _m
   0661 21 00 00           1899 	ld	hl,#_m + 0
   0664 36 00              1900 	ld	(hl),#0x00
                           1901 ; genLabel
   0666                    1902 00161$:
                           1903 ;	rombank1.c 343
                           1904 ; genAnd
                           1905 ; AOP_HL for _lastKeys
   0666 21 00 00           1906 	ld	hl,#_lastKeys + 0
   0669 7E                 1907 	ld	a,(hl)
   066A CB 6F              1908 	bit	5,a
   066C C2 93 06           1909 	jp	nz,00169$
                           1910 ;	rombank1.c 345
                           1911 ; genCall
   066F CD 00 00           1912 	call	_joypad
   0672 43                 1913 	ld	b,e
                           1914 ; genAnd
   0673 78                 1915 	ld	a,b
   0674 CB 6F              1916 	bit	5,a
   0676 CA 93 06           1917 	jp	z,00169$
                           1918 ;	rombank1.c 346
                           1919 ; genCmpEq
                           1920 ; AOP_HL for _m
   0679 21 00 00           1921 	ld	hl,#_m + 0
   067C 7E                 1922 	ld	a,(hl) ; 2
   067D FE 04              1923 	cp	a,#0x04
   067F C2 84 06           1924 	jp	nz,00370$
   0682 18 03              1925 	jr	00371$
   0684                    1926 00370$:
   0684 C3 8E 06           1927 	jp	00163$
   0687                    1928 00371$:
                           1929 ;	rombank1.c 347
                           1930 ; genPlus
                           1931 ; AOP_HL for _m
                           1932 ; genPlusIncr
   0687 21 00 00           1933 	ld	hl,#_m + 0
   068A 34                 1934 	inc	(hl)
                           1935 ; genGoto
   068B C3 93 06           1936 	jp	00169$
                           1937 ; genLabel
   068E                    1938 00163$:
                           1939 ;	rombank1.c 349
                           1940 ; genAssign
                           1941 ; AOP_HL for _m
   068E 21 00 00           1942 	ld	hl,#_m + 0
   0691 36 00              1943 	ld	(hl),#0x00
                           1944 ; genLabel
   0693                    1945 00169$:
                           1946 ;	rombank1.c 355
                           1947 ; genAnd
                           1948 ; AOP_HL for _lastKeys
   0693 21 00 00           1949 	ld	hl,#_lastKeys + 0
   0696 7E                 1950 	ld	a,(hl)
   0697 CB 67              1951 	bit	4,a
   0699 C2 EB 06           1952 	jp	nz,00177$
                           1953 ;	rombank1.c 357
                           1954 ; genCall
   069C CD 00 00           1955 	call	_joypad
   069F 43                 1956 	ld	b,e
                           1957 ; genAnd
   06A0 78                 1958 	ld	a,b
   06A1 CB 67              1959 	bit	4,a
   06A3 CA EB 06           1960 	jp	z,00177$
                           1961 ;	rombank1.c 358
                           1962 ; genCmpEq
                           1963 ; AOP_HL for _m
   06A6 21 00 00           1964 	ld	hl,#_m + 0
   06A9 7E                 1965 	ld	a,(hl) ; 2
   06AA FE 05              1966 	cp	a,#0x05
   06AC C2 B1 06           1967 	jp	nz,00372$
   06AF 18 03              1968 	jr	00373$
   06B1                    1969 00372$:
   06B1 C3 E6 06           1970 	jp	00171$
   06B4                    1971 00373$:
                           1972 ;	rombank1.c 360
                           1973 ; genAssign
                           1974 ; AOP_HL for _hMode
   06B4 21 00 00           1975 	ld	hl,#_hMode + 0
   06B7 36 01              1976 	ld	(hl),#0x01
                           1977 ;	rombank1.c 361
                           1978 ; genAssign
                           1979 ; AOP_SFR for _NR21_REG
   06B9 3E 3F              1980 	ld	a,#0x3F
   06BB E0 00              1981 	ldh	(_NR21_REG+0),a
                           1982 ;	rombank1.c 362
                           1983 ; genAssign
                           1984 ; AOP_SFR for _NR22_REG
   06BD 3E FF              1985 	ld	a,#0xFF
   06BF E0 00              1986 	ldh	(_NR22_REG+0),a
                           1987 ;	rombank1.c 363
                           1988 ; genAssign
                           1989 ; AOP_SFR for _NR23_REG
   06C1 3E 35              1990 	ld	a,#0x35
   06C3 E0 00              1991 	ldh	(_NR23_REG+0),a
                           1992 ;	rombank1.c 364
                           1993 ; genAssign
                           1994 ; AOP_SFR for _NR24_REG
   06C5 3E 86              1995 	ld	a,#0x86
   06C7 E0 00              1996 	ldh	(_NR24_REG+0),a
                           1997 ;	rombank1.c 365
                           1998 ; genCall
   06C9 CD 00 00           1999 	call	_wait_vbl_done
                           2000 ;	rombank1.c 366
                           2001 ; genCall
   06CC CD 00 00           2002 	call	_wait_vbl_done
                           2003 ;	rombank1.c 368
                           2004 ; genAssign
                           2005 ; AOP_SFR for _NR23_REG
   06CF 3E 85              2006 	ld	a,#0x85
   06D1 E0 00              2007 	ldh	(_NR23_REG+0),a
                           2008 ;	rombank1.c 369
                           2009 ; genCall
   06D3 CD 00 00           2010 	call	_wait_vbl_done
                           2011 ;	rombank1.c 370
                           2012 ; genCall
   06D6 CD 00 00           2013 	call	_wait_vbl_done
                           2014 ;	rombank1.c 372
                           2015 ; genAssign
                           2016 ; AOP_SFR for _NR23_REG
   06D9 3E F5              2017 	ld	a,#0xF5
   06DB E0 00              2018 	ldh	(_NR23_REG+0),a
                           2019 ;	rombank1.c 373
                           2020 ; genCall
   06DD CD 00 00           2021 	call	_wait_vbl_done
                           2022 ;	rombank1.c 374
                           2023 ; genCall
   06E0 CD 00 00           2024 	call	_wait_vbl_done
                           2025 ; genGoto
   06E3 C3 EB 06           2026 	jp	00177$
                           2027 ; genLabel
   06E6                    2028 00171$:
                           2029 ;	rombank1.c 376
                           2030 ; genAssign
                           2031 ; AOP_HL for _m
   06E6 21 00 00           2032 	ld	hl,#_m + 0
   06E9 36 00              2033 	ld	(hl),#0x00
                           2034 ; genLabel
   06EB                    2035 00177$:
                           2036 ;	rombank1.c 381
                           2037 ; genIfx
                           2038 ; Removed redundent or a,a
   06EB AF                 2039 	xor	a,a
   06EC B1                 2040 	or	a,c
   06ED C2 54 07           2041 	jp	nz,00182$
                           2042 ;	rombank1.c 383
                           2043 ; genCall
   06F0 CD 00 00           2044 	call	_joypad
   06F3 4B                 2045 	ld	c,e
                           2046 ; genAnd
   06F4 79                 2047 	ld	a,c
   06F5 CB 57              2048 	bit	2,a
   06F7 CA 54 07           2049 	jp	z,00182$
                           2050 ;	rombank1.c 384
                           2051 ; genAssign
                           2052 ; AOP_HL for _menuY
   06FA 21 00 00           2053 	ld	hl,#_menuY + 0
   06FD 36 50              2054 	ld	(hl),#0x50
                           2055 ;	rombank1.c 385
                           2056 ; genIpush
   06FF 3E 50              2057 	ld	a,#0x50
   0701 F5                 2058 	push	af
   0702 33                 2059 	inc	sp
                           2060 ; genIpush
                           2061 ; AOP_HL for _menuX
   0703 21 00 00           2062 	ld	hl,#_menuX + 0
   0706 7E                 2063 	ld	a,(hl)
   0707 F5                 2064 	push	af
   0708 33                 2065 	inc	sp
                           2066 ; genIpush
   0709 3E 00              2067 	ld	a,#0x00
   070B F5                 2068 	push	af
   070C 33                 2069 	inc	sp
                           2070 ; genCall
   070D CD 00 00           2071 	call	_move_sprite
   0710 E8 03              2072 	lda	sp,3(sp)
                           2073 ;	rombank1.c 386
                           2074 ; genPlus
                           2075 ; AOP_HL for _menuX
                           2076 ; genPlusIncr
   0712 21 00 00           2077 	ld	hl,#_menuX + 0
   0715 7E                 2078 	ld	a,(hl)
   0716 C6 08              2079 	add	a,#0x08
   0718 4F                 2080 	ld	c,a
                           2081 ; genIpush
                           2082 ; AOP_HL for _menuY
   0719 21 00 00           2083 	ld	hl,#_menuY + 0
   071C 7E                 2084 	ld	a,(hl)
   071D F5                 2085 	push	af
   071E 33                 2086 	inc	sp
                           2087 ; genIpush
   071F 79                 2088 	ld	a,c
   0720 F5                 2089 	push	af
   0721 33                 2090 	inc	sp
                           2091 ; genIpush
   0722 3E 01              2092 	ld	a,#0x01
   0724 F5                 2093 	push	af
   0725 33                 2094 	inc	sp
                           2095 ; genCall
   0726 CD 00 00           2096 	call	_move_sprite
   0729 E8 03              2097 	lda	sp,3(sp)
                           2098 ;	rombank1.c 387
                           2099 ; genAssign
                           2100 ; AOP_SFR for _NR21_REG
   072B 3E 3F              2101 	ld	a,#0x3F
   072D E0 00              2102 	ldh	(_NR21_REG+0),a
                           2103 ;	rombank1.c 388
                           2104 ; genAssign
                           2105 ; AOP_SFR for _NR22_REG
   072F 3E FF              2106 	ld	a,#0xFF
   0731 E0 00              2107 	ldh	(_NR22_REG+0),a
                           2108 ;	rombank1.c 389
                           2109 ; genAssign
                           2110 ; AOP_SFR for _NR23_REG
   0733 3E 35              2111 	ld	a,#0x35
   0735 E0 00              2112 	ldh	(_NR23_REG+0),a
                           2113 ;	rombank1.c 390
                           2114 ; genAssign
                           2115 ; AOP_SFR for _NR24_REG
   0737 3E 84              2116 	ld	a,#0x84
   0739 E0 00              2117 	ldh	(_NR24_REG+0),a
                           2118 ;	rombank1.c 391
                           2119 ; genCall
   073B CD 00 00           2120 	call	_wait_vbl_done
                           2121 ;	rombank1.c 393
                           2122 ; genAssign
                           2123 ; AOP_SFR for _NR21_REG
   073E 3E 3F              2124 	ld	a,#0x3F
   0740 E0 00              2125 	ldh	(_NR21_REG+0),a
                           2126 ;	rombank1.c 394
                           2127 ; genAssign
                           2128 ; AOP_SFR for _NR22_REG
   0742 3E FF              2129 	ld	a,#0xFF
   0744 E0 00              2130 	ldh	(_NR22_REG+0),a
                           2131 ;	rombank1.c 395
                           2132 ; genAssign
                           2133 ; AOP_SFR for _NR23_REG
   0746 3E 55              2134 	ld	a,#0x55
   0748 E0 00              2135 	ldh	(_NR23_REG+0),a
                           2136 ;	rombank1.c 396
                           2137 ; genAssign
                           2138 ; AOP_SFR for _NR24_REG
   074A 3E 84              2139 	ld	a,#0x84
   074C E0 00              2140 	ldh	(_NR24_REG+0),a
                           2141 ;	rombank1.c 397
                           2142 ; genCall
   074E CD 00 00           2143 	call	_wait_vbl_done
                           2144 ;	rombank1.c 398
                           2145 ; genCall
   0751 CD 00 00           2146 	call	_stopAllSounds
                           2147 ; genLabel
   0754                    2148 00182$:
                           2149 ;	rombank1.c 402
                           2150 ; genIfx
                           2151 ; AOP_STK for _updateGame_sloc0_1_0
   0754 AF                 2152 	xor	a,a
   0755 F8 00              2153 	lda	hl,0(sp)
   0757 B6                 2154 	or	a,(hl)
   0758 B7                 2155 	or	a,a
   0759 C2 C0 07           2156 	jp	nz,00187$
                           2157 ;	rombank1.c 404
                           2158 ; genCall
   075C CD 00 00           2159 	call	_joypad
   075F 4B                 2160 	ld	c,e
                           2161 ; genAnd
   0760 79                 2162 	ld	a,c
   0761 CB 5F              2163 	bit	3,a
   0763 CA C0 07           2164 	jp	z,00187$
                           2165 ;	rombank1.c 405
                           2166 ; genAssign
                           2167 ; AOP_HL for _menuY
   0766 21 00 00           2168 	ld	hl,#_menuY + 0
   0769 36 60              2169 	ld	(hl),#0x60
                           2170 ;	rombank1.c 406
                           2171 ; genIpush
   076B 3E 60              2172 	ld	a,#0x60
   076D F5                 2173 	push	af
   076E 33                 2174 	inc	sp
                           2175 ; genIpush
                           2176 ; AOP_HL for _menuX
   076F 21 00 00           2177 	ld	hl,#_menuX + 0
   0772 7E                 2178 	ld	a,(hl)
   0773 F5                 2179 	push	af
   0774 33                 2180 	inc	sp
                           2181 ; genIpush
   0775 3E 00              2182 	ld	a,#0x00
   0777 F5                 2183 	push	af
   0778 33                 2184 	inc	sp
                           2185 ; genCall
   0779 CD 00 00           2186 	call	_move_sprite
   077C E8 03              2187 	lda	sp,3(sp)
                           2188 ;	rombank1.c 407
                           2189 ; genPlus
                           2190 ; AOP_HL for _menuX
                           2191 ; genPlusIncr
   077E 21 00 00           2192 	ld	hl,#_menuX + 0
   0781 7E                 2193 	ld	a,(hl)
   0782 C6 08              2194 	add	a,#0x08
   0784 4F                 2195 	ld	c,a
                           2196 ; genIpush
                           2197 ; AOP_HL for _menuY
   0785 21 00 00           2198 	ld	hl,#_menuY + 0
   0788 7E                 2199 	ld	a,(hl)
   0789 F5                 2200 	push	af
   078A 33                 2201 	inc	sp
                           2202 ; genIpush
   078B 79                 2203 	ld	a,c
   078C F5                 2204 	push	af
   078D 33                 2205 	inc	sp
                           2206 ; genIpush
   078E 3E 01              2207 	ld	a,#0x01
   0790 F5                 2208 	push	af
   0791 33                 2209 	inc	sp
                           2210 ; genCall
   0792 CD 00 00           2211 	call	_move_sprite
   0795 E8 03              2212 	lda	sp,3(sp)
                           2213 ;	rombank1.c 408
                           2214 ; genAssign
                           2215 ; AOP_SFR for _NR21_REG
   0797 3E 3F              2216 	ld	a,#0x3F
   0799 E0 00              2217 	ldh	(_NR21_REG+0),a
                           2218 ;	rombank1.c 409
                           2219 ; genAssign
                           2220 ; AOP_SFR for _NR22_REG
   079B 3E FF              2221 	ld	a,#0xFF
   079D E0 00              2222 	ldh	(_NR22_REG+0),a
                           2223 ;	rombank1.c 410
                           2224 ; genAssign
                           2225 ; AOP_SFR for _NR23_REG
   079F 3E 35              2226 	ld	a,#0x35
   07A1 E0 00              2227 	ldh	(_NR23_REG+0),a
                           2228 ;	rombank1.c 411
                           2229 ; genAssign
                           2230 ; AOP_SFR for _NR24_REG
   07A3 3E 84              2231 	ld	a,#0x84
   07A5 E0 00              2232 	ldh	(_NR24_REG+0),a
                           2233 ;	rombank1.c 412
                           2234 ; genCall
   07A7 CD 00 00           2235 	call	_wait_vbl_done
                           2236 ;	rombank1.c 414
                           2237 ; genAssign
                           2238 ; AOP_SFR for _NR21_REG
   07AA 3E 3F              2239 	ld	a,#0x3F
   07AC E0 00              2240 	ldh	(_NR21_REG+0),a
                           2241 ;	rombank1.c 415
                           2242 ; genAssign
                           2243 ; AOP_SFR for _NR22_REG
   07AE 3E FF              2244 	ld	a,#0xFF
   07B0 E0 00              2245 	ldh	(_NR22_REG+0),a
                           2246 ;	rombank1.c 416
                           2247 ; genAssign
                           2248 ; AOP_SFR for _NR23_REG
   07B2 3E 55              2249 	ld	a,#0x55
   07B4 E0 00              2250 	ldh	(_NR23_REG+0),a
                           2251 ;	rombank1.c 417
                           2252 ; genAssign
                           2253 ; AOP_SFR for _NR24_REG
   07B6 3E 84              2254 	ld	a,#0x84
   07B8 E0 00              2255 	ldh	(_NR24_REG+0),a
                           2256 ;	rombank1.c 418
                           2257 ; genCall
   07BA CD 00 00           2258 	call	_wait_vbl_done
                           2259 ;	rombank1.c 419
                           2260 ; genCall
   07BD CD 00 00           2261 	call	_stopAllSounds
                           2262 ; genLabel
   07C0                    2263 00187$:
                           2264 ;	rombank1.c 424
                           2265 ; genCall
   07C0 CD 00 00           2266 	call	_joypad
   07C3 4B                 2267 	ld	c,e
                           2268 ; genAnd
   07C4 79                 2269 	ld	a,c
   07C5 CB 67              2270 	bit	4,a
   07C7 CA 66 08           2271 	jp	z,00192$
                           2272 ;	rombank1.c 425
                           2273 ; genAssign
                           2274 ; AOP_SFR for _NR21_REG
   07CA 3E 3F              2275 	ld	a,#0x3F
   07CC E0 00              2276 	ldh	(_NR21_REG+0),a
                           2277 ;	rombank1.c 426
                           2278 ; genAssign
                           2279 ; AOP_SFR for _NR22_REG
   07CE 3E FF              2280 	ld	a,#0xFF
   07D0 E0 00              2281 	ldh	(_NR22_REG+0),a
                           2282 ;	rombank1.c 427
                           2283 ; genAssign
                           2284 ; AOP_SFR for _NR23_REG
   07D2 3E 35              2285 	ld	a,#0x35
   07D4 E0 00              2286 	ldh	(_NR23_REG+0),a
                           2287 ;	rombank1.c 428
                           2288 ; genAssign
                           2289 ; AOP_SFR for _NR24_REG
   07D6 3E 84              2290 	ld	a,#0x84
   07D8 E0 00              2291 	ldh	(_NR24_REG+0),a
                           2292 ;	rombank1.c 429
                           2293 ; genCall
   07DA CD 00 00           2294 	call	_wait_vbl_done
                           2295 ;	rombank1.c 430
                           2296 ; genCall
   07DD CD 00 00           2297 	call	_wait_vbl_done
                           2298 ;	rombank1.c 432
                           2299 ; genAssign
                           2300 ; AOP_SFR for _NR23_REG
   07E0 3E 85              2301 	ld	a,#0x85
   07E2 E0 00              2302 	ldh	(_NR23_REG+0),a
                           2303 ;	rombank1.c 433
                           2304 ; genCall
   07E4 CD 00 00           2305 	call	_wait_vbl_done
                           2306 ;	rombank1.c 434
                           2307 ; genCall
   07E7 CD 00 00           2308 	call	_wait_vbl_done
                           2309 ;	rombank1.c 436
                           2310 ; genAssign
                           2311 ; AOP_SFR for _NR23_REG
   07EA 3E F5              2312 	ld	a,#0xF5
   07EC E0 00              2313 	ldh	(_NR23_REG+0),a
                           2314 ;	rombank1.c 437
                           2315 ; genCall
   07EE CD 00 00           2316 	call	_wait_vbl_done
                           2317 ;	rombank1.c 438
                           2318 ; genCall
   07F1 CD 00 00           2319 	call	_wait_vbl_done
                           2320 ;	rombank1.c 439
                           2321 ; genCall
   07F4 CD 00 00           2322 	call	_stopAllSounds
                           2323 ;	rombank1.c 441
                           2324 ; genCmpEq
                           2325 ; AOP_HL for _menuY
   07F7 21 00 00           2326 	ld	hl,#_menuY + 0
   07FA 7E                 2327 	ld	a,(hl) ; 2
   07FB FE 60              2328 	cp	a,#0x60
   07FD C2 02 08           2329 	jp	nz,00374$
   0800 18 03              2330 	jr	00375$
   0802                    2331 00374$:
   0802 C3 10 08           2332 	jp	00189$
   0805                    2333 00375$:
                           2334 ;	rombank1.c 442
                           2335 ; genAssign
                           2336 ; AOP_HL for _level
                           2337 ; AOP_HL for _maxLevel
   0805 21 00 00           2338 	ld	hl,#_level + 0
   0808 7E                 2339 	ld	a,(hl)
   0809 21 00 00           2340 	ld	hl,#_maxLevel + 0
   080C 77                 2341 	ld	(hl),a
                           2342 ; genGoto
   080D C3 15 08           2343 	jp	00190$
                           2344 ; genLabel
   0810                    2345 00189$:
                           2346 ;	rombank1.c 444
                           2347 ; genAssign
                           2348 ; AOP_HL for _maxLevel
   0810 21 00 00           2349 	ld	hl,#_maxLevel + 0
   0813 36 00              2350 	ld	(hl),#0x00
                           2351 ; genLabel
   0815                    2352 00190$:
                           2353 ;	rombank1.c 447
                           2354 ; genAssign
                           2355 ; AOP_HL for _newBank
   0815 21 00 00           2356 	ld	hl,#_newBank + 0
   0818 36 02              2357 	ld	(hl),#0x02
                           2358 ;	rombank1.c 448
                           2359 ; genAssign
                           2360 ; AOP_HL for _initBank
   081A 21 00 00           2361 	ld	hl,#_initBank + 0
   081D 36 01              2362 	ld	(hl),#0x01
                           2363 ;	rombank1.c 449
                           2364 ; genAssign
                           2365 ; AOP_HL for _scene
   081F 21 00 00           2366 	ld	hl,#_scene + 0
   0822 36 02              2367 	ld	(hl),#0x02
                           2368 ;	rombank1.c 450
                           2369 ; genIpush
   0824 3E 0A              2370 	ld	a,#0x0A
   0826 F5                 2371 	push	af
   0827 33                 2372 	inc	sp
                           2373 ; genCall
   0828 CD 00 00           2374 	call	_fadeOutBkg
   082B E8 01              2375 	lda	sp,1(sp)
                           2376 ;	rombank1.c 451
                           2377 ; genIpush
   082D 3E 0A              2378 	ld	a,#0x0A
   082F F5                 2379 	push	af
   0830 33                 2380 	inc	sp
                           2381 ; genCall
   0831 CD 00 00           2382 	call	_fadeOutSprites
   0834 E8 01              2383 	lda	sp,1(sp)
                           2384 ;	rombank1.c 452
                           2385 ; genAssign
                           2386 ; AOP_HL for _i
   0836 21 00 00           2387 	ld	hl,#_i + 0
   0839 36 00              2388 	ld	(hl),#0x00
                           2389 ; genLabel
   083B                    2390 00253$:
                           2391 ; genCmpEq
                           2392 ; AOP_HL for _i
   083B 21 00 00           2393 	ld	hl,#_i + 0
   083E 7E                 2394 	ld	a,(hl) ; 2
   083F FE 20              2395 	cp	a,#0x20
                           2396 ; Rule 5
   0841 CA 66 08           2397 	jp	z,00192$
   0844                    2398 00376$:
                           2399 ;	rombank1.c 453
                           2400 ; genIpush
   0844 21 00 00           2401 	ld	hl,#_fullRow + 0
   0847 E5                 2402 	push	hl
                           2403 ; genIpush
   0848 3E 01              2404 	ld	a,#0x01
   084A F5                 2405 	push	af
   084B 33                 2406 	inc	sp
                           2407 ; genIpush
   084C 3E 14              2408 	ld	a,#0x14
   084E F5                 2409 	push	af
   084F 33                 2410 	inc	sp
                           2411 ; genIpush
                           2412 ; AOP_HL for _i
   0850 21 00 00           2413 	ld	hl,#_i + 0
   0853 7E                 2414 	ld	a,(hl)
   0854 F5                 2415 	push	af
   0855 33                 2416 	inc	sp
                           2417 ; genIpush
   0856 3E 00              2418 	ld	a,#0x00
   0858 F5                 2419 	push	af
   0859 33                 2420 	inc	sp
                           2421 ; genCall
   085A CD 00 00           2422 	call	_set_bkg_tiles
   085D E8 06              2423 	lda	sp,6(sp)
                           2424 ;	rombank1.c 452
                           2425 ; genPlus
                           2426 ; AOP_HL for _i
                           2427 ; genPlusIncr
   085F 21 00 00           2428 	ld	hl,#_i + 0
   0862 34                 2429 	inc	(hl)
                           2430 ; genGoto
   0863 C3 3B 08           2431 	jp	00253$
                           2432 ; genLabel
   0866                    2433 00192$:
                           2434 ;	rombank1.c 456
                           2435 ; genOr
                           2436 ; AOP_SFR for _LCDC_REG
                           2437 ; Type res[4] = l[4]&r[1]
                           2438 ; Size res[1] = l[1]&r[1]
   0866 F0 00              2439 	ldh	a,(_LCDC_REG+0) ; x
   0868 F6 01              2440 	or	a,#0x01
   086A E0 00              2441 	ldh	(_LCDC_REG+0),a
                           2442 ;	rombank1.c 457
                           2443 ; genOr
                           2444 ; AOP_SFR for _LCDC_REG
                           2445 ; Type res[4] = l[4]&r[1]
                           2446 ; Size res[1] = l[1]&r[1]
   086C F0 00              2447 	ldh	a,(_LCDC_REG+0) ; x
   086E F6 02              2448 	or	a,#0x02
   0870 E0 00              2449 	ldh	(_LCDC_REG+0),a
                           2450 ;	rombank1.c 458
                           2451 ; genAnd
                           2452 ; AOP_SFR for _LCDC_REG
   0872 F0 00              2453 	ldh	a,(_LCDC_REG+0) ; x
   0874 E6 DF              2454 	and	a,#0xDF
   0876 E0 00              2455 	ldh	(_LCDC_REG+0),a
                           2456 ;	rombank1.c 461
                           2457 ; genLabel
   0878                    2458 00257$:
                           2459 ; genEndFunction
   0878 E8 01              2460 	lda	sp,1(sp)
   087A C1                 2461 	pop bc
   087B C9                 2462 	ret
   087C                    2463 ___updateGame_end:
                           2464 	.area _CODE_1
   087C                    2465 _preTitleScreen:
   087C 3F                 2466 	.db #0x3F
   087D 3F                 2467 	.db #0x3F
   087E 3F                 2468 	.db #0x3F
   087F 20                 2469 	.db #0x20
   0880 20                 2470 	.db #0x20
   0881 20                 2471 	.db #0x20
   0882 20                 2472 	.db #0x20
   0883 20                 2473 	.db #0x20
   0884 3F                 2474 	.db #0x3F
   0885 3F                 2475 	.db #0x3F
   0886 3F                 2476 	.db #0x3F
   0887 20                 2477 	.db #0x20
   0888 20                 2478 	.db #0x20
   0889 20                 2479 	.db #0x20
   088A 20                 2480 	.db #0x20
   088B 20                 2481 	.db #0x20
   088C DF                 2482 	.db #0xDF
   088D DF                 2483 	.db #0xDF
   088E DF                 2484 	.db #0xDF
   088F 50                 2485 	.db #0x50
   0890 50                 2486 	.db #0x50
   0891 50                 2487 	.db #0x50
   0892 50                 2488 	.db #0x50
   0893 50                 2489 	.db #0x50
   0894 DF                 2490 	.db #0xDF
   0895 DF                 2491 	.db #0xDF
   0896 DF                 2492 	.db #0xDF
   0897 90                 2493 	.db #0x90
   0898 90                 2494 	.db #0x90
   0899 90                 2495 	.db #0x90
   089A DF                 2496 	.db #0xDF
   089B DF                 2497 	.db #0xDF
   089C FF                 2498 	.db #0xFF
   089D FF                 2499 	.db #0xFF
   089E FF                 2500 	.db #0xFF
   089F 10                 2501 	.db #0x10
   08A0 10                 2502 	.db #0x10
   08A1 10                 2503 	.db #0x10
   08A2 10                 2504 	.db #0x10
   08A3 10                 2505 	.db #0x10
   08A4 FF                 2506 	.db #0xFF
   08A5 FF                 2507 	.db #0xFF
   08A6 FF                 2508 	.db #0xFF
   08A7 10                 2509 	.db #0x10
   08A8 10                 2510 	.db #0x10
   08A9 10                 2511 	.db #0x10
   08AA F0                 2512 	.db #0xF0
   08AB F0                 2513 	.db #0xF0
   08AC EF                 2514 	.db #0xEF
   08AD EF                 2515 	.db #0xEF
   08AE EF                 2516 	.db #0xEF
   08AF 08                 2517 	.db #0x08
   08B0 08                 2518 	.db #0x08
   08B1 08                 2519 	.db #0x08
   08B2 08                 2520 	.db #0x08
   08B3 08                 2521 	.db #0x08
   08B4 EF                 2522 	.db #0xEF
   08B5 EF                 2523 	.db #0xEF
   08B6 EF                 2524 	.db #0xEF
   08B7 08                 2525 	.db #0x08
   08B8 08                 2526 	.db #0x08
   08B9 08                 2527 	.db #0x08
   08BA 08                 2528 	.db #0x08
   08BB 08                 2529 	.db #0x08
   08BC F7                 2530 	.db #0xF7
   08BD F7                 2531 	.db #0xF7
   08BE F7                 2532 	.db #0xF7
   08BF 14                 2533 	.db #0x14
   08C0 14                 2534 	.db #0x14
   08C1 14                 2535 	.db #0x14
   08C2 14                 2536 	.db #0x14
   08C3 14                 2537 	.db #0x14
   08C4 F7                 2538 	.db #0xF7
   08C5 F7                 2539 	.db #0xF7
   08C6 F7                 2540 	.db #0xF7
   08C7 24                 2541 	.db #0x24
   08C8 24                 2542 	.db #0x24
   08C9 24                 2543 	.db #0x24
   08CA 37                 2544 	.db #0x37
   08CB 37                 2545 	.db #0x37
   08CC FF                 2546 	.db #0xFF
   08CD FF                 2547 	.db #0xFF
   08CE FF                 2548 	.db #0xFF
   08CF 04                 2549 	.db #0x04
   08D0 04                 2550 	.db #0x04
   08D1 04                 2551 	.db #0x04
   08D2 04                 2552 	.db #0x04
   08D3 04                 2553 	.db #0x04
   08D4 FF                 2554 	.db #0xFF
   08D5 FF                 2555 	.db #0xFF
   08D6 FF                 2556 	.db #0xFF
   08D7 00                 2557 	.db #0x00
   08D8 00                 2558 	.db #0x00
   08D9 00                 2559 	.db #0x00
   08DA FF                 2560 	.db #0xFF
   08DB FF                 2561 	.db #0xFF
   08DC FA                 2562 	.db #0xFA
   08DD FA                 2563 	.db #0xFA
   08DE FA                 2564 	.db #0xFA
   08DF 02                 2565 	.db #0x02
   08E0 02                 2566 	.db #0x02
   08E1 02                 2567 	.db #0x02
   08E2 02                 2568 	.db #0x02
   08E3 02                 2569 	.db #0x02
   08E4 FB                 2570 	.db #0xFB
   08E5 FB                 2571 	.db #0xFB
   08E6 FB                 2572 	.db #0xFB
   08E7 0A                 2573 	.db #0x0A
   08E8 0A                 2574 	.db #0x0A
   08E9 0A                 2575 	.db #0x0A
   08EA FA                 2576 	.db #0xFA
   08EB FA                 2577 	.db #0xFA
   08EC 04                 2578 	.db #0x04
   08ED 04                 2579 	.db #0x04
   08EE 04                 2580 	.db #0x04
   08EF 04                 2581 	.db #0x04
   08F0 04                 2582 	.db #0x04
   08F1 04                 2583 	.db #0x04
   08F2 04                 2584 	.db #0x04
   08F3 04                 2585 	.db #0x04
   08F4 FC                 2586 	.db #0xFC
   08F5 FC                 2587 	.db #0xFC
   08F6 FC                 2588 	.db #0xFC
   08F7 04                 2589 	.db #0x04
   08F8 04                 2590 	.db #0x04
   08F9 04                 2591 	.db #0x04
   08FA 04                 2592 	.db #0x04
   08FB 04                 2593 	.db #0x04
   08FC 00                 2594 	.db #0x00
   08FD 00                 2595 	.db #0x00
   08FE 00                 2596 	.db #0x00
   08FF 00                 2597 	.db #0x00
   0900 07                 2598 	.db #0x07
   0901 07                 2599 	.db #0x07
   0902 07                 2600 	.db #0x07
   0903 07                 2601 	.db #0x07
   0904 07                 2602 	.db #0x07
   0905 06                 2603 	.db #0x06
   0906 06                 2604 	.db #0x06
   0907 06                 2605 	.db #0x06
   0908 06                 2606 	.db #0x06
   0909 06                 2607 	.db #0x06
   090A 06                 2608 	.db #0x06
   090B 06                 2609 	.db #0x06
   090C 20                 2610 	.db #0x20
   090D 00                 2611 	.db #0x00
   090E 00                 2612 	.db #0x00
   090F 00                 2613 	.db #0x00
   0910 FF                 2614 	.db #0xFF
   0911 FF                 2615 	.db #0xFF
   0912 FF                 2616 	.db #0xFF
   0913 FF                 2617 	.db #0xFF
   0914 FF                 2618 	.db #0xFF
   0915 00                 2619 	.db #0x00
   0916 00                 2620 	.db #0x00
   0917 00                 2621 	.db #0x00
   0918 00                 2622 	.db #0x00
   0919 00                 2623 	.db #0x00
   091A 00                 2624 	.db #0x00
   091B 00                 2625 	.db #0x00
   091C DF                 2626 	.db #0xDF
   091D 00                 2627 	.db #0x00
   091E 00                 2628 	.db #0x00
   091F 00                 2629 	.db #0x00
   0920 CF                 2630 	.db #0xCF
   0921 CF                 2631 	.db #0xCF
   0922 CF                 2632 	.db #0xCF
   0923 CF                 2633 	.db #0xCF
   0924 CF                 2634 	.db #0xCF
   0925 0C                 2635 	.db #0x0C
   0926 0C                 2636 	.db #0x0C
   0927 0C                 2637 	.db #0x0C
   0928 0C                 2638 	.db #0x0C
   0929 0C                 2639 	.db #0x0C
   092A 0C                 2640 	.db #0x0C
   092B 0C                 2641 	.db #0x0C
   092C F0                 2642 	.db #0xF0
   092D 00                 2643 	.db #0x00
   092E 00                 2644 	.db #0x00
   092F 00                 2645 	.db #0x00
   0930 FF                 2646 	.db #0xFF
   0931 FF                 2647 	.db #0xFF
   0932 FF                 2648 	.db #0xFF
   0933 FF                 2649 	.db #0xFF
   0934 FF                 2650 	.db #0xFF
   0935 01                 2651 	.db #0x01
   0936 01                 2652 	.db #0x01
   0937 01                 2653 	.db #0x01
   0938 01                 2654 	.db #0x01
   0939 01                 2655 	.db #0x01
   093A 01                 2656 	.db #0x01
   093B 01                 2657 	.db #0x01
   093C 08                 2658 	.db #0x08
   093D 00                 2659 	.db #0x00
   093E 00                 2660 	.db #0x00
   093F 00                 2661 	.db #0x00
   0940 BF                 2662 	.db #0xBF
   0941 BF                 2663 	.db #0xBF
   0942 BF                 2664 	.db #0xBF
   0943 BF                 2665 	.db #0xBF
   0944 BF                 2666 	.db #0xBF
   0945 B1                 2667 	.db #0xB1
   0946 B1                 2668 	.db #0xB1
   0947 B1                 2669 	.db #0xB1
   0948 B1                 2670 	.db #0xB1
   0949 B1                 2671 	.db #0xB1
   094A B1                 2672 	.db #0xB1
   094B B1                 2673 	.db #0xB1
   094C 37                 2674 	.db #0x37
   094D 00                 2675 	.db #0x00
   094E 00                 2676 	.db #0x00
   094F 00                 2677 	.db #0x00
   0950 FC                 2678 	.db #0xFC
   0951 FC                 2679 	.db #0xFC
   0952 FC                 2680 	.db #0xFC
   0953 FC                 2681 	.db #0xFC
   0954 FC                 2682 	.db #0xFC
   0955 8C                 2683 	.db #0x8C
   0956 8C                 2684 	.db #0x8C
   0957 8C                 2685 	.db #0x8C
   0958 8C                 2686 	.db #0x8C
   0959 8C                 2687 	.db #0x8C
   095A 8C                 2688 	.db #0x8C
   095B 8C                 2689 	.db #0x8C
   095C FF                 2690 	.db #0xFF
   095D 00                 2691 	.db #0x00
   095E 00                 2692 	.db #0x00
   095F 00                 2693 	.db #0x00
   0960 7F                 2694 	.db #0x7F
   0961 7F                 2695 	.db #0x7F
   0962 7F                 2696 	.db #0x7F
   0963 7F                 2697 	.db #0x7F
   0964 7F                 2698 	.db #0x7F
   0965 60                 2699 	.db #0x60
   0966 60                 2700 	.db #0x60
   0967 60                 2701 	.db #0x60
   0968 60                 2702 	.db #0x60
   0969 60                 2703 	.db #0x60
   096A 60                 2704 	.db #0x60
   096B 60                 2705 	.db #0x60
   096C FA                 2706 	.db #0xFA
   096D 00                 2707 	.db #0x00
   096E 00                 2708 	.db #0x00
   096F 00                 2709 	.db #0x00
   0970 FD                 2710 	.db #0xFD
   0971 FD                 2711 	.db #0xFD
   0972 FD                 2712 	.db #0xFD
   0973 FD                 2713 	.db #0xFD
   0974 FD                 2714 	.db #0xFD
   0975 01                 2715 	.db #0x01
   0976 01                 2716 	.db #0x01
   0977 01                 2717 	.db #0x01
   0978 01                 2718 	.db #0x01
   0979 01                 2719 	.db #0x01
   097A 01                 2720 	.db #0x01
   097B 01                 2721 	.db #0x01
   097C 04                 2722 	.db #0x04
   097D 00                 2723 	.db #0x00
   097E 00                 2724 	.db #0x00
   097F 00                 2725 	.db #0x00
   0980 FF                 2726 	.db #0xFF
   0981 FF                 2727 	.db #0xFF
   0982 FF                 2728 	.db #0xFF
   0983 FF                 2729 	.db #0xFF
   0984 FF                 2730 	.db #0xFF
   0985 80                 2731 	.db #0x80
   0986 80                 2732 	.db #0x80
   0987 80                 2733 	.db #0x80
   0988 80                 2734 	.db #0x80
   0989 80                 2735 	.db #0x80
   098A 80                 2736 	.db #0x80
   098B 80                 2737 	.db #0x80
   098C 00                 2738 	.db #0x00
   098D 00                 2739 	.db #0x00
   098E 00                 2740 	.db #0x00
   098F 00                 2741 	.db #0x00
   0990 F0                 2742 	.db #0xF0
   0991 F0                 2743 	.db #0xF0
   0992 F0                 2744 	.db #0xF0
   0993 F0                 2745 	.db #0xF0
   0994 F0                 2746 	.db #0xF0
   0995 00                 2747 	.db #0x00
   0996 00                 2748 	.db #0x00
   0997 00                 2749 	.db #0x00
   0998 00                 2750 	.db #0x00
   0999 00                 2751 	.db #0x00
   099A 00                 2752 	.db #0x00
   099B 00                 2753 	.db #0x00
   099C 06                 2754 	.db #0x06
   099D 06                 2755 	.db #0x06
   099E 06                 2756 	.db #0x06
   099F 06                 2757 	.db #0x06
   09A0 06                 2758 	.db #0x06
   09A1 06                 2759 	.db #0x06
   09A2 06                 2760 	.db #0x06
   09A3 06                 2761 	.db #0x06
   09A4 06                 2762 	.db #0x06
   09A5 06                 2763 	.db #0x06
   09A6 07                 2764 	.db #0x07
   09A7 07                 2765 	.db #0x07
   09A8 07                 2766 	.db #0x07
   09A9 07                 2767 	.db #0x07
   09AA 07                 2768 	.db #0x07
   09AB 00                 2769 	.db #0x00
   09AC 3F                 2770 	.db #0x3F
   09AD 3F                 2771 	.db #0x3F
   09AE 3F                 2772 	.db #0x3F
   09AF 3F                 2773 	.db #0x3F
   09B0 3F                 2774 	.db #0x3F
   09B1 00                 2775 	.db #0x00
   09B2 00                 2776 	.db #0x00
   09B3 00                 2777 	.db #0x00
   09B4 00                 2778 	.db #0x00
   09B5 00                 2779 	.db #0x00
   09B6 FF                 2780 	.db #0xFF
   09B7 FF                 2781 	.db #0xFF
   09B8 FF                 2782 	.db #0xFF
   09B9 FF                 2783 	.db #0xFF
   09BA FF                 2784 	.db #0xFF
   09BB 00                 2785 	.db #0x00
   09BC CF                 2786 	.db #0xCF
   09BD CF                 2787 	.db #0xCF
   09BE CF                 2788 	.db #0xCF
   09BF CF                 2789 	.db #0xCF
   09C0 CF                 2790 	.db #0xCF
   09C1 CC                 2791 	.db #0xCC
   09C2 CC                 2792 	.db #0xCC
   09C3 CC                 2793 	.db #0xCC
   09C4 CC                 2794 	.db #0xCC
   09C5 CC                 2795 	.db #0xCC
   09C6 CC                 2796 	.db #0xCC
   09C7 CC                 2797 	.db #0xCC
   09C8 CC                 2798 	.db #0xCC
   09C9 CC                 2799 	.db #0xCC
   09CA CC                 2800 	.db #0xCC
   09CB 00                 2801 	.db #0x00
   09CC FF                 2802 	.db #0xFF
   09CD FF                 2803 	.db #0xFF
   09CE FF                 2804 	.db #0xFF
   09CF FF                 2805 	.db #0xFF
   09D0 FF                 2806 	.db #0xFF
   09D1 01                 2807 	.db #0x01
   09D2 01                 2808 	.db #0x01
   09D3 01                 2809 	.db #0x01
   09D4 01                 2810 	.db #0x01
   09D5 01                 2811 	.db #0x01
   09D6 01                 2812 	.db #0x01
   09D7 01                 2813 	.db #0x01
   09D8 01                 2814 	.db #0x01
   09D9 01                 2815 	.db #0x01
   09DA 01                 2816 	.db #0x01
   09DB 00                 2817 	.db #0x00
   09DC B1                 2818 	.db #0xB1
   09DD B1                 2819 	.db #0xB1
   09DE B1                 2820 	.db #0xB1
   09DF B1                 2821 	.db #0xB1
   09E0 B1                 2822 	.db #0xB1
   09E1 B1                 2823 	.db #0xB1
   09E2 B1                 2824 	.db #0xB1
   09E3 B1                 2825 	.db #0xB1
   09E4 B1                 2826 	.db #0xB1
   09E5 B1                 2827 	.db #0xB1
   09E6 B1                 2828 	.db #0xB1
   09E7 B1                 2829 	.db #0xB1
   09E8 B1                 2830 	.db #0xB1
   09E9 B1                 2831 	.db #0xB1
   09EA B1                 2832 	.db #0xB1
   09EB 00                 2833 	.db #0x00
   09EC 8C                 2834 	.db #0x8C
   09ED 8C                 2835 	.db #0x8C
   09EE 8C                 2836 	.db #0x8C
   09EF 8C                 2837 	.db #0x8C
   09F0 8C                 2838 	.db #0x8C
   09F1 8C                 2839 	.db #0x8C
   09F2 8C                 2840 	.db #0x8C
   09F3 8C                 2841 	.db #0x8C
   09F4 8C                 2842 	.db #0x8C
   09F5 8C                 2843 	.db #0x8C
   09F6 8C                 2844 	.db #0x8C
   09F7 8C                 2845 	.db #0x8C
   09F8 8C                 2846 	.db #0x8C
   09F9 8C                 2847 	.db #0x8C
   09FA 8C                 2848 	.db #0x8C
   09FB 00                 2849 	.db #0x00
   09FC 7F                 2850 	.db #0x7F
   09FD 7F                 2851 	.db #0x7F
   09FE 7F                 2852 	.db #0x7F
   09FF 7F                 2853 	.db #0x7F
   0A00 7F                 2854 	.db #0x7F
   0A01 60                 2855 	.db #0x60
   0A02 60                 2856 	.db #0x60
   0A03 60                 2857 	.db #0x60
   0A04 60                 2858 	.db #0x60
   0A05 60                 2859 	.db #0x60
   0A06 7F                 2860 	.db #0x7F
   0A07 7F                 2861 	.db #0x7F
   0A08 7F                 2862 	.db #0x7F
   0A09 7F                 2863 	.db #0x7F
   0A0A 7F                 2864 	.db #0x7F
   0A0B 00                 2865 	.db #0x00
   0A0C FD                 2866 	.db #0xFD
   0A0D FD                 2867 	.db #0xFD
   0A0E FD                 2868 	.db #0xFD
   0A0F FD                 2869 	.db #0xFD
   0A10 FD                 2870 	.db #0xFD
   0A11 00                 2871 	.db #0x00
   0A12 00                 2872 	.db #0x00
   0A13 00                 2873 	.db #0x00
   0A14 00                 2874 	.db #0x00
   0A15 00                 2875 	.db #0x00
   0A16 FD                 2876 	.db #0xFD
   0A17 FD                 2877 	.db #0xFD
   0A18 FD                 2878 	.db #0xFD
   0A19 FD                 2879 	.db #0xFD
   0A1A FD                 2880 	.db #0xFD
   0A1B 00                 2881 	.db #0x00
   0A1C FF                 2882 	.db #0xFF
   0A1D FF                 2883 	.db #0xFF
   0A1E FF                 2884 	.db #0xFF
   0A1F FF                 2885 	.db #0xFF
   0A20 FF                 2886 	.db #0xFF
   0A21 00                 2887 	.db #0x00
   0A22 00                 2888 	.db #0x00
   0A23 00                 2889 	.db #0x00
   0A24 00                 2890 	.db #0x00
   0A25 00                 2891 	.db #0x00
   0A26 FF                 2892 	.db #0xFF
   0A27 FF                 2893 	.db #0xFF
   0A28 FF                 2894 	.db #0xFF
   0A29 FF                 2895 	.db #0xFF
   0A2A FF                 2896 	.db #0xFF
   0A2B 00                 2897 	.db #0x00
   0A2C F0                 2898 	.db #0xF0
   0A2D F0                 2899 	.db #0xF0
   0A2E F0                 2900 	.db #0xF0
   0A2F F0                 2901 	.db #0xF0
   0A30 F0                 2902 	.db #0xF0
   0A31 30                 2903 	.db #0x30
   0A32 30                 2904 	.db #0x30
   0A33 30                 2905 	.db #0x30
   0A34 30                 2906 	.db #0x30
   0A35 30                 2907 	.db #0x30
   0A36 F0                 2908 	.db #0xF0
   0A37 F0                 2909 	.db #0xF0
   0A38 F0                 2910 	.db #0xF0
   0A39 F0                 2911 	.db #0xF0
   0A3A F0                 2912 	.db #0xF0
   0A3B 00                 2913 	.db #0x00
   0A3C 00                 2914 	.db #0x00
   0A3D 00                 2915 	.db #0x00
   0A3E 00                 2916 	.db #0x00
   0A3F 00                 2917 	.db #0x00
   0A40 00                 2918 	.db #0x00
   0A41 00                 2919 	.db #0x00
   0A42 00                 2920 	.db #0x00
   0A43 00                 2921 	.db #0x00
   0A44 00                 2922 	.db #0x00
   0A45 00                 2923 	.db #0x00
   0A46 00                 2924 	.db #0x00
   0A47 00                 2925 	.db #0x00
   0A48 00                 2926 	.db #0x00
   0A49 00                 2927 	.db #0x00
   0A4A 03                 2928 	.db #0x03
   0A4B 03                 2929 	.db #0x03
   0A4C 00                 2930 	.db #0x00
   0A4D 00                 2931 	.db #0x00
   0A4E 00                 2932 	.db #0x00
   0A4F 00                 2933 	.db #0x00
   0A50 00                 2934 	.db #0x00
   0A51 00                 2935 	.db #0x00
   0A52 00                 2936 	.db #0x00
   0A53 00                 2937 	.db #0x00
   0A54 02                 2938 	.db #0x02
   0A55 02                 2939 	.db #0x02
   0A56 1F                 2940 	.db #0x1F
   0A57 1F                 2941 	.db #0x1F
   0A58 7F                 2942 	.db #0x7F
   0A59 7F                 2943 	.db #0x7F
   0A5A FF                 2944 	.db #0xFF
   0A5B FF                 2945 	.db #0xFF
   0A5C 00                 2946 	.db #0x00
   0A5D 00                 2947 	.db #0x00
   0A5E 00                 2948 	.db #0x00
   0A5F 00                 2949 	.db #0x00
   0A60 00                 2950 	.db #0x00
   0A61 00                 2951 	.db #0x00
   0A62 00                 2952 	.db #0x00
   0A63 00                 2953 	.db #0x00
   0A64 00                 2954 	.db #0x00
   0A65 00                 2955 	.db #0x00
   0A66 E0                 2956 	.db #0xE0
   0A67 E0                 2957 	.db #0xE0
   0A68 FE                 2958 	.db #0xFE
   0A69 FE                 2959 	.db #0xFE
   0A6A FF                 2960 	.db #0xFF
   0A6B FF                 2961 	.db #0xFF
   0A6C 00                 2962 	.db #0x00
   0A6D 00                 2963 	.db #0x00
   0A6E 00                 2964 	.db #0x00
   0A6F 00                 2965 	.db #0x00
   0A70 00                 2966 	.db #0x00
   0A71 00                 2967 	.db #0x00
   0A72 00                 2968 	.db #0x00
   0A73 00                 2969 	.db #0x00
   0A74 00                 2970 	.db #0x00
   0A75 00                 2971 	.db #0x00
   0A76 00                 2972 	.db #0x00
   0A77 00                 2973 	.db #0x00
   0A78 00                 2974 	.db #0x00
   0A79 00                 2975 	.db #0x00
   0A7A E0                 2976 	.db #0xE0
   0A7B E0                 2977 	.db #0xE0
   0A7C 00                 2978 	.db #0x00
   0A7D 00                 2979 	.db #0x00
   0A7E 00                 2980 	.db #0x00
   0A7F 00                 2981 	.db #0x00
   0A80 00                 2982 	.db #0x00
   0A81 00                 2983 	.db #0x00
   0A82 00                 2984 	.db #0x00
   0A83 00                 2985 	.db #0x00
   0A84 00                 2986 	.db #0x00
   0A85 00                 2987 	.db #0x00
   0A86 03                 2988 	.db #0x03
   0A87 03                 2989 	.db #0x03
   0A88 1F                 2990 	.db #0x1F
   0A89 1F                 2991 	.db #0x1F
   0A8A 7F                 2992 	.db #0x7F
   0A8B 7F                 2993 	.db #0x7F
   0A8C 00                 2994 	.db #0x00
   0A8D 00                 2995 	.db #0x00
   0A8E 00                 2996 	.db #0x00
   0A8F 00                 2997 	.db #0x00
   0A90 03                 2998 	.db #0x03
   0A91 03                 2999 	.db #0x03
   0A92 1F                 3000 	.db #0x1F
   0A93 1F                 3001 	.db #0x1F
   0A94 FF                 3002 	.db #0xFF
   0A95 FF                 3003 	.db #0xFF
   0A96 FF                 3004 	.db #0xFF
   0A97 FF                 3005 	.db #0xFF
   0A98 FF                 3006 	.db #0xFF
   0A99 FF                 3007 	.db #0xFF
   0A9A FF                 3008 	.db #0xFF
   0A9B FF                 3009 	.db #0xFF
   0A9C 1F                 3010 	.db #0x1F
   0A9D 1F                 3011 	.db #0x1F
   0A9E FF                 3012 	.db #0xFF
   0A9F FF                 3013 	.db #0xFF
   0AA0 FF                 3014 	.db #0xFF
   0AA1 FF                 3015 	.db #0xFF
   0AA2 FF                 3016 	.db #0xFF
   0AA3 FF                 3017 	.db #0xFF
   0AA4 FE                 3018 	.db #0xFE
   0AA5 FE                 3019 	.db #0xFE
   0AA6 F8                 3020 	.db #0xF8
   0AA7 F8                 3021 	.db #0xF8
   0AA8 F0                 3022 	.db #0xF0
   0AA9 F0                 3023 	.db #0xF0
   0AAA FC                 3024 	.db #0xFC
   0AAB FC                 3025 	.db #0xFC
   0AAC FE                 3026 	.db #0xFE
   0AAD FE                 3027 	.db #0xFE
   0AAE F8                 3028 	.db #0xF8
   0AAF F8                 3029 	.db #0xF8
   0AB0 E0                 3030 	.db #0xE0
   0AB1 E0                 3031 	.db #0xE0
   0AB2 80                 3032 	.db #0x80
   0AB3 80                 3033 	.db #0x80
   0AB4 00                 3034 	.db #0x00
   0AB5 00                 3035 	.db #0x00
   0AB6 00                 3036 	.db #0x00
   0AB7 00                 3037 	.db #0x00
   0AB8 00                 3038 	.db #0x00
   0AB9 00                 3039 	.db #0x00
   0ABA 00                 3040 	.db #0x00
   0ABB 00                 3041 	.db #0x00
   0ABC 7F                 3042 	.db #0x7F
   0ABD 7F                 3043 	.db #0x7F
   0ABE 07                 3044 	.db #0x07
   0ABF 07                 3045 	.db #0x07
   0AC0 00                 3046 	.db #0x00
   0AC1 00                 3047 	.db #0x00
   0AC2 00                 3048 	.db #0x00
   0AC3 00                 3049 	.db #0x00
   0AC4 00                 3050 	.db #0x00
   0AC5 00                 3051 	.db #0x00
   0AC6 00                 3052 	.db #0x00
   0AC7 00                 3053 	.db #0x00
   0AC8 00                 3054 	.db #0x00
   0AC9 00                 3055 	.db #0x00
   0ACA 00                 3056 	.db #0x00
   0ACB 00                 3057 	.db #0x00
   0ACC FE                 3058 	.db #0xFE
   0ACD FE                 3059 	.db #0xFE
   0ACE FF                 3060 	.db #0xFF
   0ACF FF                 3061 	.db #0xFF
   0AD0 7F                 3062 	.db #0x7F
   0AD1 7F                 3063 	.db #0x7F
   0AD2 0F                 3064 	.db #0x0F
   0AD3 0F                 3065 	.db #0x0F
   0AD4 00                 3066 	.db #0x00
   0AD5 00                 3067 	.db #0x00
   0AD6 00                 3068 	.db #0x00
   0AD7 00                 3069 	.db #0x00
   0AD8 00                 3070 	.db #0x00
   0AD9 00                 3071 	.db #0x00
   0ADA 01                 3072 	.db #0x01
   0ADB 01                 3073 	.db #0x01
   0ADC 00                 3074 	.db #0x00
   0ADD 00                 3075 	.db #0x00
   0ADE E0                 3076 	.db #0xE0
   0ADF E0                 3077 	.db #0xE0
   0AE0 FE                 3078 	.db #0xFE
   0AE1 FE                 3079 	.db #0xFE
   0AE2 FF                 3080 	.db #0xFF
   0AE3 FF                 3081 	.db #0xFF
   0AE4 FF                 3082 	.db #0xFF
   0AE5 FF                 3083 	.db #0xFF
   0AE6 3F                 3084 	.db #0x3F
   0AE7 3F                 3085 	.db #0x3F
   0AE8 FF                 3086 	.db #0xFF
   0AE9 FF                 3087 	.db #0xFF
   0AEA FF                 3088 	.db #0xFF
   0AEB FF                 3089 	.db #0xFF
   0AEC 00                 3090 	.db #0x00
   0AED 00                 3091 	.db #0x00
   0AEE 00                 3092 	.db #0x00
   0AEF 00                 3093 	.db #0x00
   0AF0 00                 3094 	.db #0x00
   0AF1 00                 3095 	.db #0x00
   0AF2 E0                 3096 	.db #0xE0
   0AF3 E0                 3097 	.db #0xE0
   0AF4 FF                 3098 	.db #0xFF
   0AF5 FF                 3099 	.db #0xFF
   0AF6 FF                 3100 	.db #0xFF
   0AF7 FF                 3101 	.db #0xFF
   0AF8 FE                 3102 	.db #0xFE
   0AF9 FF                 3103 	.db #0xFF
   0AFA FE                 3104 	.db #0xFE
   0AFB FF                 3105 	.db #0xFF
   0AFC 00                 3106 	.db #0x00
   0AFD 00                 3107 	.db #0x00
   0AFE 00                 3108 	.db #0x00
   0AFF 00                 3109 	.db #0x00
   0B00 00                 3110 	.db #0x00
   0B01 00                 3111 	.db #0x00
   0B02 00                 3112 	.db #0x00
   0B03 00                 3113 	.db #0x00
   0B04 00                 3114 	.db #0x00
   0B05 00                 3115 	.db #0x00
   0B06 00                 3116 	.db #0x00
   0B07 80                 3117 	.db #0x80
   0B08 00                 3118 	.db #0x00
   0B09 80                 3119 	.db #0x80
   0B0A 00                 3120 	.db #0x00
   0B0B 80                 3121 	.db #0x80
   0B0C 3F                 3122 	.db #0x3F
   0B0D 1F                 3123 	.db #0x1F
   0B0E 3F                 3124 	.db #0x3F
   0B0F 07                 3125 	.db #0x07
   0B10 3F                 3126 	.db #0x3F
   0B11 01                 3127 	.db #0x01
   0B12 3F                 3128 	.db #0x3F
   0B13 00                 3129 	.db #0x00
   0B14 1F                 3130 	.db #0x1F
   0B15 00                 3131 	.db #0x00
   0B16 1F                 3132 	.db #0x1F
   0B17 00                 3133 	.db #0x00
   0B18 1F                 3134 	.db #0x1F
   0B19 00                 3135 	.db #0x00
   0B1A 1F                 3136 	.db #0x1F
   0B1B 00                 3137 	.db #0x00
   0B1C FF                 3138 	.db #0xFF
   0B1D FF                 3139 	.db #0xFF
   0B1E FF                 3140 	.db #0xFF
   0B1F FF                 3141 	.db #0xFF
   0B20 FF                 3142 	.db #0xFF
   0B21 FF                 3143 	.db #0xFF
   0B22 FF                 3144 	.db #0xFF
   0B23 3F                 3145 	.db #0x3F
   0B24 FF                 3146 	.db #0xFF
   0B25 0F                 3147 	.db #0x0F
   0B26 FF                 3148 	.db #0xFF
   0B27 03                 3149 	.db #0x03
   0B28 FF                 3150 	.db #0xFF
   0B29 00                 3151 	.db #0x00
   0B2A FF                 3152 	.db #0xFF
   0B2B 00                 3153 	.db #0x00
   0B2C FF                 3154 	.db #0xFF
   0B2D FF                 3155 	.db #0xFF
   0B2E FF                 3156 	.db #0xFF
   0B2F FF                 3157 	.db #0xFF
   0B30 FF                 3158 	.db #0xFF
   0B31 FF                 3159 	.db #0xFF
   0B32 FF                 3160 	.db #0xFF
   0B33 FF                 3161 	.db #0xFF
   0B34 FF                 3162 	.db #0xFF
   0B35 FF                 3163 	.db #0xFF
   0B36 FF                 3164 	.db #0xFF
   0B37 FF                 3165 	.db #0xFF
   0B38 FF                 3166 	.db #0xFF
   0B39 7F                 3167 	.db #0x7F
   0B3A FF                 3168 	.db #0xFF
   0B3B 1F                 3169 	.db #0x1F
   0B3C 80                 3170 	.db #0x80
   0B3D 80                 3171 	.db #0x80
   0B3E F0                 3172 	.db #0xF0
   0B3F F0                 3173 	.db #0xF0
   0B40 FC                 3174 	.db #0xFC
   0B41 FC                 3175 	.db #0xFC
   0B42 FF                 3176 	.db #0xFF
   0B43 FF                 3177 	.db #0xFF
   0B44 FF                 3178 	.db #0xFF
   0B45 FF                 3179 	.db #0xFF
   0B46 FF                 3180 	.db #0xFF
   0B47 FF                 3181 	.db #0xFF
   0B48 FF                 3182 	.db #0xFF
   0B49 FF                 3183 	.db #0xFF
   0B4A FF                 3184 	.db #0xFF
   0B4B FF                 3185 	.db #0xFF
   0B4C 00                 3186 	.db #0x00
   0B4D 00                 3187 	.db #0x00
   0B4E 00                 3188 	.db #0x00
   0B4F 00                 3189 	.db #0x00
   0B50 00                 3190 	.db #0x00
   0B51 00                 3191 	.db #0x00
   0B52 80                 3192 	.db #0x80
   0B53 80                 3193 	.db #0x80
   0B54 F0                 3194 	.db #0xF0
   0B55 F0                 3195 	.db #0xF0
   0B56 FD                 3196 	.db #0xFD
   0B57 FD                 3197 	.db #0xFD
   0B58 FF                 3198 	.db #0xFF
   0B59 FF                 3199 	.db #0xFF
   0B5A FF                 3200 	.db #0xFF
   0B5B FF                 3201 	.db #0xFF
   0B5C 03                 3202 	.db #0x03
   0B5D 03                 3203 	.db #0x03
   0B5E 0F                 3204 	.db #0x0F
   0B5F 0F                 3205 	.db #0x0F
   0B60 1F                 3206 	.db #0x1F
   0B61 1F                 3207 	.db #0x1F
   0B62 3F                 3208 	.db #0x3F
   0B63 3F                 3209 	.db #0x3F
   0B64 FF                 3210 	.db #0xFF
   0B65 FF                 3211 	.db #0xFF
   0B66 FF                 3212 	.db #0xFF
   0B67 FF                 3213 	.db #0xFF
   0B68 FF                 3214 	.db #0xFF
   0B69 FF                 3215 	.db #0xFF
   0B6A FF                 3216 	.db #0xFF
   0B6B FF                 3217 	.db #0xFF
   0B6C FF                 3218 	.db #0xFF
   0B6D FF                 3219 	.db #0xFF
   0B6E FF                 3220 	.db #0xFF
   0B6F FF                 3221 	.db #0xFF
   0B70 FF                 3222 	.db #0xFF
   0B71 FF                 3223 	.db #0xFF
   0B72 FF                 3224 	.db #0xFF
   0B73 FF                 3225 	.db #0xFF
   0B74 FF                 3226 	.db #0xFF
   0B75 FF                 3227 	.db #0xFF
   0B76 FF                 3228 	.db #0xFF
   0B77 FF                 3229 	.db #0xFF
   0B78 FF                 3230 	.db #0xFF
   0B79 FF                 3231 	.db #0xFF
   0B7A FE                 3232 	.db #0xFE
   0B7B FF                 3233 	.db #0xFF
   0B7C FC                 3234 	.db #0xFC
   0B7D FF                 3235 	.db #0xFF
   0B7E F8                 3236 	.db #0xF8
   0B7F FF                 3237 	.db #0xFF
   0B80 F0                 3238 	.db #0xF0
   0B81 FF                 3239 	.db #0xFF
   0B82 E0                 3240 	.db #0xE0
   0B83 FF                 3241 	.db #0xFF
   0B84 C0                 3242 	.db #0xC0
   0B85 FE                 3243 	.db #0xFE
   0B86 80                 3244 	.db #0x80
   0B87 FE                 3245 	.db #0xFE
   0B88 00                 3246 	.db #0x00
   0B89 FE                 3247 	.db #0xFE
   0B8A 00                 3248 	.db #0x00
   0B8B FC                 3249 	.db #0xFC
   0B8C 00                 3250 	.db #0x00
   0B8D 80                 3251 	.db #0x80
   0B8E 00                 3252 	.db #0x00
   0B8F 00                 3253 	.db #0x00
   0B90 00                 3254 	.db #0x00
   0B91 00                 3255 	.db #0x00
   0B92 00                 3256 	.db #0x00
   0B93 00                 3257 	.db #0x00
   0B94 00                 3258 	.db #0x00
   0B95 00                 3259 	.db #0x00
   0B96 00                 3260 	.db #0x00
   0B97 00                 3261 	.db #0x00
   0B98 00                 3262 	.db #0x00
   0B99 00                 3263 	.db #0x00
   0B9A 00                 3264 	.db #0x00
   0B9B 00                 3265 	.db #0x00
   0B9C 0F                 3266 	.db #0x0F
   0B9D 00                 3267 	.db #0x00
   0B9E 0F                 3268 	.db #0x0F
   0B9F 00                 3269 	.db #0x00
   0BA0 0F                 3270 	.db #0x0F
   0BA1 00                 3271 	.db #0x00
   0BA2 0F                 3272 	.db #0x0F
   0BA3 00                 3273 	.db #0x00
   0BA4 07                 3274 	.db #0x07
   0BA5 00                 3275 	.db #0x00
   0BA6 07                 3276 	.db #0x07
   0BA7 00                 3277 	.db #0x00
   0BA8 07                 3278 	.db #0x07
   0BA9 00                 3279 	.db #0x00
   0BAA 07                 3280 	.db #0x07
   0BAB 00                 3281 	.db #0x00
   0BAC FF                 3282 	.db #0xFF
   0BAD 00                 3283 	.db #0x00
   0BAE FF                 3284 	.db #0xFF
   0BAF 00                 3285 	.db #0x00
   0BB0 FF                 3286 	.db #0xFF
   0BB1 00                 3287 	.db #0x00
   0BB2 FF                 3288 	.db #0xFF
   0BB3 00                 3289 	.db #0x00
   0BB4 FF                 3290 	.db #0xFF
   0BB5 00                 3291 	.db #0x00
   0BB6 FF                 3292 	.db #0xFF
   0BB7 00                 3293 	.db #0x00
   0BB8 EF                 3294 	.db #0xEF
   0BB9 00                 3295 	.db #0x00
   0BBA E3                 3296 	.db #0xE3
   0BBB 00                 3297 	.db #0x00
   0BBC FF                 3298 	.db #0xFF
   0BBD 07                 3299 	.db #0x07
   0BBE FF                 3300 	.db #0xFF
   0BBF 01                 3301 	.db #0x01
   0BC0 FF                 3302 	.db #0xFF
   0BC1 00                 3303 	.db #0x00
   0BC2 FF                 3304 	.db #0xFF
   0BC3 00                 3305 	.db #0x00
   0BC4 FF                 3306 	.db #0xFF
   0BC5 00                 3307 	.db #0x00
   0BC6 FF                 3308 	.db #0xFF
   0BC7 00                 3309 	.db #0x00
   0BC8 FF                 3310 	.db #0xFF
   0BC9 00                 3311 	.db #0x00
   0BCA FF                 3312 	.db #0xFF
   0BCB 00                 3313 	.db #0x00
   0BCC FF                 3314 	.db #0xFF
   0BCD FF                 3315 	.db #0xFF
   0BCE FF                 3316 	.db #0xFF
   0BCF FF                 3317 	.db #0xFF
   0BD0 FF                 3318 	.db #0xFF
   0BD1 3F                 3319 	.db #0x3F
   0BD2 FF                 3320 	.db #0xFF
   0BD3 0F                 3321 	.db #0x0F
   0BD4 FF                 3322 	.db #0xFF
   0BD5 03                 3323 	.db #0x03
   0BD6 FF                 3324 	.db #0xFF
   0BD7 00                 3325 	.db #0x00
   0BD8 FF                 3326 	.db #0xFF
   0BD9 00                 3327 	.db #0x00
   0BDA FF                 3328 	.db #0xFF
   0BDB 00                 3329 	.db #0x00
   0BDC FF                 3330 	.db #0xFF
   0BDD FF                 3331 	.db #0xFF
   0BDE FF                 3332 	.db #0xFF
   0BDF FF                 3333 	.db #0xFF
   0BE0 FF                 3334 	.db #0xFF
   0BE1 FF                 3335 	.db #0xFF
   0BE2 FF                 3336 	.db #0xFF
   0BE3 FF                 3337 	.db #0xFF
   0BE4 FF                 3338 	.db #0xFF
   0BE5 FF                 3339 	.db #0xFF
   0BE6 FF                 3340 	.db #0xFF
   0BE7 7F                 3341 	.db #0x7F
   0BE8 FF                 3342 	.db #0xFF
   0BE9 1F                 3343 	.db #0x1F
   0BEA FF                 3344 	.db #0xFF
   0BEB 07                 3345 	.db #0x07
   0BEC FF                 3346 	.db #0xFF
   0BED FF                 3347 	.db #0xFF
   0BEE FF                 3348 	.db #0xFF
   0BEF FF                 3349 	.db #0xFF
   0BF0 FF                 3350 	.db #0xFF
   0BF1 FF                 3351 	.db #0xFF
   0BF2 FF                 3352 	.db #0xFF
   0BF3 FF                 3353 	.db #0xFF
   0BF4 FF                 3354 	.db #0xFF
   0BF5 FF                 3355 	.db #0xFF
   0BF6 FF                 3356 	.db #0xFF
   0BF7 FF                 3357 	.db #0xFF
   0BF8 FF                 3358 	.db #0xFF
   0BF9 FF                 3359 	.db #0xFF
   0BFA FF                 3360 	.db #0xFF
   0BFB FF                 3361 	.db #0xFF
   0BFC FC                 3362 	.db #0xFC
   0BFD FF                 3363 	.db #0xFF
   0BFE F8                 3364 	.db #0xF8
   0BFF FF                 3365 	.db #0xFF
   0C00 F0                 3366 	.db #0xF0
   0C01 FF                 3367 	.db #0xFF
   0C02 E0                 3368 	.db #0xE0
   0C03 FF                 3369 	.db #0xFF
   0C04 E0                 3370 	.db #0xE0
   0C05 FF                 3371 	.db #0xFF
   0C06 C0                 3372 	.db #0xC0
   0C07 FF                 3373 	.db #0xFF
   0C08 80                 3374 	.db #0x80
   0C09 FF                 3375 	.db #0xFF
   0C0A 00                 3376 	.db #0x00
   0C0B FE                 3377 	.db #0xFE
   0C0C 00                 3378 	.db #0x00
   0C0D FC                 3379 	.db #0xFC
   0C0E 00                 3380 	.db #0x00
   0C0F FC                 3381 	.db #0xFC
   0C10 00                 3382 	.db #0x00
   0C11 FC                 3383 	.db #0xFC
   0C12 00                 3384 	.db #0x00
   0C13 D8                 3385 	.db #0xD8
   0C14 00                 3386 	.db #0x00
   0C15 B8                 3387 	.db #0xB8
   0C16 00                 3388 	.db #0x00
   0C17 B8                 3389 	.db #0xB8
   0C18 00                 3390 	.db #0x00
   0C19 30                 3391 	.db #0x30
   0C1A 00                 3392 	.db #0x00
   0C1B 70                 3393 	.db #0x70
   0C1C 07                 3394 	.db #0x07
   0C1D 00                 3395 	.db #0x00
   0C1E 03                 3396 	.db #0x03
   0C1F 00                 3397 	.db #0x00
   0C20 03                 3398 	.db #0x03
   0C21 00                 3399 	.db #0x00
   0C22 03                 3400 	.db #0x03
   0C23 00                 3401 	.db #0x00
   0C24 03                 3402 	.db #0x03
   0C25 00                 3403 	.db #0x00
   0C26 01                 3404 	.db #0x01
   0C27 00                 3405 	.db #0x00
   0C28 01                 3406 	.db #0x01
   0C29 00                 3407 	.db #0x00
   0C2A 01                 3408 	.db #0x01
   0C2B 00                 3409 	.db #0x00
   0C2C F0                 3410 	.db #0xF0
   0C2D 00                 3411 	.db #0x00
   0C2E F0                 3412 	.db #0xF0
   0C2F 00                 3413 	.db #0x00
   0C30 F0                 3414 	.db #0xF0
   0C31 00                 3415 	.db #0x00
   0C32 F0                 3416 	.db #0xF0
   0C33 00                 3417 	.db #0x00
   0C34 F0                 3418 	.db #0xF0
   0C35 00                 3419 	.db #0x00
   0C36 F8                 3420 	.db #0xF8
   0C37 00                 3421 	.db #0x00
   0C38 F8                 3422 	.db #0xF8
   0C39 00                 3423 	.db #0x00
   0C3A F8                 3424 	.db #0xF8
   0C3B 00                 3425 	.db #0x00
   0C3C FF                 3426 	.db #0xFF
   0C3D 00                 3427 	.db #0x00
   0C3E 3F                 3428 	.db #0x3F
   0C3F 00                 3429 	.db #0x00
   0C40 0F                 3430 	.db #0x0F
   0C41 00                 3431 	.db #0x00
   0C42 03                 3432 	.db #0x03
   0C43 00                 3433 	.db #0x00
   0C44 00                 3434 	.db #0x00
   0C45 00                 3435 	.db #0x00
   0C46 00                 3436 	.db #0x00
   0C47 00                 3437 	.db #0x00
   0C48 00                 3438 	.db #0x00
   0C49 00                 3439 	.db #0x00
   0C4A 00                 3440 	.db #0x00
   0C4B 00                 3441 	.db #0x00
   0C4C FF                 3442 	.db #0xFF
   0C4D 00                 3443 	.db #0x00
   0C4E FF                 3444 	.db #0xFF
   0C4F 00                 3445 	.db #0x00
   0C50 FF                 3446 	.db #0xFF
   0C51 00                 3447 	.db #0x00
   0C52 FF                 3448 	.db #0xFF
   0C53 00                 3449 	.db #0x00
   0C54 FF                 3450 	.db #0xFF
   0C55 00                 3451 	.db #0x00
   0C56 3F                 3452 	.db #0x3F
   0C57 00                 3453 	.db #0x00
   0C58 1F                 3454 	.db #0x1F
   0C59 00                 3455 	.db #0x00
   0C5A 07                 3456 	.db #0x07
   0C5B 00                 3457 	.db #0x00
   0C5C FF                 3458 	.db #0xFF
   0C5D 01                 3459 	.db #0x01
   0C5E FF                 3460 	.db #0xFF
   0C5F 00                 3461 	.db #0x00
   0C60 FF                 3462 	.db #0xFF
   0C61 00                 3463 	.db #0x00
   0C62 FF                 3464 	.db #0xFF
   0C63 00                 3465 	.db #0x00
   0C64 FF                 3466 	.db #0xFF
   0C65 00                 3467 	.db #0x00
   0C66 FF                 3468 	.db #0xFF
   0C67 00                 3469 	.db #0x00
   0C68 FF                 3470 	.db #0xFF
   0C69 00                 3471 	.db #0x00
   0C6A FF                 3472 	.db #0xFF
   0C6B 00                 3473 	.db #0x00
   0C6C FE                 3474 	.db #0xFE
   0C6D FF                 3475 	.db #0xFF
   0C6E FC                 3476 	.db #0xFC
   0C6F 3F                 3477 	.db #0x3F
   0C70 F8                 3478 	.db #0xF8
   0C71 0F                 3479 	.db #0x0F
   0C72 F8                 3480 	.db #0xF8
   0C73 07                 3481 	.db #0x07
   0C74 F8                 3482 	.db #0xF8
   0C75 07                 3483 	.db #0x07
   0C76 F8                 3484 	.db #0xF8
   0C77 07                 3485 	.db #0x07
   0C78 F0                 3486 	.db #0xF0
   0C79 0F                 3487 	.db #0x0F
   0C7A F0                 3488 	.db #0xF0
   0C7B 0F                 3489 	.db #0x0F
   0C7C 00                 3490 	.db #0x00
   0C7D FC                 3491 	.db #0xFC
   0C7E 00                 3492 	.db #0x00
   0C7F F8                 3493 	.db #0xF8
   0C80 00                 3494 	.db #0x00
   0C81 F8                 3495 	.db #0xF8
   0C82 00                 3496 	.db #0x00
   0C83 F0                 3497 	.db #0xF0
   0C84 00                 3498 	.db #0x00
   0C85 E0                 3499 	.db #0xE0
   0C86 00                 3500 	.db #0x00
   0C87 C0                 3501 	.db #0xC0
   0C88 00                 3502 	.db #0x00
   0C89 81                 3503 	.db #0x81
   0C8A 00                 3504 	.db #0x00
   0C8B 81                 3505 	.db #0x81
   0C8C 00                 3506 	.db #0x00
   0C8D 70                 3507 	.db #0x70
   0C8E 00                 3508 	.db #0x00
   0C8F 60                 3509 	.db #0x60
   0C90 00                 3510 	.db #0x00
   0C91 60                 3511 	.db #0x60
   0C92 00                 3512 	.db #0x00
   0C93 E0                 3513 	.db #0xE0
   0C94 00                 3514 	.db #0x00
   0C95 C0                 3515 	.db #0xC0
   0C96 00                 3516 	.db #0x00
   0C97 C0                 3517 	.db #0xC0
   0C98 00                 3518 	.db #0x00
   0C99 C0                 3519 	.db #0xC0
   0C9A 00                 3520 	.db #0x00
   0C9B 80                 3521 	.db #0x80
   0C9C 01                 3522 	.db #0x01
   0C9D 00                 3523 	.db #0x00
   0C9E 00                 3524 	.db #0x00
   0C9F 00                 3525 	.db #0x00
   0CA0 00                 3526 	.db #0x00
   0CA1 00                 3527 	.db #0x00
   0CA2 00                 3528 	.db #0x00
   0CA3 00                 3529 	.db #0x00
   0CA4 00                 3530 	.db #0x00
   0CA5 00                 3531 	.db #0x00
   0CA6 00                 3532 	.db #0x00
   0CA7 00                 3533 	.db #0x00
   0CA8 00                 3534 	.db #0x00
   0CA9 00                 3535 	.db #0x00
   0CAA 00                 3536 	.db #0x00
   0CAB 00                 3537 	.db #0x00
   0CAC F8                 3538 	.db #0xF8
   0CAD 00                 3539 	.db #0x00
   0CAE F8                 3540 	.db #0xF8
   0CAF 00                 3541 	.db #0x00
   0CB0 F8                 3542 	.db #0xF8
   0CB1 00                 3543 	.db #0x00
   0CB2 FC                 3544 	.db #0xFC
   0CB3 00                 3545 	.db #0x00
   0CB4 FC                 3546 	.db #0xFC
   0CB5 00                 3547 	.db #0x00
   0CB6 7C                 3548 	.db #0x7C
   0CB7 00                 3549 	.db #0x00
   0CB8 7C                 3550 	.db #0x7C
   0CB9 00                 3551 	.db #0x00
   0CBA 7F                 3552 	.db #0x7F
   0CBB 00                 3553 	.db #0x00
   0CBC 00                 3554 	.db #0x00
   0CBD 00                 3555 	.db #0x00
   0CBE 00                 3556 	.db #0x00
   0CBF 00                 3557 	.db #0x00
   0CC0 00                 3558 	.db #0x00
   0CC1 00                 3559 	.db #0x00
   0CC2 00                 3560 	.db #0x00
   0CC3 00                 3561 	.db #0x00
   0CC4 00                 3562 	.db #0x00
   0CC5 00                 3563 	.db #0x00
   0CC6 00                 3564 	.db #0x00
   0CC7 00                 3565 	.db #0x00
   0CC8 00                 3566 	.db #0x00
   0CC9 00                 3567 	.db #0x00
   0CCA 00                 3568 	.db #0x00
   0CCB 00                 3569 	.db #0x00
   0CCC 03                 3570 	.db #0x03
   0CCD 00                 3571 	.db #0x00
   0CCE 03                 3572 	.db #0x03
   0CCF 00                 3573 	.db #0x00
   0CD0 03                 3574 	.db #0x03
   0CD1 00                 3575 	.db #0x00
   0CD2 03                 3576 	.db #0x03
   0CD3 00                 3577 	.db #0x00
   0CD4 03                 3578 	.db #0x03
   0CD5 00                 3579 	.db #0x00
   0CD6 03                 3580 	.db #0x03
   0CD7 00                 3581 	.db #0x00
   0CD8 03                 3582 	.db #0x03
   0CD9 00                 3583 	.db #0x00
   0CDA 03                 3584 	.db #0x03
   0CDB 00                 3585 	.db #0x00
   0CDC FF                 3586 	.db #0xFF
   0CDD 00                 3587 	.db #0x00
   0CDE FF                 3588 	.db #0xFF
   0CDF 00                 3589 	.db #0x00
   0CE0 FF                 3590 	.db #0xFF
   0CE1 00                 3591 	.db #0x00
   0CE2 FF                 3592 	.db #0xFF
   0CE3 00                 3593 	.db #0x00
   0CE4 FF                 3594 	.db #0xFF
   0CE5 00                 3595 	.db #0x00
   0CE6 FF                 3596 	.db #0xFF
   0CE7 00                 3597 	.db #0x00
   0CE8 FF                 3598 	.db #0xFF
   0CE9 00                 3599 	.db #0x00
   0CEA FF                 3600 	.db #0xFF
   0CEB 00                 3601 	.db #0x00
   0CEC F0                 3602 	.db #0xF0
   0CED 0F                 3603 	.db #0x0F
   0CEE F0                 3604 	.db #0xF0
   0CEF 0F                 3605 	.db #0x0F
   0CF0 F0                 3606 	.db #0xF0
   0CF1 0F                 3607 	.db #0x0F
   0CF2 F0                 3608 	.db #0xF0
   0CF3 0F                 3609 	.db #0x0F
   0CF4 E0                 3610 	.db #0xE0
   0CF5 1F                 3611 	.db #0x1F
   0CF6 E0                 3612 	.db #0xE0
   0CF7 1F                 3613 	.db #0x1F
   0CF8 E0                 3614 	.db #0xE0
   0CF9 1F                 3615 	.db #0x1F
   0CFA E0                 3616 	.db #0xE0
   0CFB 1E                 3617 	.db #0x1E
   0CFC 00                 3618 	.db #0x00
   0CFD 81                 3619 	.db #0x81
   0CFE 00                 3620 	.db #0x00
   0CFF 81                 3621 	.db #0x81
   0D00 00                 3622 	.db #0x00
   0D01 83                 3623 	.db #0x83
   0D02 00                 3624 	.db #0x00
   0D03 03                 3625 	.db #0x03
   0D04 00                 3626 	.db #0x00
   0D05 06                 3627 	.db #0x06
   0D06 00                 3628 	.db #0x00
   0D07 0E                 3629 	.db #0x0E
   0D08 00                 3630 	.db #0x00
   0D09 1C                 3631 	.db #0x1C
   0D0A 00                 3632 	.db #0x00
   0D0B 18                 3633 	.db #0x18
   0D0C 00                 3634 	.db #0x00
   0D0D 80                 3635 	.db #0x80
   0D0E 00                 3636 	.db #0x00
   0D0F 80                 3637 	.db #0x80
   0D10 00                 3638 	.db #0x00
   0D11 00                 3639 	.db #0x00
   0D12 00                 3640 	.db #0x00
   0D13 00                 3641 	.db #0x00
   0D14 00                 3642 	.db #0x00
   0D15 00                 3643 	.db #0x00
   0D16 00                 3644 	.db #0x00
   0D17 00                 3645 	.db #0x00
   0D18 00                 3646 	.db #0x00
   0D19 00                 3647 	.db #0x00
   0D1A 00                 3648 	.db #0x00
   0D1B 00                 3649 	.db #0x00
   0D1C 7F                 3650 	.db #0x7F
   0D1D 00                 3651 	.db #0x00
   0D1E 3F                 3652 	.db #0x3F
   0D1F 00                 3653 	.db #0x00
   0D20 0F                 3654 	.db #0x0F
   0D21 00                 3655 	.db #0x00
   0D22 07                 3656 	.db #0x07
   0D23 00                 3657 	.db #0x00
   0D24 01                 3658 	.db #0x01
   0D25 00                 3659 	.db #0x00
   0D26 00                 3660 	.db #0x00
   0D27 00                 3661 	.db #0x00
   0D28 00                 3662 	.db #0x00
   0D29 00                 3663 	.db #0x00
   0D2A 00                 3664 	.db #0x00
   0D2B 00                 3665 	.db #0x00
   0D2C 80                 3666 	.db #0x80
   0D2D 00                 3667 	.db #0x00
   0D2E E0                 3668 	.db #0xE0
   0D2F 00                 3669 	.db #0x00
   0D30 F0                 3670 	.db #0xF0
   0D31 00                 3671 	.db #0x00
   0D32 FC                 3672 	.db #0xFC
   0D33 00                 3673 	.db #0x00
   0D34 FE                 3674 	.db #0xFE
   0D35 00                 3675 	.db #0x00
   0D36 FF                 3676 	.db #0xFF
   0D37 00                 3677 	.db #0x00
   0D38 3F                 3678 	.db #0x3F
   0D39 00                 3679 	.db #0x00
   0D3A 1F                 3680 	.db #0x1F
   0D3B 00                 3681 	.db #0x00
   0D3C 03                 3682 	.db #0x03
   0D3D 00                 3683 	.db #0x00
   0D3E 03                 3684 	.db #0x03
   0D3F 00                 3685 	.db #0x00
   0D40 03                 3686 	.db #0x03
   0D41 00                 3687 	.db #0x00
   0D42 03                 3688 	.db #0x03
   0D43 00                 3689 	.db #0x00
   0D44 03                 3690 	.db #0x03
   0D45 00                 3691 	.db #0x00
   0D46 83                 3692 	.db #0x83
   0D47 00                 3693 	.db #0x00
   0D48 C3                 3694 	.db #0xC3
   0D49 00                 3695 	.db #0x00
   0D4A F3                 3696 	.db #0xF3
   0D4B 00                 3697 	.db #0x00
   0D4C FF                 3698 	.db #0xFF
   0D4D 00                 3699 	.db #0x00
   0D4E FF                 3700 	.db #0xFF
   0D4F 00                 3701 	.db #0x00
   0D50 FF                 3702 	.db #0xFF
   0D51 00                 3703 	.db #0x00
   0D52 FF                 3704 	.db #0xFF
   0D53 00                 3705 	.db #0x00
   0D54 FF                 3706 	.db #0xFF
   0D55 00                 3707 	.db #0x00
   0D56 FF                 3708 	.db #0xFF
   0D57 00                 3709 	.db #0x00
   0D58 FF                 3710 	.db #0xFF
   0D59 00                 3711 	.db #0x00
   0D5A FF                 3712 	.db #0xFF
   0D5B 00                 3713 	.db #0x00
   0D5C E0                 3714 	.db #0xE0
   0D5D 1E                 3715 	.db #0x1E
   0D5E C0                 3716 	.db #0xC0
   0D5F 3E                 3717 	.db #0x3E
   0D60 C0                 3718 	.db #0xC0
   0D61 3E                 3719 	.db #0x3E
   0D62 C0                 3720 	.db #0xC0
   0D63 3E                 3721 	.db #0x3E
   0D64 C0                 3722 	.db #0xC0
   0D65 3D                 3723 	.db #0x3D
   0D66 C0                 3724 	.db #0xC0
   0D67 3D                 3725 	.db #0x3D
   0D68 80                 3726 	.db #0x80
   0D69 7F                 3727 	.db #0x7F
   0D6A 80                 3728 	.db #0x80
   0D6B 7F                 3729 	.db #0x7F
   0D6C 00                 3730 	.db #0x00
   0D6D 38                 3731 	.db #0x38
   0D6E 00                 3732 	.db #0x00
   0D6F 70                 3733 	.db #0x70
   0D70 00                 3734 	.db #0x00
   0D71 70                 3735 	.db #0x70
   0D72 00                 3736 	.db #0x00
   0D73 E0                 3737 	.db #0xE0
   0D74 00                 3738 	.db #0x00
   0D75 C0                 3739 	.db #0xC0
   0D76 00                 3740 	.db #0x00
   0D77 C0                 3741 	.db #0xC0
   0D78 00                 3742 	.db #0x00
   0D79 80                 3743 	.db #0x80
   0D7A 00                 3744 	.db #0x00
   0D7B 00                 3745 	.db #0x00
   0D7C 07                 3746 	.db #0x07
   0D7D 00                 3747 	.db #0x00
   0D7E 03                 3748 	.db #0x03
   0D7F 00                 3749 	.db #0x00
   0D80 01                 3750 	.db #0x01
   0D81 00                 3751 	.db #0x00
   0D82 00                 3752 	.db #0x00
   0D83 00                 3753 	.db #0x00
   0D84 00                 3754 	.db #0x00
   0D85 00                 3755 	.db #0x00
   0D86 00                 3756 	.db #0x00
   0D87 00                 3757 	.db #0x00
   0D88 00                 3758 	.db #0x00
   0D89 00                 3759 	.db #0x00
   0D8A 00                 3760 	.db #0x00
   0D8B 00                 3761 	.db #0x00
   0D8C FB                 3762 	.db #0xFB
   0D8D 00                 3763 	.db #0x00
   0D8E FF                 3764 	.db #0xFF
   0D8F 00                 3765 	.db #0x00
   0D90 FF                 3766 	.db #0xFF
   0D91 00                 3767 	.db #0x00
   0D92 7F                 3768 	.db #0x7F
   0D93 00                 3769 	.db #0x00
   0D94 3F                 3770 	.db #0x3F
   0D95 00                 3771 	.db #0x00
   0D96 0F                 3772 	.db #0x0F
   0D97 00                 3773 	.db #0x00
   0D98 07                 3774 	.db #0x07
   0D99 00                 3775 	.db #0x00
   0D9A 01                 3776 	.db #0x01
   0D9B 00                 3777 	.db #0x00
   0D9C FF                 3778 	.db #0xFF
   0D9D 00                 3779 	.db #0x00
   0D9E FF                 3780 	.db #0xFF
   0D9F 00                 3781 	.db #0x00
   0DA0 FF                 3782 	.db #0xFF
   0DA1 00                 3783 	.db #0x00
   0DA2 FF                 3784 	.db #0xFF
   0DA3 00                 3785 	.db #0x00
   0DA4 FF                 3786 	.db #0xFF
   0DA5 00                 3787 	.db #0x00
   0DA6 FF                 3788 	.db #0xFF
   0DA7 00                 3789 	.db #0x00
   0DA8 FF                 3790 	.db #0xFF
   0DA9 00                 3791 	.db #0x00
   0DAA FF                 3792 	.db #0xFF
   0DAB 00                 3793 	.db #0x00
   0DAC 80                 3794 	.db #0x80
   0DAD 7F                 3795 	.db #0x7F
   0DAE 80                 3796 	.db #0x80
   0DAF 7E                 3797 	.db #0x7E
   0DB0 80                 3798 	.db #0x80
   0DB1 7C                 3799 	.db #0x7C
   0DB2 80                 3800 	.db #0x80
   0DB3 7C                 3801 	.db #0x7C
   0DB4 00                 3802 	.db #0x00
   0DB5 F8                 3803 	.db #0xF8
   0DB6 00                 3804 	.db #0x00
   0DB7 F0                 3805 	.db #0xF0
   0DB8 00                 3806 	.db #0x00
   0DB9 F0                 3807 	.db #0xF0
   0DBA 00                 3808 	.db #0x00
   0DBB E0                 3809 	.db #0xE0
   0DBC 00                 3810 	.db #0x00
   0DBD 00                 3811 	.db #0x00
   0DBE 00                 3812 	.db #0x00
   0DBF 00                 3813 	.db #0x00
   0DC0 00                 3814 	.db #0x00
   0DC1 00                 3815 	.db #0x00
   0DC2 00                 3816 	.db #0x00
   0DC3 00                 3817 	.db #0x00
   0DC4 00                 3818 	.db #0x00
   0DC5 00                 3819 	.db #0x00
   0DC6 00                 3820 	.db #0x00
   0DC7 00                 3821 	.db #0x00
   0DC8 00                 3822 	.db #0x00
   0DC9 00                 3823 	.db #0x00
   0DCA 00                 3824 	.db #0x00
   0DCB 00                 3825 	.db #0x00
   0DCC 00                 3826 	.db #0x00
   0DCD 00                 3827 	.db #0x00
   0DCE 00                 3828 	.db #0x00
   0DCF 00                 3829 	.db #0x00
   0DD0 00                 3830 	.db #0x00
   0DD1 00                 3831 	.db #0x00
   0DD2 00                 3832 	.db #0x00
   0DD3 00                 3833 	.db #0x00
   0DD4 00                 3834 	.db #0x00
   0DD5 00                 3835 	.db #0x00
   0DD6 00                 3836 	.db #0x00
   0DD7 00                 3837 	.db #0x00
   0DD8 00                 3838 	.db #0x00
   0DD9 00                 3839 	.db #0x00
   0DDA 00                 3840 	.db #0x00
   0DDB 00                 3841 	.db #0x00
   0DDC FF                 3842 	.db #0xFF
   0DDD 00                 3843 	.db #0x00
   0DDE 3E                 3844 	.db #0x3E
   0DDF 01                 3845 	.db #0x01
   0DE0 1E                 3846 	.db #0x1E
   0DE1 01                 3847 	.db #0x01
   0DE2 0E                 3848 	.db #0x0E
   0DE3 01                 3849 	.db #0x01
   0DE4 02                 3850 	.db #0x02
   0DE5 00                 3851 	.db #0x00
   0DE6 00                 3852 	.db #0x00
   0DE7 00                 3853 	.db #0x00
   0DE8 00                 3854 	.db #0x00
   0DE9 00                 3855 	.db #0x00
   0DEA 00                 3856 	.db #0x00
   0DEB 00                 3857 	.db #0x00
   0DEC 00                 3858 	.db #0x00
   0DED E0                 3859 	.db #0xE0
   0DEE 00                 3860 	.db #0x00
   0DEF C0                 3861 	.db #0xC0
   0DF0 00                 3862 	.db #0x00
   0DF1 80                 3863 	.db #0x80
   0DF2 00                 3864 	.db #0x00
   0DF3 80                 3865 	.db #0x80
   0DF4 00                 3866 	.db #0x00
   0DF5 00                 3867 	.db #0x00
   0DF6 00                 3868 	.db #0x00
   0DF7 00                 3869 	.db #0x00
   0DF8 00                 3870 	.db #0x00
   0DF9 00                 3871 	.db #0x00
   0DFA 00                 3872 	.db #0x00
   0DFB 00                 3873 	.db #0x00
   0DFC 00                 3874 	.db #0x00
   0DFD 00                 3875 	.db #0x00
   0DFE 00                 3876 	.db #0x00
   0DFF 00                 3877 	.db #0x00
   0E00 00                 3878 	.db #0x00
   0E01 00                 3879 	.db #0x00
   0E02 00                 3880 	.db #0x00
   0E03 00                 3881 	.db #0x00
   0E04 00                 3882 	.db #0x00
   0E05 00                 3883 	.db #0x00
   0E06 00                 3884 	.db #0x00
   0E07 00                 3885 	.db #0x00
   0E08 00                 3886 	.db #0x00
   0E09 00                 3887 	.db #0x00
   0E0A 00                 3888 	.db #0x00
   0E0B 00                 3889 	.db #0x00
   0E0C 00                 3890 	.db #0x00
   0E0D 00                 3891 	.db #0x00
   0E0E 00                 3892 	.db #0x00
   0E0F 00                 3893 	.db #0x00
   0E10 00                 3894 	.db #0x00
   0E11 00                 3895 	.db #0x00
   0E12 00                 3896 	.db #0x00
   0E13 00                 3897 	.db #0x00
   0E14 00                 3898 	.db #0x00
   0E15 00                 3899 	.db #0x00
   0E16 00                 3900 	.db #0x00
   0E17 00                 3901 	.db #0x00
   0E18 00                 3902 	.db #0x00
   0E19 00                 3903 	.db #0x00
   0E1A 00                 3904 	.db #0x00
   0E1B 00                 3905 	.db #0x00
   0E1C 00                 3906 	.db #0x00
   0E1D 00                 3907 	.db #0x00
   0E1E 00                 3908 	.db #0x00
   0E1F 00                 3909 	.db #0x00
   0E20 00                 3910 	.db #0x00
   0E21 00                 3911 	.db #0x00
   0E22 00                 3912 	.db #0x00
   0E23 00                 3913 	.db #0x00
   0E24 00                 3914 	.db #0x00
   0E25 00                 3915 	.db #0x00
   0E26 00                 3916 	.db #0x00
   0E27 00                 3917 	.db #0x00
   0E28 00                 3918 	.db #0x00
   0E29 00                 3919 	.db #0x00
   0E2A 00                 3920 	.db #0x00
   0E2B 00                 3921 	.db #0x00
   0E2C 00                 3922 	.db #0x00
   0E2D 00                 3923 	.db #0x00
   0E2E 00                 3924 	.db #0x00
   0E2F 00                 3925 	.db #0x00
   0E30 00                 3926 	.db #0x00
   0E31 00                 3927 	.db #0x00
   0E32 00                 3928 	.db #0x00
   0E33 00                 3929 	.db #0x00
   0E34 00                 3930 	.db #0x00
   0E35 00                 3931 	.db #0x00
   0E36 00                 3932 	.db #0x00
   0E37 00                 3933 	.db #0x00
   0E38 00                 3934 	.db #0x00
   0E39 00                 3935 	.db #0x00
   0E3A 00                 3936 	.db #0x00
   0E3B 00                 3937 	.db #0x00
   0E3C 00                 3938 	.db #0x00
   0E3D 00                 3939 	.db #0x00
   0E3E 00                 3940 	.db #0x00
   0E3F 00                 3941 	.db #0x00
   0E40 00                 3942 	.db #0x00
   0E41 00                 3943 	.db #0x00
   0E42 00                 3944 	.db #0x00
   0E43 00                 3945 	.db #0x00
   0E44 00                 3946 	.db #0x00
   0E45 00                 3947 	.db #0x00
   0E46 00                 3948 	.db #0x00
   0E47 00                 3949 	.db #0x00
   0E48 00                 3950 	.db #0x00
   0E49 00                 3951 	.db #0x00
   0E4A 00                 3952 	.db #0x00
   0E4B 00                 3953 	.db #0x00
   0E4C 00                 3954 	.db #0x00
   0E4D 00                 3955 	.db #0x00
   0E4E 00                 3956 	.db #0x00
   0E4F 00                 3957 	.db #0x00
   0E50 00                 3958 	.db #0x00
   0E51 00                 3959 	.db #0x00
   0E52 00                 3960 	.db #0x00
   0E53 00                 3961 	.db #0x00
   0E54 00                 3962 	.db #0x00
   0E55 00                 3963 	.db #0x00
   0E56 00                 3964 	.db #0x00
   0E57 00                 3965 	.db #0x00
   0E58 00                 3966 	.db #0x00
   0E59 00                 3967 	.db #0x00
   0E5A 00                 3968 	.db #0x00
   0E5B 00                 3969 	.db #0x00
   0E5C 00                 3970 	.db #0x00
   0E5D 00                 3971 	.db #0x00
   0E5E 00                 3972 	.db #0x00
   0E5F 00                 3973 	.db #0x00
   0E60 00                 3974 	.db #0x00
   0E61 00                 3975 	.db #0x00
   0E62 00                 3976 	.db #0x00
   0E63 00                 3977 	.db #0x00
   0E64 00                 3978 	.db #0x00
   0E65 00                 3979 	.db #0x00
   0E66 00                 3980 	.db #0x00
   0E67 00                 3981 	.db #0x00
   0E68 00                 3982 	.db #0x00
   0E69 00                 3983 	.db #0x00
   0E6A 00                 3984 	.db #0x00
   0E6B 00                 3985 	.db #0x00
   0E6C 00                 3986 	.db #0x00
   0E6D 00                 3987 	.db #0x00
   0E6E 00                 3988 	.db #0x00
   0E6F 00                 3989 	.db #0x00
   0E70 00                 3990 	.db #0x00
   0E71 00                 3991 	.db #0x00
   0E72 00                 3992 	.db #0x00
   0E73 00                 3993 	.db #0x00
   0E74 00                 3994 	.db #0x00
   0E75 00                 3995 	.db #0x00
   0E76 00                 3996 	.db #0x00
   0E77 00                 3997 	.db #0x00
   0E78 00                 3998 	.db #0x00
   0E79 00                 3999 	.db #0x00
   0E7A 00                 4000 	.db #0x00
   0E7B 00                 4001 	.db #0x00
   0E7C                    4002 _refreshLogoMap:
   0E7C 58                 4003 	.db #0x58
   0E7D 58                 4004 	.db #0x58
   0E7E 58                 4005 	.db #0x58
   0E7F 1C                 4006 	.db #0x1C
   0E80 1D                 4007 	.db #0x1D
   0E81 1E                 4008 	.db #0x1E
   0E82 1F                 4009 	.db #0x1F
   0E83 58                 4010 	.db #0x58
   0E84 58                 4011 	.db #0x58
   0E85 58                 4012 	.db #0x58
   0E86 58                 4013 	.db #0x58
   0E87 20                 4014 	.db #0x20
   0E88 21                 4015 	.db #0x21
   0E89 22                 4016 	.db #0x22
   0E8A 23                 4017 	.db #0x23
   0E8B 24                 4018 	.db #0x24
   0E8C 25                 4019 	.db #0x25
   0E8D 26                 4020 	.db #0x26
   0E8E 27                 4021 	.db #0x27
   0E8F 28                 4022 	.db #0x28
   0E90 58                 4023 	.db #0x58
   0E91 29                 4024 	.db #0x29
   0E92 2A                 4025 	.db #0x2A
   0E93 2B                 4026 	.db #0x2B
   0E94 2C                 4027 	.db #0x2C
   0E95 2D                 4028 	.db #0x2D
   0E96 2E                 4029 	.db #0x2E
   0E97 2F                 4030 	.db #0x2F
   0E98 30                 4031 	.db #0x30
   0E99 31                 4032 	.db #0x31
   0E9A 58                 4033 	.db #0x58
   0E9B 32                 4034 	.db #0x32
   0E9C 33                 4035 	.db #0x33
   0E9D 34                 4036 	.db #0x34
   0E9E 35                 4037 	.db #0x35
   0E9F 36                 4038 	.db #0x36
   0EA0 37                 4039 	.db #0x37
   0EA1 38                 4040 	.db #0x38
   0EA2 39                 4041 	.db #0x39
   0EA3 58                 4042 	.db #0x58
   0EA4 58                 4043 	.db #0x58
   0EA5 3A                 4044 	.db #0x3A
   0EA6 3B                 4045 	.db #0x3B
   0EA7 3C                 4046 	.db #0x3C
   0EA8 3D                 4047 	.db #0x3D
   0EA9 3E                 4048 	.db #0x3E
   0EAA 3F                 4049 	.db #0x3F
   0EAB 40                 4050 	.db #0x40
   0EAC 41                 4051 	.db #0x41
   0EAD 58                 4052 	.db #0x58
   0EAE 58                 4053 	.db #0x58
   0EAF 42                 4054 	.db #0x42
   0EB0 43                 4055 	.db #0x43
   0EB1 44                 4056 	.db #0x44
   0EB2 45                 4057 	.db #0x45
   0EB3 46                 4058 	.db #0x46
   0EB4 47                 4059 	.db #0x47
   0EB5 48                 4060 	.db #0x48
   0EB6 49                 4061 	.db #0x49
   0EB7 58                 4062 	.db #0x58
   0EB8 58                 4063 	.db #0x58
   0EB9 58                 4064 	.db #0x58
   0EBA 4A                 4065 	.db #0x4A
   0EBB 4B                 4066 	.db #0x4B
   0EBC 4C                 4067 	.db #0x4C
   0EBD 4D                 4068 	.db #0x4D
   0EBE 4E                 4069 	.db #0x4E
   0EBF 4F                 4070 	.db #0x4F
   0EC0 58                 4071 	.db #0x58
   0EC1 58                 4072 	.db #0x58
   0EC2 58                 4073 	.db #0x58
   0EC3 58                 4074 	.db #0x58
   0EC4 58                 4075 	.db #0x58
   0EC5 50                 4076 	.db #0x50
   0EC6 51                 4077 	.db #0x51
   0EC7 52                 4078 	.db #0x52
   0EC8 53                 4079 	.db #0x53
   0EC9 58                 4080 	.db #0x58
   0ECA 58                 4081 	.db #0x58
   0ECB 58                 4082 	.db #0x58
   0ECC 58                 4083 	.db #0x58
   0ECD 58                 4084 	.db #0x58
   0ECE 58                 4085 	.db #0x58
   0ECF 58                 4086 	.db #0x58
   0ED0 58                 4087 	.db #0x58
   0ED1 56                 4088 	.db #0x56
   0ED2 57                 4089 	.db #0x57
   0ED3 58                 4090 	.db #0x58
   0ED4 58                 4091 	.db #0x58
   0ED5 58                 4092 	.db #0x58
   0ED6 58                 4093 	.db #0x58
   0ED7 58                 4094 	.db #0x58
   0ED8 58                 4095 	.db #0x58
   0ED9 58                 4096 	.db #0x58
   0EDA 58                 4097 	.db #0x58
   0EDB 58                 4098 	.db #0x58
   0EDC 58                 4099 	.db #0x58
   0EDD 58                 4100 	.db #0x58
   0EDE 58                 4101 	.db #0x58
   0EDF 58                 4102 	.db #0x58
   0EE0 58                 4103 	.db #0x58
   0EE1 00                 4104 	.db #0x00
   0EE2 01                 4105 	.db #0x01
   0EE3 02                 4106 	.db #0x02
   0EE4 03                 4107 	.db #0x03
   0EE5 04                 4108 	.db #0x04
   0EE6 05                 4109 	.db #0x05
   0EE7 06                 4110 	.db #0x06
   0EE8 07                 4111 	.db #0x07
   0EE9 58                 4112 	.db #0x58
   0EEA 08                 4113 	.db #0x08
   0EEB 09                 4114 	.db #0x09
   0EEC 0A                 4115 	.db #0x0A
   0EED 0B                 4116 	.db #0x0B
   0EEE 0C                 4117 	.db #0x0C
   0EEF 0D                 4118 	.db #0x0D
   0EF0 0E                 4119 	.db #0x0E
   0EF1 0F                 4120 	.db #0x0F
   0EF2 10                 4121 	.db #0x10
   0EF3 11                 4122 	.db #0x11
   0EF4 12                 4123 	.db #0x12
   0EF5 13                 4124 	.db #0x13
   0EF6 14                 4125 	.db #0x14
   0EF7 15                 4126 	.db #0x15
   0EF8 16                 4127 	.db #0x16
   0EF9 17                 4128 	.db #0x17
   0EFA 18                 4129 	.db #0x18
   0EFB 19                 4130 	.db #0x19
   0EFC 1A                 4131 	.db #0x1A
   0EFD 1B                 4132 	.db #0x1B
   0EFE                    4133 _menuSprites:
   0EFE 41                 4134 	.db #0x41
   0EFF 41                 4135 	.db #0x41
   0F00 A3                 4136 	.db #0xA3
   0F01 E2                 4137 	.db #0xE2
   0F02 97                 4138 	.db #0x97
   0F03 F4                 4139 	.db #0xF4
   0F04 9E                 4140 	.db #0x9E
   0F05 E9                 4141 	.db #0xE9
   0F06 9C                 4142 	.db #0x9C
   0F07 E3                 4143 	.db #0xE3
   0F08 96                 4144 	.db #0x96
   0F09 E9                 4145 	.db #0xE9
   0F0A 9F                 4146 	.db #0x9F
   0F0B E0                 4147 	.db #0xE0
   0F0C 7F                 4148 	.db #0x7F
   0F0D 7F                 4149 	.db #0x7F
   0F0E 82                 4150 	.db #0x82
   0F0F 82                 4151 	.db #0x82
   0F10 C5                 4152 	.db #0xC5
   0F11 47                 4153 	.db #0x47
   0F12 E9                 4154 	.db #0xE9
   0F13 2F                 4155 	.db #0x2F
   0F14 79                 4156 	.db #0x79
   0F15 97                 4157 	.db #0x97
   0F16 39                 4158 	.db #0x39
   0F17 C7                 4159 	.db #0xC7
   0F18 69                 4160 	.db #0x69
   0F19 97                 4161 	.db #0x97
   0F1A F9                 4162 	.db #0xF9
   0F1B 07                 4163 	.db #0x07
   0F1C FE                 4164 	.db #0xFE
   0F1D FE                 4165 	.db #0xFE
   0F1E 00                 4166 	.db #0x00
   0F1F 00                 4167 	.db #0x00
   0F20 00                 4168 	.db #0x00
   0F21 00                 4169 	.db #0x00
   0F22 00                 4170 	.db #0x00
   0F23 00                 4171 	.db #0x00
   0F24 00                 4172 	.db #0x00
   0F25 00                 4173 	.db #0x00
   0F26 10                 4174 	.db #0x10
   0F27 00                 4175 	.db #0x00
   0F28 00                 4176 	.db #0x00
   0F29 00                 4177 	.db #0x00
   0F2A 00                 4178 	.db #0x00
   0F2B 00                 4179 	.db #0x00
   0F2C 00                 4180 	.db #0x00
   0F2D 00                 4181 	.db #0x00
   0F2E 00                 4182 	.db #0x00
   0F2F 00                 4183 	.db #0x00
   0F30 00                 4184 	.db #0x00
   0F31 00                 4185 	.db #0x00
   0F32 00                 4186 	.db #0x00
   0F33 00                 4187 	.db #0x00
   0F34 10                 4188 	.db #0x10
   0F35 00                 4189 	.db #0x00
   0F36 38                 4190 	.db #0x38
   0F37 00                 4191 	.db #0x00
   0F38 10                 4192 	.db #0x10
   0F39 00                 4193 	.db #0x00
   0F3A 00                 4194 	.db #0x00
   0F3B 00                 4195 	.db #0x00
   0F3C 00                 4196 	.db #0x00
   0F3D 00                 4197 	.db #0x00
   0F3E 00                 4198 	.db #0x00
   0F3F 00                 4199 	.db #0x00
   0F40 00                 4200 	.db #0x00
   0F41 00                 4201 	.db #0x00
   0F42 10                 4202 	.db #0x10
   0F43 00                 4203 	.db #0x00
   0F44 10                 4204 	.db #0x10
   0F45 28                 4205 	.db #0x28
   0F46 7C                 4206 	.db #0x7C
   0F47 00                 4207 	.db #0x00
   0F48 10                 4208 	.db #0x10
   0F49 28                 4209 	.db #0x28
   0F4A 10                 4210 	.db #0x10
   0F4B 00                 4211 	.db #0x00
   0F4C 00                 4212 	.db #0x00
   0F4D 00                 4213 	.db #0x00
   0F4E 00                 4214 	.db #0x00
   0F4F 00                 4215 	.db #0x00
   0F50 08                 4216 	.db #0x08
   0F51 00                 4217 	.db #0x00
   0F52 08                 4218 	.db #0x08
   0F53 10                 4219 	.db #0x10
   0F54 E8                 4220 	.db #0xE8
   0F55 10                 4221 	.db #0x10
   0F56 10                 4222 	.db #0x10
   0F57 6C                 4223 	.db #0x6C
   0F58 2E                 4224 	.db #0x2E
   0F59 10                 4225 	.db #0x10
   0F5A 20                 4226 	.db #0x20
   0F5B 10                 4227 	.db #0x10
   0F5C 20                 4228 	.db #0x20
   0F5D 00                 4229 	.db #0x00
   0F5E 00                 4230 	.db #0x00
   0F5F 00                 4231 	.db #0x00
   0F60 14                 4232 	.db #0x14
   0F61 10                 4233 	.db #0x10
   0F62 C4                 4234 	.db #0xC4
   0F63 10                 4235 	.db #0x10
   0F64 38                 4236 	.db #0x38
   0F65 00                 4237 	.db #0x00
   0F66 BA                 4238 	.db #0xBA
   0F67 C6                 4239 	.db #0xC6
   0F68 38                 4240 	.db #0x38
   0F69 00                 4241 	.db #0x00
   0F6A 46                 4242 	.db #0x46
   0F6B 10                 4243 	.db #0x10
   0F6C 50                 4244 	.db #0x50
   0F6D 10                 4245 	.db #0x10
   0F6E 00                 4246 	.db #0x00
   0F6F 00                 4247 	.db #0x00
   0F70 00                 4248 	.db #0x00
   0F71 00                 4249 	.db #0x00
   0F72 44                 4250 	.db #0x44
   0F73 00                 4251 	.db #0x00
   0F74 28                 4252 	.db #0x28
   0F75 10                 4253 	.db #0x10
   0F76 10                 4254 	.db #0x10
   0F77 28                 4255 	.db #0x28
   0F78 28                 4256 	.db #0x28
   0F79 10                 4257 	.db #0x10
   0F7A 44                 4258 	.db #0x44
   0F7B 00                 4259 	.db #0x00
   0F7C 00                 4260 	.db #0x00
   0F7D 00                 4261 	.db #0x00
   0F7E 00                 4262 	.db #0x00
   0F7F 00                 4263 	.db #0x00
   0F80 00                 4264 	.db #0x00
   0F81 00                 4265 	.db #0x00
   0F82 00                 4266 	.db #0x00
   0F83 00                 4267 	.db #0x00
   0F84 28                 4268 	.db #0x28
   0F85 00                 4269 	.db #0x00
   0F86 10                 4270 	.db #0x10
   0F87 00                 4271 	.db #0x00
   0F88 28                 4272 	.db #0x28
   0F89 00                 4273 	.db #0x00
   0F8A 00                 4274 	.db #0x00
   0F8B 00                 4275 	.db #0x00
   0F8C 00                 4276 	.db #0x00
   0F8D 00                 4277 	.db #0x00
   0F8E 00                 4278 	.db #0x00
   0F8F 00                 4279 	.db #0x00
   0F90 00                 4280 	.db #0x00
   0F91 00                 4281 	.db #0x00
   0F92 00                 4282 	.db #0x00
   0F93 00                 4283 	.db #0x00
   0F94 00                 4284 	.db #0x00
   0F95 00                 4285 	.db #0x00
   0F96 10                 4286 	.db #0x10
   0F97 00                 4287 	.db #0x00
   0F98 00                 4288 	.db #0x00
   0F99 00                 4289 	.db #0x00
   0F9A 00                 4290 	.db #0x00
   0F9B 00                 4291 	.db #0x00
   0F9C 00                 4292 	.db #0x00
   0F9D 00                 4293 	.db #0x00
   0F9E                    4294 _titleScreenTileData:
   0F9E FF                 4295 	.db #0xFF
   0F9F 00                 4296 	.db #0x00
   0FA0 FF                 4297 	.db #0xFF
   0FA1 00                 4298 	.db #0x00
   0FA2 FF                 4299 	.db #0xFF
   0FA3 00                 4300 	.db #0x00
   0FA4 FF                 4301 	.db #0xFF
   0FA5 00                 4302 	.db #0x00
   0FA6 FF                 4303 	.db #0xFF
   0FA7 00                 4304 	.db #0x00
   0FA8 FF                 4305 	.db #0xFF
   0FA9 00                 4306 	.db #0x00
   0FAA FF                 4307 	.db #0xFF
   0FAB 00                 4308 	.db #0x00
   0FAC FF                 4309 	.db #0xFF
   0FAD 00                 4310 	.db #0x00
   0FAE F0                 4311 	.db #0xF0
   0FAF 0F                 4312 	.db #0x0F
   0FB0 F8                 4313 	.db #0xF8
   0FB1 07                 4314 	.db #0x07
   0FB2 FF                 4315 	.db #0xFF
   0FB3 00                 4316 	.db #0x00
   0FB4 FF                 4317 	.db #0xFF
   0FB5 00                 4318 	.db #0x00
   0FB6 FF                 4319 	.db #0xFF
   0FB7 00                 4320 	.db #0x00
   0FB8 FF                 4321 	.db #0xFF
   0FB9 00                 4322 	.db #0x00
   0FBA FF                 4323 	.db #0xFF
   0FBB 00                 4324 	.db #0x00
   0FBC FF                 4325 	.db #0xFF
   0FBD 00                 4326 	.db #0x00
   0FBE 00                 4327 	.db #0x00
   0FBF F0                 4328 	.db #0xF0
   0FC0 00                 4329 	.db #0x00
   0FC1 FC                 4330 	.db #0xFC
   0FC2 00                 4331 	.db #0x00
   0FC3 FF                 4332 	.db #0xFF
   0FC4 C0                 4333 	.db #0xC0
   0FC5 3F                 4334 	.db #0x3F
   0FC6 F0                 4335 	.db #0xF0
   0FC7 0F                 4336 	.db #0x0F
   0FC8 FC                 4337 	.db #0xFC
   0FC9 03                 4338 	.db #0x03
   0FCA FF                 4339 	.db #0xFF
   0FCB 00                 4340 	.db #0x00
   0FCC FF                 4341 	.db #0xFF
   0FCD 00                 4342 	.db #0x00
   0FCE 00                 4343 	.db #0x00
   0FCF 00                 4344 	.db #0x00
   0FD0 00                 4345 	.db #0x00
   0FD1 00                 4346 	.db #0x00
   0FD2 00                 4347 	.db #0x00
   0FD3 00                 4348 	.db #0x00
   0FD4 00                 4349 	.db #0x00
   0FD5 E0                 4350 	.db #0xE0
   0FD6 00                 4351 	.db #0x00
   0FD7 F0                 4352 	.db #0xF0
   0FD8 00                 4353 	.db #0x00
   0FD9 FE                 4354 	.db #0xFE
   0FDA 00                 4355 	.db #0x00
   0FDB FF                 4356 	.db #0xFF
   0FDC C0                 4357 	.db #0xC0
   0FDD 3F                 4358 	.db #0x3F
   0FDE 00                 4359 	.db #0x00
   0FDF 00                 4360 	.db #0x00
   0FE0 00                 4361 	.db #0x00
   0FE1 00                 4362 	.db #0x00
   0FE2 00                 4363 	.db #0x00
   0FE3 00                 4364 	.db #0x00
   0FE4 00                 4365 	.db #0x00
   0FE5 00                 4366 	.db #0x00
   0FE6 00                 4367 	.db #0x00
   0FE7 00                 4368 	.db #0x00
   0FE8 00                 4369 	.db #0x00
   0FE9 00                 4370 	.db #0x00
   0FEA 00                 4371 	.db #0x00
   0FEB 00                 4372 	.db #0x00
   0FEC 00                 4373 	.db #0x00
   0FED C0                 4374 	.db #0xC0
   0FEE 00                 4375 	.db #0x00
   0FEF 00                 4376 	.db #0x00
   0FF0 00                 4377 	.db #0x00
   0FF1 00                 4378 	.db #0x00
   0FF2 00                 4379 	.db #0x00
   0FF3 00                 4380 	.db #0x00
   0FF4 00                 4381 	.db #0x00
   0FF5 00                 4382 	.db #0x00
   0FF6 00                 4383 	.db #0x00
   0FF7 00                 4384 	.db #0x00
   0FF8 00                 4385 	.db #0x00
   0FF9 00                 4386 	.db #0x00
   0FFA 00                 4387 	.db #0x00
   0FFB 00                 4388 	.db #0x00
   0FFC 00                 4389 	.db #0x00
   0FFD 00                 4390 	.db #0x00
   0FFE FF                 4391 	.db #0xFF
   0FFF 00                 4392 	.db #0x00
   1000 FE                 4393 	.db #0xFE
   1001 7C                 4394 	.db #0x7C
   1002 FC                 4395 	.db #0xFC
   1003 38                 4396 	.db #0x38
   1004 F8                 4397 	.db #0xF8
   1005 38                 4398 	.db #0x38
   1006 F8                 4399 	.db #0xF8
   1007 38                 4400 	.db #0x38
   1008 F8                 4401 	.db #0xF8
   1009 38                 4402 	.db #0x38
   100A F8                 4403 	.db #0xF8
   100B 38                 4404 	.db #0x38
   100C B8                 4405 	.db #0xB8
   100D 38                 4406 	.db #0x38
   100E 01                 4407 	.db #0x01
   100F 00                 4408 	.db #0x00
   1010 03                 4409 	.db #0x03
   1011 00                 4410 	.db #0x00
   1012 07                 4411 	.db #0x07
   1013 00                 4412 	.db #0x00
   1014 0F                 4413 	.db #0x0F
   1015 00                 4414 	.db #0x00
   1016 1F                 4415 	.db #0x1F
   1017 00                 4416 	.db #0x00
   1018 3F                 4417 	.db #0x3F
   1019 00                 4418 	.db #0x00
   101A 7F                 4419 	.db #0x7F
   101B 00                 4420 	.db #0x00
   101C FF                 4421 	.db #0xFF
   101D 00                 4422 	.db #0x00
   101E 80                 4423 	.db #0x80
   101F 00                 4424 	.db #0x00
   1020 C0                 4425 	.db #0xC0
   1021 00                 4426 	.db #0x00
   1022 E0                 4427 	.db #0xE0
   1023 00                 4428 	.db #0x00
   1024 F0                 4429 	.db #0xF0
   1025 00                 4430 	.db #0x00
   1026 F8                 4431 	.db #0xF8
   1027 00                 4432 	.db #0x00
   1028 FC                 4433 	.db #0xFC
   1029 00                 4434 	.db #0x00
   102A FE                 4435 	.db #0xFE
   102B 00                 4436 	.db #0x00
   102C FF                 4437 	.db #0xFF
   102D 00                 4438 	.db #0x00
   102E BE                 4439 	.db #0xBE
   102F 3E                 4440 	.db #0x3E
   1030 D1                 4441 	.db #0xD1
   1031 11                 4442 	.db #0x11
   1032 F1                 4443 	.db #0xF1
   1033 11                 4444 	.db #0x11
   1034 F1                 4445 	.db #0xF1
   1035 11                 4446 	.db #0x11
   1036 FE                 4447 	.db #0xFE
   1037 1E                 4448 	.db #0x1E
   1038 FE                 4449 	.db #0xFE
   1039 16                 4450 	.db #0x16
   103A FF                 4451 	.db #0xFF
   103B 13                 4452 	.db #0x13
   103C FF                 4453 	.db #0xFF
   103D 39                 4454 	.db #0x39
   103E 01                 4455 	.db #0x01
   103F 00                 4456 	.db #0x00
   1040 03                 4457 	.db #0x03
   1041 00                 4458 	.db #0x00
   1042 1F                 4459 	.db #0x1F
   1043 1C                 4460 	.db #0x1C
   1044 2F                 4461 	.db #0x2F
   1045 22                 4462 	.db #0x22
   1046 3F                 4463 	.db #0x3F
   1047 3E                 4464 	.db #0x3E
   1048 3F                 4465 	.db #0x3F
   1049 20                 4466 	.db #0x20
   104A 7F                 4467 	.db #0x7F
   104B 30                 4468 	.db #0x30
   104C FF                 4469 	.db #0xFF
   104D 9C                 4470 	.db #0x9C
   104E 80                 4471 	.db #0x80
   104F 00                 4472 	.db #0x00
   1050 C0                 4473 	.db #0xC0
   1051 00                 4474 	.db #0x00
   1052 FB                 4475 	.db #0xFB
   1053 3B                 4476 	.db #0x3B
   1054 F1                 4477 	.db #0xF1
   1055 41                 4478 	.db #0x41
   1056 F9                 4479 	.db #0xF9
   1057 61                 4480 	.db #0x61
   1058 FD                 4481 	.db #0xFD
   1059 19                 4482 	.db #0x19
   105A FF                 4483 	.db #0xFF
   105B 49                 4484 	.db #0x49
   105C FF                 4485 	.db #0xFF
   105D 71                 4486 	.db #0x71
   105E 01                 4487 	.db #0x01
   105F 00                 4488 	.db #0x00
   1060 03                 4489 	.db #0x03
   1061 00                 4490 	.db #0x00
   1062 37                 4491 	.db #0x37
   1063 36                 4492 	.db #0x36
   1064 1F                 4493 	.db #0x1F
   1065 13                 4494 	.db #0x13
   1066 1F                 4495 	.db #0x1F
   1067 12                 4496 	.db #0x12
   1068 3F                 4497 	.db #0x3F
   1069 12                 4498 	.db #0x12
   106A 7F                 4499 	.db #0x7F
   106B 12                 4500 	.db #0x12
   106C FF                 4501 	.db #0xFF
   106D FF                 4502 	.db #0xFF
   106E 80                 4503 	.db #0x80
   106F 00                 4504 	.db #0x00
   1070 C0                 4505 	.db #0xC0
   1071 00                 4506 	.db #0x00
   1072 FC                 4507 	.db #0xFC
   1073 DC                 4508 	.db #0xDC
   1074 F5                 4509 	.db #0xF5
   1075 25                 4510 	.db #0x25
   1076 FD                 4511 	.db #0xFD
   1077 25                 4512 	.db #0x25
   1078 FD                 4513 	.db #0xFD
   1079 25                 4514 	.db #0x25
   107A FF                 4515 	.db #0xFF
   107B 25                 4516 	.db #0x25
   107C FF                 4517 	.db #0xFF
   107D 7E                 4518 	.db #0x7E
   107E 01                 4519 	.db #0x01
   107F 00                 4520 	.db #0x00
   1080 03                 4521 	.db #0x03
   1081 00                 4522 	.db #0x00
   1082 E7                 4523 	.db #0xE7
   1083 E0                 4524 	.db #0xE0
   1084 1F                 4525 	.db #0x1F
   1085 10                 4526 	.db #0x10
   1086 FF                 4527 	.db #0xFF
   1087 F0                 4528 	.db #0xF0
   1088 3F                 4529 	.db #0x3F
   1089 00                 4530 	.db #0x00
   108A FF                 4531 	.db #0xFF
   108B 80                 4532 	.db #0x80
   108C FF                 4533 	.db #0xFF
   108D E0                 4534 	.db #0xE0
   108E 00                 4535 	.db #0x00
   108F 00                 4536 	.db #0x00
   1090 00                 4537 	.db #0x00
   1091 00                 4538 	.db #0x00
   1092 00                 4539 	.db #0x00
   1093 00                 4540 	.db #0x00
   1094 00                 4541 	.db #0x00
   1095 00                 4542 	.db #0x00
   1096 00                 4543 	.db #0x00
   1097 00                 4544 	.db #0x00
   1098 00                 4545 	.db #0x00
   1099 00                 4546 	.db #0x00
   109A 00                 4547 	.db #0x00
   109B 00                 4548 	.db #0x00
   109C 00                 4549 	.db #0x00
   109D 00                 4550 	.db #0x00
   109E FF                 4551 	.db #0xFF
   109F 00                 4552 	.db #0x00
   10A0 FF                 4553 	.db #0xFF
   10A1 00                 4554 	.db #0x00
   10A2 FF                 4555 	.db #0xFF
   10A3 00                 4556 	.db #0x00
   10A4 FF                 4557 	.db #0xFF
   10A5 00                 4558 	.db #0x00
   10A6 FF                 4559 	.db #0xFF
   10A7 00                 4560 	.db #0x00
   10A8 FF                 4561 	.db #0xFF
   10A9 00                 4562 	.db #0x00
   10AA FF                 4563 	.db #0xFF
   10AB 00                 4564 	.db #0x00
   10AC FF                 4565 	.db #0xFF
   10AD 00                 4566 	.db #0x00
   10AE FF                 4567 	.db #0xFF
   10AF 00                 4568 	.db #0x00
   10B0 FF                 4569 	.db #0xFF
   10B1 00                 4570 	.db #0x00
   10B2 FF                 4571 	.db #0xFF
   10B3 00                 4572 	.db #0x00
   10B4 FF                 4573 	.db #0xFF
   10B5 00                 4574 	.db #0x00
   10B6 FF                 4575 	.db #0xFF
   10B7 00                 4576 	.db #0x00
   10B8 FF                 4577 	.db #0xFF
   10B9 00                 4578 	.db #0x00
   10BA FF                 4579 	.db #0xFF
   10BB 00                 4580 	.db #0x00
   10BC FF                 4581 	.db #0xFF
   10BD 00                 4582 	.db #0x00
   10BE FF                 4583 	.db #0xFF
   10BF 00                 4584 	.db #0x00
   10C0 FF                 4585 	.db #0xFF
   10C1 00                 4586 	.db #0x00
   10C2 FF                 4587 	.db #0xFF
   10C3 00                 4588 	.db #0x00
   10C4 FF                 4589 	.db #0xFF
   10C5 00                 4590 	.db #0x00
   10C6 FF                 4591 	.db #0xFF
   10C7 00                 4592 	.db #0x00
   10C8 FF                 4593 	.db #0xFF
   10C9 00                 4594 	.db #0x00
   10CA FF                 4595 	.db #0xFF
   10CB 00                 4596 	.db #0x00
   10CC FF                 4597 	.db #0xFF
   10CD 00                 4598 	.db #0x00
   10CE E0                 4599 	.db #0xE0
   10CF 1F                 4600 	.db #0x1F
   10D0 F8                 4601 	.db #0xF8
   10D1 07                 4602 	.db #0x07
   10D2 FC                 4603 	.db #0xFC
   10D3 03                 4604 	.db #0x03
   10D4 FE                 4605 	.db #0xFE
   10D5 01                 4606 	.db #0x01
   10D6 FF                 4607 	.db #0xFF
   10D7 00                 4608 	.db #0x00
   10D8 FF                 4609 	.db #0xFF
   10D9 00                 4610 	.db #0x00
   10DA FF                 4611 	.db #0xFF
   10DB 00                 4612 	.db #0x00
   10DC FF                 4613 	.db #0xFF
   10DD 00                 4614 	.db #0x00
   10DE 00                 4615 	.db #0x00
   10DF E0                 4616 	.db #0xE0
   10E0 00                 4617 	.db #0x00
   10E1 F8                 4618 	.db #0xF8
   10E2 00                 4619 	.db #0x00
   10E3 FC                 4620 	.db #0xFC
   10E4 00                 4621 	.db #0x00
   10E5 FE                 4622 	.db #0xFE
   10E6 80                 4623 	.db #0x80
   10E7 7F                 4624 	.db #0x7F
   10E8 C0                 4625 	.db #0xC0
   10E9 3F                 4626 	.db #0x3F
   10EA E0                 4627 	.db #0xE0
   10EB 1F                 4628 	.db #0x1F
   10EC F0                 4629 	.db #0xF0
   10ED 0F                 4630 	.db #0x0F
   10EE 00                 4631 	.db #0x00
   10EF 00                 4632 	.db #0x00
   10F0 00                 4633 	.db #0x00
   10F1 00                 4634 	.db #0x00
   10F2 00                 4635 	.db #0x00
   10F3 00                 4636 	.db #0x00
   10F4 00                 4637 	.db #0x00
   10F5 00                 4638 	.db #0x00
   10F6 00                 4639 	.db #0x00
   10F7 00                 4640 	.db #0x00
   10F8 00                 4641 	.db #0x00
   10F9 80                 4642 	.db #0x80
   10FA 00                 4643 	.db #0x00
   10FB 80                 4644 	.db #0x80
   10FC 00                 4645 	.db #0x00
   10FD C0                 4646 	.db #0xC0
   10FE B8                 4647 	.db #0xB8
   10FF 38                 4648 	.db #0x38
   1100 F8                 4649 	.db #0xF8
   1101 38                 4650 	.db #0x38
   1102 F8                 4651 	.db #0xF8
   1103 38                 4652 	.db #0x38
   1104 F8                 4653 	.db #0xF8
   1105 38                 4654 	.db #0x38
   1106 FC                 4655 	.db #0xFC
   1107 7C                 4656 	.db #0x7C
   1108 FC                 4657 	.db #0xFC
   1109 00                 4658 	.db #0x00
   110A FE                 4659 	.db #0xFE
   110B 00                 4660 	.db #0x00
   110C FC                 4661 	.db #0xFC
   110D FC                 4662 	.db #0xFC
   110E FF                 4663 	.db #0xFF
   110F 00                 4664 	.db #0x00
   1110 7F                 4665 	.db #0x7F
   1111 00                 4666 	.db #0x00
   1112 3F                 4667 	.db #0x3F
   1113 00                 4668 	.db #0x00
   1114 1F                 4669 	.db #0x1F
   1115 00                 4670 	.db #0x00
   1116 0F                 4671 	.db #0x0F
   1117 00                 4672 	.db #0x00
   1118 07                 4673 	.db #0x07
   1119 00                 4674 	.db #0x00
   111A 03                 4675 	.db #0x03
   111B 00                 4676 	.db #0x00
   111C 01                 4677 	.db #0x01
   111D 00                 4678 	.db #0x00
   111E FF                 4679 	.db #0xFF
   111F 00                 4680 	.db #0x00
   1120 FE                 4681 	.db #0xFE
   1121 00                 4682 	.db #0x00
   1122 FC                 4683 	.db #0xFC
   1123 00                 4684 	.db #0x00
   1124 F8                 4685 	.db #0xF8
   1125 00                 4686 	.db #0x00
   1126 F0                 4687 	.db #0xF0
   1127 00                 4688 	.db #0x00
   1128 E0                 4689 	.db #0xE0
   1129 00                 4690 	.db #0x00
   112A C0                 4691 	.db #0xC0
   112B 00                 4692 	.db #0x00
   112C 80                 4693 	.db #0x80
   112D 00                 4694 	.db #0x00
   112E 00                 4695 	.db #0x00
   112F 00                 4696 	.db #0x00
   1130 00                 4697 	.db #0x00
   1131 00                 4698 	.db #0x00
   1132 00                 4699 	.db #0x00
   1133 00                 4700 	.db #0x00
   1134 00                 4701 	.db #0x00
   1135 00                 4702 	.db #0x00
   1136 00                 4703 	.db #0x00
   1137 00                 4704 	.db #0x00
   1138 00                 4705 	.db #0x00
   1139 00                 4706 	.db #0x00
   113A 00                 4707 	.db #0x00
   113B 00                 4708 	.db #0x00
   113C 00                 4709 	.db #0x00
   113D 00                 4710 	.db #0x00
   113E 00                 4711 	.db #0x00
   113F 00                 4712 	.db #0x00
   1140 00                 4713 	.db #0x00
   1141 00                 4714 	.db #0x00
   1142 00                 4715 	.db #0x00
   1143 00                 4716 	.db #0x00
   1144 00                 4717 	.db #0x00
   1145 00                 4718 	.db #0x00
   1146 00                 4719 	.db #0x00
   1147 00                 4720 	.db #0x00
   1148 00                 4721 	.db #0x00
   1149 00                 4722 	.db #0x00
   114A 00                 4723 	.db #0x00
   114B 00                 4724 	.db #0x00
   114C 00                 4725 	.db #0x00
   114D 00                 4726 	.db #0x00
   114E 00                 4727 	.db #0x00
   114F 00                 4728 	.db #0x00
   1150 00                 4729 	.db #0x00
   1151 00                 4730 	.db #0x00
   1152 00                 4731 	.db #0x00
   1153 00                 4732 	.db #0x00
   1154 00                 4733 	.db #0x00
   1155 00                 4734 	.db #0x00
   1156 00                 4735 	.db #0x00
   1157 00                 4736 	.db #0x00
   1158 00                 4737 	.db #0x00
   1159 00                 4738 	.db #0x00
   115A 00                 4739 	.db #0x00
   115B 00                 4740 	.db #0x00
   115C 00                 4741 	.db #0x00
   115D 00                 4742 	.db #0x00
   115E 00                 4743 	.db #0x00
   115F 00                 4744 	.db #0x00
   1160 00                 4745 	.db #0x00
   1161 00                 4746 	.db #0x00
   1162 00                 4747 	.db #0x00
   1163 00                 4748 	.db #0x00
   1164 00                 4749 	.db #0x00
   1165 00                 4750 	.db #0x00
   1166 00                 4751 	.db #0x00
   1167 00                 4752 	.db #0x00
   1168 00                 4753 	.db #0x00
   1169 00                 4754 	.db #0x00
   116A 00                 4755 	.db #0x00
   116B 00                 4756 	.db #0x00
   116C 00                 4757 	.db #0x00
   116D 00                 4758 	.db #0x00
   116E 00                 4759 	.db #0x00
   116F 00                 4760 	.db #0x00
   1170 00                 4761 	.db #0x00
   1171 00                 4762 	.db #0x00
   1172 00                 4763 	.db #0x00
   1173 00                 4764 	.db #0x00
   1174 00                 4765 	.db #0x00
   1175 00                 4766 	.db #0x00
   1176 00                 4767 	.db #0x00
   1177 00                 4768 	.db #0x00
   1178 00                 4769 	.db #0x00
   1179 00                 4770 	.db #0x00
   117A 00                 4771 	.db #0x00
   117B 00                 4772 	.db #0x00
   117C 00                 4773 	.db #0x00
   117D 00                 4774 	.db #0x00
   117E 00                 4775 	.db #0x00
   117F 00                 4776 	.db #0x00
   1180 00                 4777 	.db #0x00
   1181 00                 4778 	.db #0x00
   1182 00                 4779 	.db #0x00
   1183 00                 4780 	.db #0x00
   1184 00                 4781 	.db #0x00
   1185 00                 4782 	.db #0x00
   1186 00                 4783 	.db #0x00
   1187 00                 4784 	.db #0x00
   1188 00                 4785 	.db #0x00
   1189 00                 4786 	.db #0x00
   118A 00                 4787 	.db #0x00
   118B 00                 4788 	.db #0x00
   118C 00                 4789 	.db #0x00
   118D 00                 4790 	.db #0x00
   118E 00                 4791 	.db #0x00
   118F 00                 4792 	.db #0x00
   1190 00                 4793 	.db #0x00
   1191 00                 4794 	.db #0x00
   1192 00                 4795 	.db #0x00
   1193 00                 4796 	.db #0x00
   1194 00                 4797 	.db #0x00
   1195 00                 4798 	.db #0x00
   1196 00                 4799 	.db #0x00
   1197 00                 4800 	.db #0x00
   1198 00                 4801 	.db #0x00
   1199 00                 4802 	.db #0x00
   119A 00                 4803 	.db #0x00
   119B 00                 4804 	.db #0x00
   119C 00                 4805 	.db #0x00
   119D 00                 4806 	.db #0x00
   119E FF                 4807 	.db #0xFF
   119F 00                 4808 	.db #0x00
   11A0 FF                 4809 	.db #0xFF
   11A1 00                 4810 	.db #0x00
   11A2 FF                 4811 	.db #0xFF
   11A3 00                 4812 	.db #0x00
   11A4 FF                 4813 	.db #0xFF
   11A5 00                 4814 	.db #0x00
   11A6 FF                 4815 	.db #0xFF
   11A7 00                 4816 	.db #0x00
   11A8 FF                 4817 	.db #0xFF
   11A9 00                 4818 	.db #0x00
   11AA FF                 4819 	.db #0xFF
   11AB 00                 4820 	.db #0x00
   11AC FF                 4821 	.db #0xFF
   11AD 00                 4822 	.db #0x00
   11AE FF                 4823 	.db #0xFF
   11AF 00                 4824 	.db #0x00
   11B0 FF                 4825 	.db #0xFF
   11B1 00                 4826 	.db #0x00
   11B2 FF                 4827 	.db #0xFF
   11B3 00                 4828 	.db #0x00
   11B4 FF                 4829 	.db #0xFF
   11B5 00                 4830 	.db #0x00
   11B6 FF                 4831 	.db #0xFF
   11B7 00                 4832 	.db #0x00
   11B8 FF                 4833 	.db #0xFF
   11B9 00                 4834 	.db #0x00
   11BA FF                 4835 	.db #0xFF
   11BB 00                 4836 	.db #0x00
   11BC FF                 4837 	.db #0xFF
   11BD 00                 4838 	.db #0x00
   11BE FF                 4839 	.db #0xFF
   11BF 00                 4840 	.db #0x00
   11C0 FF                 4841 	.db #0xFF
   11C1 00                 4842 	.db #0x00
   11C2 FF                 4843 	.db #0xFF
   11C3 00                 4844 	.db #0x00
   11C4 FF                 4845 	.db #0xFF
   11C5 00                 4846 	.db #0x00
   11C6 FF                 4847 	.db #0xFF
   11C7 00                 4848 	.db #0x00
   11C8 FF                 4849 	.db #0xFF
   11C9 00                 4850 	.db #0x00
   11CA FF                 4851 	.db #0xFF
   11CB 00                 4852 	.db #0x00
   11CC FF                 4853 	.db #0xFF
   11CD 00                 4854 	.db #0x00
   11CE FF                 4855 	.db #0xFF
   11CF 00                 4856 	.db #0x00
   11D0 FF                 4857 	.db #0xFF
   11D1 00                 4858 	.db #0x00
   11D2 FF                 4859 	.db #0xFF
   11D3 00                 4860 	.db #0x00
   11D4 FF                 4861 	.db #0xFF
   11D5 00                 4862 	.db #0x00
   11D6 FF                 4863 	.db #0xFF
   11D7 00                 4864 	.db #0x00
   11D8 FF                 4865 	.db #0xFF
   11D9 00                 4866 	.db #0x00
   11DA FF                 4867 	.db #0xFF
   11DB 00                 4868 	.db #0x00
   11DC FF                 4869 	.db #0xFF
   11DD 00                 4870 	.db #0x00
   11DE F8                 4871 	.db #0xF8
   11DF 07                 4872 	.db #0x07
   11E0 F8                 4873 	.db #0xF8
   11E1 07                 4874 	.db #0x07
   11E2 FC                 4875 	.db #0xFC
   11E3 03                 4876 	.db #0x03
   11E4 FE                 4877 	.db #0xFE
   11E5 01                 4878 	.db #0x01
   11E6 FF                 4879 	.db #0xFF
   11E7 00                 4880 	.db #0x00
   11E8 FF                 4881 	.db #0xFF
   11E9 00                 4882 	.db #0x00
   11EA FF                 4883 	.db #0xFF
   11EB 00                 4884 	.db #0x00
   11EC FF                 4885 	.db #0xFF
   11ED 00                 4886 	.db #0x00
   11EE 00                 4887 	.db #0x00
   11EF E0                 4888 	.db #0xE0
   11F0 00                 4889 	.db #0x00
   11F1 F0                 4890 	.db #0xF0
   11F2 00                 4891 	.db #0x00
   11F3 F8                 4892 	.db #0xF8
   11F4 00                 4893 	.db #0x00
   11F5 F8                 4894 	.db #0xF8
   11F6 00                 4895 	.db #0x00
   11F7 FC                 4896 	.db #0xFC
   11F8 00                 4897 	.db #0x00
   11F9 FC                 4898 	.db #0xFC
   11FA 80                 4899 	.db #0x80
   11FB 7E                 4900 	.db #0x7E
   11FC C0                 4901 	.db #0xC0
   11FD 3E                 4902 	.db #0x3E
   11FE 00                 4903 	.db #0x00
   11FF 00                 4904 	.db #0x00
   1200 00                 4905 	.db #0x00
   1201 00                 4906 	.db #0x00
   1202 00                 4907 	.db #0x00
   1203 00                 4908 	.db #0x00
   1204 00                 4909 	.db #0x00
   1205 00                 4910 	.db #0x00
   1206 00                 4911 	.db #0x00
   1207 00                 4912 	.db #0x00
   1208 00                 4913 	.db #0x00
   1209 00                 4914 	.db #0x00
   120A 00                 4915 	.db #0x00
   120B 00                 4916 	.db #0x00
   120C 00                 4917 	.db #0x00
   120D 00                 4918 	.db #0x00
   120E 87                 4919 	.db #0x87
   120F 07                 4920 	.db #0x07
   1210 C8                 4921 	.db #0xC8
   1211 08                 4922 	.db #0x08
   1212 F0                 4923 	.db #0xF0
   1213 10                 4924 	.db #0x10
   1214 F0                 4925 	.db #0xF0
   1215 10                 4926 	.db #0x10
   1216 F8                 4927 	.db #0xF8
   1217 10                 4928 	.db #0x10
   1218 FC                 4929 	.db #0xFC
   1219 10                 4930 	.db #0x10
   121A FE                 4931 	.db #0xFE
   121B 08                 4932 	.db #0x08
   121C FF                 4933 	.db #0xFF
   121D 07                 4934 	.db #0x07
   121E 81                 4935 	.db #0x81
   121F 80                 4936 	.db #0x80
   1220 03                 4937 	.db #0x03
   1221 00                 4938 	.db #0x00
   1222 1F                 4939 	.db #0x1F
   1223 1E                 4940 	.db #0x1E
   1224 2F                 4941 	.db #0x2F
   1225 23                 4942 	.db #0x23
   1226 3F                 4943 	.db #0x3F
   1227 21                 4944 	.db #0x21
   1228 3F                 4945 	.db #0x3F
   1229 21                 4946 	.db #0x21
   122A 7F                 4947 	.db #0x7F
   122B 33                 4948 	.db #0x33
   122C FF                 4949 	.db #0xFF
   122D 9E                 4950 	.db #0x9E
   122E 80                 4951 	.db #0x80
   122F 00                 4952 	.db #0x00
   1230 C0                 4953 	.db #0xC0
   1231 00                 4954 	.db #0x00
   1232 ED                 4955 	.db #0xED
   1233 6D                 4956 	.db #0x6D
   1234 F2                 4957 	.db #0xF2
   1235 32                 4958 	.db #0x32
   1236 FA                 4959 	.db #0xFA
   1237 22                 4960 	.db #0x22
   1238 FE                 4961 	.db #0xFE
   1239 22                 4962 	.db #0x22
   123A FE                 4963 	.db #0xFE
   123B 22                 4964 	.db #0x22
   123C FF                 4965 	.db #0xFF
   123D 77                 4966 	.db #0x77
   123E 01                 4967 	.db #0x01
   123F 00                 4968 	.db #0x00
   1240 03                 4969 	.db #0x03
   1241 00                 4970 	.db #0x00
   1242 DF                 4971 	.db #0xDF
   1243 DB                 4972 	.db #0xDB
   1244 4F                 4973 	.db #0x4F
   1245 4C                 4974 	.db #0x4C
   1246 5F                 4975 	.db #0x5F
   1247 48                 4976 	.db #0x48
   1248 7F                 4977 	.db #0x7F
   1249 48                 4978 	.db #0x48
   124A 7F                 4979 	.db #0x7F
   124B 48                 4980 	.db #0x48
   124C FF                 4981 	.db #0xFF
   124D FD                 4982 	.db #0xFD
   124E 80                 4983 	.db #0x80
   124F 00                 4984 	.db #0x00
   1250 C0                 4985 	.db #0xC0
   1251 00                 4986 	.db #0x00
   1252 F3                 4987 	.db #0xF3
   1253 73                 4988 	.db #0x73
   1254 F4                 4989 	.db #0xF4
   1255 94                 4990 	.db #0x94
   1256 FF                 4991 	.db #0xFF
   1257 97                 4992 	.db #0x97
   1258 FC                 4993 	.db #0xFC
   1259 94                 4994 	.db #0x94
   125A FE                 4995 	.db #0xFE
   125B 96                 4996 	.db #0x96
   125C FF                 4997 	.db #0xFF
   125D FB                 4998 	.db #0xFB
   125E 01                 4999 	.db #0x01
   125F 00                 5000 	.db #0x00
   1260 03                 5001 	.db #0x03
   1261 00                 5002 	.db #0x00
   1262 9F                 5003 	.db #0x9F
   1263 9B                 5004 	.db #0x9B
   1264 4F                 5005 	.db #0x4F
   1265 4C                 5006 	.db #0x4C
   1266 DF                 5007 	.db #0xDF
   1267 C8                 5008 	.db #0xC8
   1268 3F                 5009 	.db #0x3F
   1269 08                 5010 	.db #0x08
   126A 7F                 5011 	.db #0x7F
   126B 08                 5012 	.db #0x08
   126C FF                 5013 	.db #0xFF
   126D 9D                 5014 	.db #0x9D
   126E 80                 5015 	.db #0x80
   126F 00                 5016 	.db #0x00
   1270 C0                 5017 	.db #0xC0
   1271 00                 5018 	.db #0x00
   1272 FC                 5019 	.db #0xFC
   1273 9C                 5020 	.db #0x9C
   1274 F0                 5021 	.db #0xF0
   1275 B0                 5022 	.db #0xB0
   1276 F8                 5023 	.db #0xF8
   1277 A0                 5024 	.db #0xA0
   1278 FC                 5025 	.db #0xFC
   1279 A0                 5026 	.db #0xA0
   127A FE                 5027 	.db #0xFE
   127B B0                 5028 	.db #0xB0
   127C FF                 5029 	.db #0xFF
   127D DC                 5030 	.db #0xDC
   127E 01                 5031 	.db #0x01
   127F 00                 5032 	.db #0x00
   1280 03                 5033 	.db #0x03
   1281 00                 5034 	.db #0x00
   1282 77                 5035 	.db #0x77
   1283 70                 5036 	.db #0x70
   1284 8F                 5037 	.db #0x8F
   1285 88                 5038 	.db #0x88
   1286 FF                 5039 	.db #0xFF
   1287 F8                 5040 	.db #0xF8
   1288 BF                 5041 	.db #0xBF
   1289 80                 5042 	.db #0x80
   128A FF                 5043 	.db #0xFF
   128B C0                 5044 	.db #0xC0
   128C FF                 5045 	.db #0xFF
   128D 70                 5046 	.db #0x70
   128E 00                 5047 	.db #0x00
   128F 00                 5048 	.db #0x00
   1290 00                 5049 	.db #0x00
   1291 00                 5050 	.db #0x00
   1292 00                 5051 	.db #0x00
   1293 00                 5052 	.db #0x00
   1294 00                 5053 	.db #0x00
   1295 00                 5054 	.db #0x00
   1296 00                 5055 	.db #0x00
   1297 00                 5056 	.db #0x00
   1298 00                 5057 	.db #0x00
   1299 00                 5058 	.db #0x00
   129A 00                 5059 	.db #0x00
   129B 00                 5060 	.db #0x00
   129C 00                 5061 	.db #0x00
   129D 00                 5062 	.db #0x00
   129E FF                 5063 	.db #0xFF
   129F 00                 5064 	.db #0x00
   12A0 FF                 5065 	.db #0xFF
   12A1 00                 5066 	.db #0x00
   12A2 FF                 5067 	.db #0xFF
   12A3 00                 5068 	.db #0x00
   12A4 FF                 5069 	.db #0xFF
   12A5 00                 5070 	.db #0x00
   12A6 7F                 5071 	.db #0x7F
   12A7 00                 5072 	.db #0x00
   12A8 7F                 5073 	.db #0x7F
   12A9 00                 5074 	.db #0x00
   12AA 7F                 5075 	.db #0x7F
   12AB 00                 5076 	.db #0x00
   12AC 7F                 5077 	.db #0x7F
   12AD 00                 5078 	.db #0x00
   12AE EF                 5079 	.db #0xEF
   12AF 00                 5080 	.db #0x00
   12B0 E7                 5081 	.db #0xE7
   12B1 00                 5082 	.db #0x00
   12B2 F3                 5083 	.db #0xF3
   12B3 00                 5084 	.db #0x00
   12B4 FB                 5085 	.db #0xFB
   12B5 00                 5086 	.db #0x00
   12B6 F9                 5087 	.db #0xF9
   12B7 00                 5088 	.db #0x00
   12B8 FD                 5089 	.db #0xFD
   12B9 00                 5090 	.db #0x00
   12BA FD                 5091 	.db #0xFD
   12BB 00                 5092 	.db #0x00
   12BC FC                 5093 	.db #0xFC
   12BD 00                 5094 	.db #0x00
   12BE FF                 5095 	.db #0xFF
   12BF 00                 5096 	.db #0x00
   12C0 FF                 5097 	.db #0xFF
   12C1 00                 5098 	.db #0x00
   12C2 FF                 5099 	.db #0xFF
   12C3 00                 5100 	.db #0x00
   12C4 FF                 5101 	.db #0xFF
   12C5 00                 5102 	.db #0x00
   12C6 FF                 5103 	.db #0xFF
   12C7 00                 5104 	.db #0x00
   12C8 FF                 5105 	.db #0xFF
   12C9 00                 5106 	.db #0x00
   12CA FF                 5107 	.db #0xFF
   12CB 00                 5108 	.db #0x00
   12CC FF                 5109 	.db #0xFF
   12CD 00                 5110 	.db #0x00
   12CE FF                 5111 	.db #0xFF
   12CF 00                 5112 	.db #0x00
   12D0 FF                 5113 	.db #0xFF
   12D1 00                 5114 	.db #0x00
   12D2 FF                 5115 	.db #0xFF
   12D3 00                 5116 	.db #0x00
   12D4 FF                 5117 	.db #0xFF
   12D5 00                 5118 	.db #0x00
   12D6 FF                 5119 	.db #0xFF
   12D7 00                 5120 	.db #0x00
   12D8 FF                 5121 	.db #0xFF
   12D9 00                 5122 	.db #0x00
   12DA 3F                 5123 	.db #0x3F
   12DB 00                 5124 	.db #0x00
   12DC BF                 5125 	.db #0xBF
   12DD 00                 5126 	.db #0x00
   12DE FF                 5127 	.db #0xFF
   12DF 00                 5128 	.db #0x00
   12E0 FF                 5129 	.db #0xFF
   12E1 00                 5130 	.db #0x00
   12E2 FF                 5131 	.db #0xFF
   12E3 00                 5132 	.db #0x00
   12E4 FF                 5133 	.db #0xFF
   12E5 00                 5134 	.db #0x00
   12E6 FF                 5135 	.db #0xFF
   12E7 00                 5136 	.db #0x00
   12E8 FF                 5137 	.db #0xFF
   12E9 00                 5138 	.db #0x00
   12EA FF                 5139 	.db #0xFF
   12EB 00                 5140 	.db #0x00
   12EC FF                 5141 	.db #0xFF
   12ED 00                 5142 	.db #0x00
   12EE E0                 5143 	.db #0xE0
   12EF 1F                 5144 	.db #0x1F
   12F0 E0                 5145 	.db #0xE0
   12F1 1F                 5146 	.db #0x1F
   12F2 F0                 5147 	.db #0xF0
   12F3 0F                 5148 	.db #0x0F
   12F4 F0                 5149 	.db #0xF0
   12F5 0F                 5150 	.db #0x0F
   12F6 F8                 5151 	.db #0xF8
   12F7 07                 5152 	.db #0x07
   12F8 F8                 5153 	.db #0xF8
   12F9 07                 5154 	.db #0x07
   12FA FC                 5155 	.db #0xFC
   12FB 03                 5156 	.db #0x03
   12FC FC                 5157 	.db #0xFC
   12FD 03                 5158 	.db #0x03
   12FE 00                 5159 	.db #0x00
   12FF 00                 5160 	.db #0x00
   1300 00                 5161 	.db #0x00
   1301 00                 5162 	.db #0x00
   1302 00                 5163 	.db #0x00
   1303 00                 5164 	.db #0x00
   1304 00                 5165 	.db #0x00
   1305 80                 5166 	.db #0x80
   1306 00                 5167 	.db #0x00
   1307 80                 5168 	.db #0x80
   1308 00                 5169 	.db #0x00
   1309 C0                 5170 	.db #0xC0
   130A 00                 5171 	.db #0x00
   130B C0                 5172 	.db #0xC0
   130C 00                 5173 	.db #0x00
   130D C0                 5174 	.db #0xC0
   130E 01                 5175 	.db #0x01
   130F 00                 5176 	.db #0x00
   1310 03                 5177 	.db #0x03
   1311 00                 5178 	.db #0x00
   1312 07                 5179 	.db #0x07
   1313 00                 5180 	.db #0x00
   1314 0F                 5181 	.db #0x0F
   1315 00                 5182 	.db #0x00
   1316 1F                 5183 	.db #0x1F
   1317 00                 5184 	.db #0x00
   1318 7F                 5185 	.db #0x7F
   1319 7C                 5186 	.db #0x7C
   131A 7F                 5187 	.db #0x7F
   131B 22                 5188 	.db #0x22
   131C FF                 5189 	.db #0xFF
   131D 22                 5190 	.db #0x22
   131E 80                 5191 	.db #0x80
   131F 00                 5192 	.db #0x00
   1320 C0                 5193 	.db #0xC0
   1321 00                 5194 	.db #0x00
   1322 E0                 5195 	.db #0xE0
   1323 00                 5196 	.db #0x00
   1324 F0                 5197 	.db #0xF0
   1325 00                 5198 	.db #0x00
   1326 F8                 5199 	.db #0xF8
   1327 00                 5200 	.db #0x00
   1328 FC                 5201 	.db #0xFC
   1329 00                 5202 	.db #0x00
   132A FE                 5203 	.db #0xFE
   132B 00                 5204 	.db #0x00
   132C FF                 5205 	.db #0xFF
   132D 39                 5206 	.db #0x39
   132E 01                 5207 	.db #0x01
   132F 00                 5208 	.db #0x00
   1330 03                 5209 	.db #0x03
   1331 00                 5210 	.db #0x00
   1332 07                 5211 	.db #0x07
   1333 00                 5212 	.db #0x00
   1334 0F                 5213 	.db #0x0F
   1335 00                 5214 	.db #0x00
   1336 7F                 5215 	.db #0x7F
   1337 70                 5216 	.db #0x70
   1338 BF                 5217 	.db #0xBF
   1339 80                 5218 	.db #0x80
   133A FF                 5219 	.db #0xFF
   133B 80                 5220 	.db #0x80
   133C FF                 5221 	.db #0xFF
   133D CF                 5222 	.db #0xCF
   133E 80                 5223 	.db #0x80
   133F 00                 5224 	.db #0x00
   1340 C0                 5225 	.db #0xC0
   1341 00                 5226 	.db #0x00
   1342 E0                 5227 	.db #0xE0
   1343 00                 5228 	.db #0x00
   1344 F0                 5229 	.db #0xF0
   1345 00                 5230 	.db #0x00
   1346 F8                 5231 	.db #0xF8
   1347 00                 5232 	.db #0x00
   1348 FC                 5233 	.db #0xFC
   1349 00                 5234 	.db #0x00
   134A FE                 5235 	.db #0xFE
   134B 00                 5236 	.db #0x00
   134C FF                 5237 	.db #0xFF
   134D 38                 5238 	.db #0x38
   134E 01                 5239 	.db #0x01
   134F 00                 5240 	.db #0x00
   1350 03                 5241 	.db #0x03
   1351 00                 5242 	.db #0x00
   1352 07                 5243 	.db #0x07
   1353 00                 5244 	.db #0x00
   1354 0F                 5245 	.db #0x0F
   1355 00                 5246 	.db #0x00
   1356 1F                 5247 	.db #0x1F
   1357 0C                 5248 	.db #0x0C
   1358 3F                 5249 	.db #0x3F
   1359 04                 5250 	.db #0x04
   135A 7F                 5251 	.db #0x7F
   135B 04                 5252 	.db #0x04
   135C FF                 5253 	.db #0xFF
   135D 77                 5254 	.db #0x77
   135E 80                 5255 	.db #0x80
   135F 00                 5256 	.db #0x00
   1360 C0                 5257 	.db #0xC0
   1361 00                 5258 	.db #0x00
   1362 E0                 5259 	.db #0xE0
   1363 00                 5260 	.db #0x00
   1364 F0                 5261 	.db #0xF0
   1365 00                 5262 	.db #0x00
   1366 F8                 5263 	.db #0xF8
   1367 00                 5264 	.db #0x00
   1368 FC                 5265 	.db #0xFC
   1369 00                 5266 	.db #0x00
   136A FE                 5267 	.db #0xFE
   136B 00                 5268 	.db #0x00
   136C FF                 5269 	.db #0xFF
   136D C1                 5270 	.db #0xC1
   136E 00                 5271 	.db #0x00
   136F 00                 5272 	.db #0x00
   1370 00                 5273 	.db #0x00
   1371 00                 5274 	.db #0x00
   1372 00                 5275 	.db #0x00
   1373 00                 5276 	.db #0x00
   1374 00                 5277 	.db #0x00
   1375 00                 5278 	.db #0x00
   1376 00                 5279 	.db #0x00
   1377 00                 5280 	.db #0x00
   1378 00                 5281 	.db #0x00
   1379 00                 5282 	.db #0x00
   137A 00                 5283 	.db #0x00
   137B 00                 5284 	.db #0x00
   137C 00                 5285 	.db #0x00
   137D 00                 5286 	.db #0x00
   137E 00                 5287 	.db #0x00
   137F 00                 5288 	.db #0x00
   1380 00                 5289 	.db #0x00
   1381 00                 5290 	.db #0x00
   1382 00                 5291 	.db #0x00
   1383 00                 5292 	.db #0x00
   1384 00                 5293 	.db #0x00
   1385 00                 5294 	.db #0x00
   1386 00                 5295 	.db #0x00
   1387 00                 5296 	.db #0x00
   1388 00                 5297 	.db #0x00
   1389 00                 5298 	.db #0x00
   138A 00                 5299 	.db #0x00
   138B 00                 5300 	.db #0x00
   138C 00                 5301 	.db #0x00
   138D 00                 5302 	.db #0x00
   138E 00                 5303 	.db #0x00
   138F 00                 5304 	.db #0x00
   1390 00                 5305 	.db #0x00
   1391 00                 5306 	.db #0x00
   1392 00                 5307 	.db #0x00
   1393 00                 5308 	.db #0x00
   1394 00                 5309 	.db #0x00
   1395 00                 5310 	.db #0x00
   1396 00                 5311 	.db #0x00
   1397 00                 5312 	.db #0x00
   1398 00                 5313 	.db #0x00
   1399 00                 5314 	.db #0x00
   139A 00                 5315 	.db #0x00
   139B 00                 5316 	.db #0x00
   139C 00                 5317 	.db #0x00
   139D 00                 5318 	.db #0x00
   139E 7F                 5319 	.db #0x7F
   139F 00                 5320 	.db #0x00
   13A0 7F                 5321 	.db #0x7F
   13A1 00                 5322 	.db #0x00
   13A2 7F                 5323 	.db #0x7F
   13A3 00                 5324 	.db #0x00
   13A4 7F                 5325 	.db #0x7F
   13A5 00                 5326 	.db #0x00
   13A6 7F                 5327 	.db #0x7F
   13A7 00                 5328 	.db #0x00
   13A8 3F                 5329 	.db #0x3F
   13A9 00                 5330 	.db #0x00
   13AA 3B                 5331 	.db #0x3B
   13AB 00                 5332 	.db #0x00
   13AC 3B                 5333 	.db #0x3B
   13AD 00                 5334 	.db #0x00
   13AE FC                 5335 	.db #0xFC
   13AF 00                 5336 	.db #0x00
   13B0 FC                 5337 	.db #0xFC
   13B1 00                 5338 	.db #0x00
   13B2 F8                 5339 	.db #0xF8
   13B3 04                 5340 	.db #0x04
   13B4 FC                 5341 	.db #0xFC
   13B5 02                 5342 	.db #0x02
   13B6 FC                 5343 	.db #0xFC
   13B7 02                 5344 	.db #0x02
   13B8 FC                 5345 	.db #0xFC
   13B9 02                 5346 	.db #0x02
   13BA FC                 5347 	.db #0xFC
   13BB 02                 5348 	.db #0x02
   13BC FC                 5349 	.db #0xFC
   13BD 02                 5350 	.db #0x02
   13BE FF                 5351 	.db #0xFF
   13BF 00                 5352 	.db #0x00
   13C0 FF                 5353 	.db #0xFF
   13C1 00                 5354 	.db #0x00
   13C2 7F                 5355 	.db #0x7F
   13C3 00                 5356 	.db #0x00
   13C4 7F                 5357 	.db #0x7F
   13C5 00                 5358 	.db #0x00
   13C6 7F                 5359 	.db #0x7F
   13C7 00                 5360 	.db #0x00
   13C8 7F                 5361 	.db #0x7F
   13C9 00                 5362 	.db #0x00
   13CA 5F                 5363 	.db #0x5F
   13CB 00                 5364 	.db #0x00
   13CC 1F                 5365 	.db #0x1F
   13CD 00                 5366 	.db #0x00
   13CE BF                 5367 	.db #0xBF
   13CF 00                 5368 	.db #0x00
   13D0 BF                 5369 	.db #0xBF
   13D1 00                 5370 	.db #0x00
   13D2 9F                 5371 	.db #0x9F
   13D3 00                 5372 	.db #0x00
   13D4 9F                 5373 	.db #0x9F
   13D5 00                 5374 	.db #0x00
   13D6 1F                 5375 	.db #0x1F
   13D7 80                 5376 	.db #0x80
   13D8 8F                 5377 	.db #0x8F
   13D9 40                 5378 	.db #0x40
   13DA 8F                 5379 	.db #0x8F
   13DB 40                 5380 	.db #0x40
   13DC 8F                 5381 	.db #0x8F
   13DD 40                 5382 	.db #0x40
   13DE FF                 5383 	.db #0xFF
   13DF 00                 5384 	.db #0x00
   13E0 FF                 5385 	.db #0xFF
   13E1 00                 5386 	.db #0x00
   13E2 FF                 5387 	.db #0xFF
   13E3 00                 5388 	.db #0x00
   13E4 FF                 5389 	.db #0xFF
   13E5 00                 5390 	.db #0x00
   13E6 FF                 5391 	.db #0xFF
   13E7 00                 5392 	.db #0x00
   13E8 FF                 5393 	.db #0xFF
   13E9 00                 5394 	.db #0x00
   13EA FF                 5395 	.db #0xFF
   13EB 00                 5396 	.db #0x00
   13EC FF                 5397 	.db #0xFF
   13ED 00                 5398 	.db #0x00
   13EE FC                 5399 	.db #0xFC
   13EF 03                 5400 	.db #0x03
   13F0 FE                 5401 	.db #0xFE
   13F1 01                 5402 	.db #0x01
   13F2 FE                 5403 	.db #0xFE
   13F3 01                 5404 	.db #0x01
   13F4 FE                 5405 	.db #0xFE
   13F5 01                 5406 	.db #0x01
   13F6 FE                 5407 	.db #0xFE
   13F7 01                 5408 	.db #0x01
   13F8 FE                 5409 	.db #0xFE
   13F9 01                 5410 	.db #0x01
   13FA FE                 5411 	.db #0xFE
   13FB 01                 5412 	.db #0x01
   13FC FF                 5413 	.db #0xFF
   13FD 00                 5414 	.db #0x00
   13FE 00                 5415 	.db #0x00
   13FF C0                 5416 	.db #0xC0
   1400 00                 5417 	.db #0x00
   1401 C0                 5418 	.db #0xC0
   1402 00                 5419 	.db #0x00
   1403 C0                 5420 	.db #0xC0
   1404 00                 5421 	.db #0x00
   1405 C0                 5422 	.db #0xC0
   1406 00                 5423 	.db #0x00
   1407 C0                 5424 	.db #0xC0
   1408 00                 5425 	.db #0x00
   1409 C0                 5426 	.db #0xC0
   140A 00                 5427 	.db #0x00
   140B C0                 5428 	.db #0xC0
   140C 00                 5429 	.db #0x00
   140D C0                 5430 	.db #0xC0
   140E FF                 5431 	.db #0xFF
   140F 22                 5432 	.db #0x22
   1410 7F                 5433 	.db #0x7F
   1411 3C                 5434 	.db #0x3C
   1412 3F                 5435 	.db #0x3F
   1413 2C                 5436 	.db #0x2C
   1414 3F                 5437 	.db #0x3F
   1415 26                 5438 	.db #0x26
   1416 7F                 5439 	.db #0x7F
   1417 73                 5440 	.db #0x73
   1418 07                 5441 	.db #0x07
   1419 00                 5442 	.db #0x00
   141A 03                 5443 	.db #0x03
   141B 00                 5444 	.db #0x00
   141C 01                 5445 	.db #0x01
   141D 00                 5446 	.db #0x00
   141E FF                 5447 	.db #0xFF
   141F 44                 5448 	.db #0x44
   1420 FE                 5449 	.db #0xFE
   1421 7C                 5450 	.db #0x7C
   1422 FC                 5451 	.db #0xFC
   1423 40                 5452 	.db #0x40
   1424 F8                 5453 	.db #0xF8
   1425 60                 5454 	.db #0x60
   1426 F9                 5455 	.db #0xF9
   1427 39                 5456 	.db #0x39
   1428 E0                 5457 	.db #0xE0
   1429 00                 5458 	.db #0x00
   142A C0                 5459 	.db #0xC0
   142B 00                 5460 	.db #0x00
   142C 80                 5461 	.db #0x80
   142D 00                 5462 	.db #0x00
   142E FF                 5463 	.db #0xFF
   142F 85                 5464 	.db #0x85
   1430 FF                 5465 	.db #0xFF
   1431 84                 5466 	.db #0x84
   1432 BF                 5467 	.db #0xBF
   1433 84                 5468 	.db #0x84
   1434 9F                 5469 	.db #0x9F
   1435 84                 5470 	.db #0x84
   1436 CF                 5471 	.db #0xCF
   1437 CE                 5472 	.db #0xCE
   1438 07                 5473 	.db #0x07
   1439 03                 5474 	.db #0x03
   143A 0F                 5475 	.db #0x0F
   143B 0C                 5476 	.db #0x0C
   143C 09                 5477 	.db #0x09
   143D 08                 5478 	.db #0x08
   143E FF                 5479 	.db #0xFF
   143F 44                 5480 	.db #0x44
   1440 FE                 5481 	.db #0xFE
   1441 7C                 5482 	.db #0x7C
   1442 FC                 5483 	.db #0xFC
   1443 40                 5484 	.db #0x40
   1444 F8                 5485 	.db #0xF8
   1445 60                 5486 	.db #0x60
   1446 F8                 5487 	.db #0xF8
   1447 38                 5488 	.db #0x38
   1448 E2                 5489 	.db #0xE2
   1449 02                 5490 	.db #0x02
   144A C2                 5491 	.db #0xC2
   144B 02                 5492 	.db #0x02
   144C 87                 5493 	.db #0x87
   144D 07                 5494 	.db #0x07
   144E FF                 5495 	.db #0xFF
   144F 84                 5496 	.db #0x84
   1450 FF                 5497 	.db #0xFF
   1451 C4                 5498 	.db #0xC4
   1452 3F                 5499 	.db #0x3F
   1453 34                 5500 	.db #0x34
   1454 9F                 5501 	.db #0x9F
   1455 94                 5502 	.db #0x94
   1456 FF                 5503 	.db #0xFF
   1457 FE                 5504 	.db #0xFE
   1458 0F                 5505 	.db #0x0F
   1459 08                 5506 	.db #0x08
   145A 8B                 5507 	.db #0x8B
   145B 88                 5508 	.db #0x88
   145C CF                 5509 	.db #0xCF
   145D CF                 5510 	.db #0xCF
   145E FF                 5511 	.db #0xFF
   145F 41                 5512 	.db #0x41
   1460 FF                 5513 	.db #0xFF
   1461 41                 5514 	.db #0x41
   1462 FD                 5515 	.db #0xFD
   1463 41                 5516 	.db #0x41
   1464 F8                 5517 	.db #0xF8
   1465 40                 5518 	.db #0x40
   1466 F0                 5519 	.db #0xF0
   1467 F0                 5520 	.db #0xF0
   1468 E2                 5521 	.db #0xE2
   1469 02                 5522 	.db #0x02
   146A C2                 5523 	.db #0xC2
   146B 02                 5524 	.db #0x02
   146C B7                 5525 	.db #0xB7
   146D 37                 5526 	.db #0x37
   146E 00                 5527 	.db #0x00
   146F 00                 5528 	.db #0x00
   1470 00                 5529 	.db #0x00
   1471 00                 5530 	.db #0x00
   1472 00                 5531 	.db #0x00
   1473 00                 5532 	.db #0x00
   1474 00                 5533 	.db #0x00
   1475 00                 5534 	.db #0x00
   1476 00                 5535 	.db #0x00
   1477 00                 5536 	.db #0x00
   1478 00                 5537 	.db #0x00
   1479 00                 5538 	.db #0x00
   147A 00                 5539 	.db #0x00
   147B 00                 5540 	.db #0x00
   147C 00                 5541 	.db #0x00
   147D 00                 5542 	.db #0x00
   147E 00                 5543 	.db #0x00
   147F 00                 5544 	.db #0x00
   1480 00                 5545 	.db #0x00
   1481 00                 5546 	.db #0x00
   1482 00                 5547 	.db #0x00
   1483 00                 5548 	.db #0x00
   1484 00                 5549 	.db #0x00
   1485 00                 5550 	.db #0x00
   1486 00                 5551 	.db #0x00
   1487 00                 5552 	.db #0x00
   1488 00                 5553 	.db #0x00
   1489 00                 5554 	.db #0x00
   148A 00                 5555 	.db #0x00
   148B 00                 5556 	.db #0x00
   148C 00                 5557 	.db #0x00
   148D 00                 5558 	.db #0x00
   148E 00                 5559 	.db #0x00
   148F 00                 5560 	.db #0x00
   1490 00                 5561 	.db #0x00
   1491 00                 5562 	.db #0x00
   1492 00                 5563 	.db #0x00
   1493 00                 5564 	.db #0x00
   1494 00                 5565 	.db #0x00
   1495 00                 5566 	.db #0x00
   1496 00                 5567 	.db #0x00
   1497 00                 5568 	.db #0x00
   1498 00                 5569 	.db #0x00
   1499 00                 5570 	.db #0x00
   149A 00                 5571 	.db #0x00
   149B 00                 5572 	.db #0x00
   149C 00                 5573 	.db #0x00
   149D 00                 5574 	.db #0x00
   149E 3B                 5575 	.db #0x3B
   149F 00                 5576 	.db #0x00
   14A0 3B                 5577 	.db #0x3B
   14A1 00                 5578 	.db #0x00
   14A2 3B                 5579 	.db #0x3B
   14A3 00                 5580 	.db #0x00
   14A4 1B                 5581 	.db #0x1B
   14A5 00                 5582 	.db #0x00
   14A6 1B                 5583 	.db #0x1B
   14A7 00                 5584 	.db #0x00
   14A8 1B                 5585 	.db #0x1B
   14A9 00                 5586 	.db #0x00
   14AA 01                 5587 	.db #0x01
   14AB 00                 5588 	.db #0x00
   14AC 01                 5589 	.db #0x01
   14AD 00                 5590 	.db #0x00
   14AE FC                 5591 	.db #0xFC
   14AF 02                 5592 	.db #0x02
   14B0 FC                 5593 	.db #0xFC
   14B1 02                 5594 	.db #0x02
   14B2 FE                 5595 	.db #0xFE
   14B3 01                 5596 	.db #0x01
   14B4 FE                 5597 	.db #0xFE
   14B5 01                 5598 	.db #0x01
   14B6 FE                 5599 	.db #0xFE
   14B7 01                 5600 	.db #0x01
   14B8 FE                 5601 	.db #0xFE
   14B9 01                 5602 	.db #0x01
   14BA FE                 5603 	.db #0xFE
   14BB 01                 5604 	.db #0x01
   14BC FE                 5605 	.db #0xFE
   14BD 01                 5606 	.db #0x01
   14BE 1F                 5607 	.db #0x1F
   14BF 00                 5608 	.db #0x00
   14C0 1F                 5609 	.db #0x1F
   14C1 00                 5610 	.db #0x00
   14C2 1F                 5611 	.db #0x1F
   14C3 00                 5612 	.db #0x00
   14C4 1F                 5613 	.db #0x1F
   14C5 00                 5614 	.db #0x00
   14C6 1F                 5615 	.db #0x1F
   14C7 00                 5616 	.db #0x00
   14C8 1F                 5617 	.db #0x1F
   14C9 00                 5618 	.db #0x00
   14CA 1F                 5619 	.db #0x1F
   14CB 00                 5620 	.db #0x00
   14CC 00                 5621 	.db #0x00
   14CD FF                 5622 	.db #0xFF
   14CE A7                 5623 	.db #0xA7
   14CF 40                 5624 	.db #0x40
   14D0 C7                 5625 	.db #0xC7
   14D1 20                 5626 	.db #0x20
   14D2 C7                 5627 	.db #0xC7
   14D3 20                 5628 	.db #0x20
   14D4 C7                 5629 	.db #0xC7
   14D5 20                 5630 	.db #0x20
   14D6 C3                 5631 	.db #0xC3
   14D7 20                 5632 	.db #0x20
   14D8 C3                 5633 	.db #0xC3
   14D9 20                 5634 	.db #0x20
   14DA C3                 5635 	.db #0xC3
   14DB 20                 5636 	.db #0x20
   14DC 03                 5637 	.db #0x03
   14DD E0                 5638 	.db #0xE0
   14DE FF                 5639 	.db #0xFF
   14DF 00                 5640 	.db #0x00
   14E0 FF                 5641 	.db #0xFF
   14E1 00                 5642 	.db #0x00
   14E2 FF                 5643 	.db #0xFF
   14E3 00                 5644 	.db #0x00
   14E4 FF                 5645 	.db #0xFF
   14E5 00                 5646 	.db #0x00
   14E6 FF                 5647 	.db #0xFF
   14E7 00                 5648 	.db #0x00
   14E8 FF                 5649 	.db #0xFF
   14E9 00                 5650 	.db #0x00
   14EA FF                 5651 	.db #0xFF
   14EB 00                 5652 	.db #0x00
   14EC FF                 5653 	.db #0xFF
   14ED 00                 5654 	.db #0x00
   14EE FF                 5655 	.db #0xFF
   14EF 00                 5656 	.db #0x00
   14F0 FF                 5657 	.db #0xFF
   14F1 00                 5658 	.db #0x00
   14F2 FF                 5659 	.db #0xFF
   14F3 00                 5660 	.db #0x00
   14F4 FF                 5661 	.db #0xFF
   14F5 00                 5662 	.db #0x00
   14F6 FF                 5663 	.db #0xFF
   14F7 00                 5664 	.db #0x00
   14F8 FF                 5665 	.db #0xFF
   14F9 00                 5666 	.db #0x00
   14FA FF                 5667 	.db #0xFF
   14FB 00                 5668 	.db #0x00
   14FC FF                 5669 	.db #0xFF
   14FD 00                 5670 	.db #0x00
   14FE 00                 5671 	.db #0x00
   14FF C0                 5672 	.db #0xC0
   1500 00                 5673 	.db #0x00
   1501 C0                 5674 	.db #0xC0
   1502 00                 5675 	.db #0x00
   1503 C0                 5676 	.db #0xC0
   1504 00                 5677 	.db #0x00
   1505 E0                 5678 	.db #0xE0
   1506 00                 5679 	.db #0x00
   1507 E0                 5680 	.db #0xE0
   1508 00                 5681 	.db #0x00
   1509 E0                 5682 	.db #0xE0
   150A 00                 5683 	.db #0x00
   150B E0                 5684 	.db #0xE0
   150C 00                 5685 	.db #0x00
   150D E0                 5686 	.db #0xE0
   150E 39                 5687 	.db #0x39
   150F 38                 5688 	.db #0x38
   1510 0F                 5689 	.db #0x0F
   1511 0C                 5690 	.db #0x0C
   1512 0F                 5691 	.db #0x0F
   1513 08                 5692 	.db #0x08
   1514 1F                 5693 	.db #0x1F
   1515 10                 5694 	.db #0x10
   1516 7F                 5695 	.db #0x7F
   1517 7C                 5696 	.db #0x7C
   1518 3F                 5697 	.db #0x3F
   1519 00                 5698 	.db #0x00
   151A 7F                 5699 	.db #0x7F
   151B 00                 5700 	.db #0x00
   151C FF                 5701 	.db #0xFF
   151D 00                 5702 	.db #0x00
   151E FB                 5703 	.db #0xFB
   151F 7B                 5704 	.db #0x7B
   1520 C5                 5705 	.db #0xC5
   1521 85                 5706 	.db #0x85
   1522 E5                 5707 	.db #0xE5
   1523 85                 5708 	.db #0x85
   1524 F5                 5709 	.db #0xF5
   1525 85                 5710 	.db #0x85
   1526 FB                 5711 	.db #0xFB
   1527 7B                 5712 	.db #0x7B
   1528 FC                 5713 	.db #0xFC
   1529 00                 5714 	.db #0x00
   152A FE                 5715 	.db #0xFE
   152B 00                 5716 	.db #0x00
   152C FF                 5717 	.db #0xFF
   152D 00                 5718 	.db #0x00
   152E 1F                 5719 	.db #0x1F
   152F 1E                 5720 	.db #0x1E
   1530 13                 5721 	.db #0x13
   1531 11                 5722 	.db #0x11
   1532 17                 5723 	.db #0x17
   1533 11                 5724 	.db #0x11
   1534 1F                 5725 	.db #0x1F
   1535 11                 5726 	.db #0x11
   1536 9F                 5727 	.db #0x9F
   1537 8E                 5728 	.db #0x8E
   1538 3F                 5729 	.db #0x3F
   1539 00                 5730 	.db #0x00
   153A 7F                 5731 	.db #0x7F
   153B 00                 5732 	.db #0x00
   153C FF                 5733 	.db #0xFF
   153D 00                 5734 	.db #0x00
   153E 82                 5735 	.db #0x82
   153F 02                 5736 	.db #0x02
   1540 C2                 5737 	.db #0xC2
   1541 02                 5738 	.db #0x02
   1542 EF                 5739 	.db #0xEF
   1543 0F                 5740 	.db #0x0F
   1544 F4                 5741 	.db #0xF4
   1545 04                 5742 	.db #0x04
   1546 FC                 5743 	.db #0xFC
   1547 04                 5744 	.db #0x04
   1548 FC                 5745 	.db #0xFC
   1549 00                 5746 	.db #0x00
   154A FE                 5747 	.db #0xFE
   154B 00                 5748 	.db #0x00
   154C FF                 5749 	.db #0xFF
   154D 00                 5750 	.db #0x00
   154E 89                 5751 	.db #0x89
   154F 88                 5752 	.db #0x88
   1550 8B                 5753 	.db #0x8B
   1551 88                 5754 	.db #0x88
   1552 CF                 5755 	.db #0xCF
   1553 C8                 5756 	.db #0xC8
   1554 8F                 5757 	.db #0x8F
   1555 89                 5758 	.db #0x89
   1556 1F                 5759 	.db #0x1F
   1557 0F                 5760 	.db #0x0F
   1558 3F                 5761 	.db #0x3F
   1559 00                 5762 	.db #0x00
   155A 7F                 5763 	.db #0x7F
   155B 00                 5764 	.db #0x00
   155C FF                 5765 	.db #0xFF
   155D 00                 5766 	.db #0x00
   155E 92                 5767 	.db #0x92
   155F 92                 5768 	.db #0x92
   1560 D2                 5769 	.db #0xD2
   1561 92                 5770 	.db #0x92
   1562 F2                 5771 	.db #0xF2
   1563 92                 5772 	.db #0x92
   1564 F2                 5773 	.db #0xF2
   1565 92                 5774 	.db #0x92
   1566 FB                 5775 	.db #0xFB
   1567 3B                 5776 	.db #0x3B
   1568 FC                 5777 	.db #0xFC
   1569 00                 5778 	.db #0x00
   156A FE                 5779 	.db #0xFE
   156B 00                 5780 	.db #0x00
   156C FF                 5781 	.db #0xFF
   156D 00                 5782 	.db #0x00
   156E 00                 5783 	.db #0x00
   156F 00                 5784 	.db #0x00
   1570 00                 5785 	.db #0x00
   1571 00                 5786 	.db #0x00
   1572 00                 5787 	.db #0x00
   1573 00                 5788 	.db #0x00
   1574 00                 5789 	.db #0x00
   1575 00                 5790 	.db #0x00
   1576 00                 5791 	.db #0x00
   1577 00                 5792 	.db #0x00
   1578 00                 5793 	.db #0x00
   1579 00                 5794 	.db #0x00
   157A 00                 5795 	.db #0x00
   157B 00                 5796 	.db #0x00
   157C 00                 5797 	.db #0x00
   157D 00                 5798 	.db #0x00
   157E 00                 5799 	.db #0x00
   157F 00                 5800 	.db #0x00
   1580 00                 5801 	.db #0x00
   1581 00                 5802 	.db #0x00
   1582 00                 5803 	.db #0x00
   1583 00                 5804 	.db #0x00
   1584 00                 5805 	.db #0x00
   1585 00                 5806 	.db #0x00
   1586 00                 5807 	.db #0x00
   1587 00                 5808 	.db #0x00
   1588 00                 5809 	.db #0x00
   1589 00                 5810 	.db #0x00
   158A 00                 5811 	.db #0x00
   158B 00                 5812 	.db #0x00
   158C 00                 5813 	.db #0x00
   158D 00                 5814 	.db #0x00
   158E 00                 5815 	.db #0x00
   158F 00                 5816 	.db #0x00
   1590 00                 5817 	.db #0x00
   1591 00                 5818 	.db #0x00
   1592 00                 5819 	.db #0x00
   1593 00                 5820 	.db #0x00
   1594 00                 5821 	.db #0x00
   1595 00                 5822 	.db #0x00
   1596 00                 5823 	.db #0x00
   1597 00                 5824 	.db #0x00
   1598 00                 5825 	.db #0x00
   1599 00                 5826 	.db #0x00
   159A 00                 5827 	.db #0x00
   159B 00                 5828 	.db #0x00
   159C 00                 5829 	.db #0x00
   159D 00                 5830 	.db #0x00
   159E 01                 5831 	.db #0x01
   159F 00                 5832 	.db #0x00
   15A0 00                 5833 	.db #0x00
   15A1 00                 5834 	.db #0x00
   15A2 00                 5835 	.db #0x00
   15A3 7F                 5836 	.db #0x7F
   15A4 00                 5837 	.db #0x00
   15A5 C0                 5838 	.db #0xC0
   15A6 00                 5839 	.db #0x00
   15A7 00                 5840 	.db #0x00
   15A8 00                 5841 	.db #0x00
   15A9 00                 5842 	.db #0x00
   15AA 00                 5843 	.db #0x00
   15AB 00                 5844 	.db #0x00
   15AC 00                 5845 	.db #0x00
   15AD 00                 5846 	.db #0x00
   15AE FE                 5847 	.db #0xFE
   15AF 01                 5848 	.db #0x01
   15B0 80                 5849 	.db #0x80
   15B1 7E                 5850 	.db #0x7E
   15B2 00                 5851 	.db #0x00
   15B3 80                 5852 	.db #0x80
   15B4 00                 5853 	.db #0x00
   15B5 00                 5854 	.db #0x00
   15B6 00                 5855 	.db #0x00
   15B7 00                 5856 	.db #0x00
   15B8 00                 5857 	.db #0x00
   15B9 00                 5858 	.db #0x00
   15BA 00                 5859 	.db #0x00
   15BB 00                 5860 	.db #0x00
   15BC 00                 5861 	.db #0x00
   15BD 00                 5862 	.db #0x00
   15BE 00                 5863 	.db #0x00
   15BF 00                 5864 	.db #0x00
   15C0 00                 5865 	.db #0x00
   15C1 00                 5866 	.db #0x00
   15C2 00                 5867 	.db #0x00
   15C3 00                 5868 	.db #0x00
   15C4 00                 5869 	.db #0x00
   15C5 00                 5870 	.db #0x00
   15C6 00                 5871 	.db #0x00
   15C7 00                 5872 	.db #0x00
   15C8 00                 5873 	.db #0x00
   15C9 00                 5874 	.db #0x00
   15CA 00                 5875 	.db #0x00
   15CB 00                 5876 	.db #0x00
   15CC 00                 5877 	.db #0x00
   15CD 00                 5878 	.db #0x00
   15CE 03                 5879 	.db #0x03
   15CF 20                 5880 	.db #0x20
   15D0 03                 5881 	.db #0x03
   15D1 20                 5882 	.db #0x20
   15D2 03                 5883 	.db #0x03
   15D3 20                 5884 	.db #0x20
   15D4 03                 5885 	.db #0x03
   15D5 20                 5886 	.db #0x20
   15D6 03                 5887 	.db #0x03
   15D7 20                 5888 	.db #0x20
   15D8 03                 5889 	.db #0x03
   15D9 10                 5890 	.db #0x10
   15DA 03                 5891 	.db #0x03
   15DB 10                 5892 	.db #0x10
   15DC 03                 5893 	.db #0x03
   15DD 10                 5894 	.db #0x10
   15DE FF                 5895 	.db #0xFF
   15DF 00                 5896 	.db #0x00
   15E0 FF                 5897 	.db #0xFF
   15E1 00                 5898 	.db #0x00
   15E2 FF                 5899 	.db #0xFF
   15E3 00                 5900 	.db #0x00
   15E4 FF                 5901 	.db #0xFF
   15E5 00                 5902 	.db #0x00
   15E6 FF                 5903 	.db #0xFF
   15E7 00                 5904 	.db #0x00
   15E8 EF                 5905 	.db #0xEF
   15E9 10                 5906 	.db #0x10
   15EA EF                 5907 	.db #0xEF
   15EB 10                 5908 	.db #0x10
   15EC EF                 5909 	.db #0xEF
   15ED 10                 5910 	.db #0x10
   15EE FF                 5911 	.db #0xFF
   15EF 00                 5912 	.db #0x00
   15F0 FF                 5913 	.db #0xFF
   15F1 00                 5914 	.db #0x00
   15F2 FF                 5915 	.db #0xFF
   15F3 00                 5916 	.db #0x00
   15F4 FF                 5917 	.db #0xFF
   15F5 00                 5918 	.db #0x00
   15F6 FF                 5919 	.db #0xFF
   15F7 00                 5920 	.db #0x00
   15F8 FF                 5921 	.db #0xFF
   15F9 00                 5922 	.db #0x00
   15FA FF                 5923 	.db #0xFF
   15FB 00                 5924 	.db #0x00
   15FC FE                 5925 	.db #0xFE
   15FD 01                 5926 	.db #0x01
   15FE 00                 5927 	.db #0x00
   15FF E0                 5928 	.db #0xE0
   1600 00                 5929 	.db #0x00
   1601 E0                 5930 	.db #0xE0
   1602 00                 5931 	.db #0x00
   1603 E0                 5932 	.db #0xE0
   1604 00                 5933 	.db #0x00
   1605 E0                 5934 	.db #0xE0
   1606 00                 5935 	.db #0x00
   1607 E0                 5936 	.db #0xE0
   1608 00                 5937 	.db #0x00
   1609 FE                 5938 	.db #0xFE
   160A 30                 5939 	.db #0x30
   160B CF                 5940 	.db #0xCF
   160C F8                 5941 	.db #0xF8
   160D 07                 5942 	.db #0x07
   160E 00                 5943 	.db #0x00
   160F 00                 5944 	.db #0x00
   1610 00                 5945 	.db #0x00
   1611 00                 5946 	.db #0x00
   1612 00                 5947 	.db #0x00
   1613 00                 5948 	.db #0x00
   1614 00                 5949 	.db #0x00
   1615 00                 5950 	.db #0x00
   1616 00                 5951 	.db #0x00
   1617 00                 5952 	.db #0x00
   1618 00                 5953 	.db #0x00
   1619 00                 5954 	.db #0x00
   161A 00                 5955 	.db #0x00
   161B 80                 5956 	.db #0x80
   161C 00                 5957 	.db #0x00
   161D C0                 5958 	.db #0xC0
   161E 01                 5959 	.db #0x01
   161F 00                 5960 	.db #0x00
   1620 03                 5961 	.db #0x03
   1621 00                 5962 	.db #0x00
   1622 07                 5963 	.db #0x07
   1623 00                 5964 	.db #0x00
   1624 0F                 5965 	.db #0x0F
   1625 00                 5966 	.db #0x00
   1626 1F                 5967 	.db #0x1F
   1627 00                 5968 	.db #0x00
   1628 7F                 5969 	.db #0x7F
   1629 78                 5970 	.db #0x78
   162A FF                 5971 	.db #0xFF
   162B 80                 5972 	.db #0x80
   162C FF                 5973 	.db #0xFF
   162D 01                 5974 	.db #0x01
   162E 80                 5975 	.db #0x80
   162F 00                 5976 	.db #0x00
   1630 C0                 5977 	.db #0xC0
   1631 00                 5978 	.db #0x00
   1632 E0                 5979 	.db #0xE0
   1633 00                 5980 	.db #0x00
   1634 F0                 5981 	.db #0xF0
   1635 00                 5982 	.db #0x00
   1636 F8                 5983 	.db #0xF8
   1637 00                 5984 	.db #0x00
   1638 FC                 5985 	.db #0xFC
   1639 00                 5986 	.db #0x00
   163A FE                 5987 	.db #0xFE
   163B 00                 5988 	.db #0x00
   163C FF                 5989 	.db #0xFF
   163D ED                 5990 	.db #0xED
   163E 01                 5991 	.db #0x01
   163F 00                 5992 	.db #0x00
   1640 03                 5993 	.db #0x03
   1641 00                 5994 	.db #0x00
   1642 07                 5995 	.db #0x07
   1643 00                 5996 	.db #0x00
   1644 0F                 5997 	.db #0x0F
   1645 00                 5998 	.db #0x00
   1646 1F                 5999 	.db #0x1F
   1647 00                 6000 	.db #0x00
   1648 3F                 6001 	.db #0x3F
   1649 00                 6002 	.db #0x00
   164A 7F                 6003 	.db #0x7F
   164B 00                 6004 	.db #0x00
   164C FF                 6005 	.db #0xFF
   164D B9                 6006 	.db #0xB9
   164E 80                 6007 	.db #0x80
   164F 00                 6008 	.db #0x00
   1650 C0                 6009 	.db #0xC0
   1651 00                 6010 	.db #0x00
   1652 E0                 6011 	.db #0xE0
   1653 00                 6012 	.db #0x00
   1654 F0                 6013 	.db #0xF0
   1655 00                 6014 	.db #0x00
   1656 F8                 6015 	.db #0xF8
   1657 00                 6016 	.db #0x00
   1658 FC                 6017 	.db #0xFC
   1659 00                 6018 	.db #0x00
   165A FE                 6019 	.db #0xFE
   165B 00                 6020 	.db #0x00
   165C FF                 6021 	.db #0xFF
   165D C3                 6022 	.db #0xC3
   165E 01                 6023 	.db #0x01
   165F 00                 6024 	.db #0x00
   1660 03                 6025 	.db #0x03
   1661 00                 6026 	.db #0x00
   1662 07                 6027 	.db #0x07
   1663 00                 6028 	.db #0x00
   1664 0F                 6029 	.db #0x0F
   1665 00                 6030 	.db #0x00
   1666 1F                 6031 	.db #0x1F
   1667 00                 6032 	.db #0x00
   1668 3F                 6033 	.db #0x3F
   1669 00                 6034 	.db #0x00
   166A 7F                 6035 	.db #0x7F
   166B 00                 6036 	.db #0x00
   166C FF                 6037 	.db #0xFF
   166D 80                 6038 	.db #0x80
   166E 00                 6039 	.db #0x00
   166F 00                 6040 	.db #0x00
   1670 00                 6041 	.db #0x00
   1671 00                 6042 	.db #0x00
   1672 00                 6043 	.db #0x00
   1673 00                 6044 	.db #0x00
   1674 00                 6045 	.db #0x00
   1675 00                 6046 	.db #0x00
   1676 00                 6047 	.db #0x00
   1677 00                 6048 	.db #0x00
   1678 00                 6049 	.db #0x00
   1679 00                 6050 	.db #0x00
   167A 00                 6051 	.db #0x00
   167B 00                 6052 	.db #0x00
   167C 00                 6053 	.db #0x00
   167D 00                 6054 	.db #0x00
   167E 00                 6055 	.db #0x00
   167F 00                 6056 	.db #0x00
   1680 00                 6057 	.db #0x00
   1681 00                 6058 	.db #0x00
   1682 00                 6059 	.db #0x00
   1683 00                 6060 	.db #0x00
   1684 00                 6061 	.db #0x00
   1685 00                 6062 	.db #0x00
   1686 00                 6063 	.db #0x00
   1687 00                 6064 	.db #0x00
   1688 00                 6065 	.db #0x00
   1689 00                 6066 	.db #0x00
   168A 00                 6067 	.db #0x00
   168B 00                 6068 	.db #0x00
   168C 00                 6069 	.db #0x00
   168D 00                 6070 	.db #0x00
   168E 00                 6071 	.db #0x00
   168F 00                 6072 	.db #0x00
   1690 00                 6073 	.db #0x00
   1691 00                 6074 	.db #0x00
   1692 00                 6075 	.db #0x00
   1693 00                 6076 	.db #0x00
   1694 00                 6077 	.db #0x00
   1695 00                 6078 	.db #0x00
   1696 00                 6079 	.db #0x00
   1697 00                 6080 	.db #0x00
   1698 00                 6081 	.db #0x00
   1699 00                 6082 	.db #0x00
   169A 00                 6083 	.db #0x00
   169B 00                 6084 	.db #0x00
   169C 00                 6085 	.db #0x00
   169D 00                 6086 	.db #0x00
   169E 00                 6087 	.db #0x00
   169F 00                 6088 	.db #0x00
   16A0 00                 6089 	.db #0x00
   16A1 00                 6090 	.db #0x00
   16A2 00                 6091 	.db #0x00
   16A3 00                 6092 	.db #0x00
   16A4 00                 6093 	.db #0x00
   16A5 00                 6094 	.db #0x00
   16A6 00                 6095 	.db #0x00
   16A7 00                 6096 	.db #0x00
   16A8 00                 6097 	.db #0x00
   16A9 00                 6098 	.db #0x00
   16AA 00                 6099 	.db #0x00
   16AB 01                 6100 	.db #0x01
   16AC 00                 6101 	.db #0x00
   16AD 07                 6102 	.db #0x07
   16AE 00                 6103 	.db #0x00
   16AF 00                 6104 	.db #0x00
   16B0 00                 6105 	.db #0x00
   16B1 00                 6106 	.db #0x00
   16B2 00                 6107 	.db #0x00
   16B3 00                 6108 	.db #0x00
   16B4 00                 6109 	.db #0x00
   16B5 01                 6110 	.db #0x01
   16B6 00                 6111 	.db #0x00
   16B7 07                 6112 	.db #0x07
   16B8 00                 6113 	.db #0x00
   16B9 3F                 6114 	.db #0x3F
   16BA 00                 6115 	.db #0x00
   16BB FF                 6116 	.db #0xFF
   16BC 00                 6117 	.db #0x00
   16BD FF                 6118 	.db #0xFF
   16BE 00                 6119 	.db #0x00
   16BF 00                 6120 	.db #0x00
   16C0 00                 6121 	.db #0x00
   16C1 0C                 6122 	.db #0x0C
   16C2 00                 6123 	.db #0x00
   16C3 3C                 6124 	.db #0x3C
   16C4 00                 6125 	.db #0x00
   16C5 F0                 6126 	.db #0xF0
   16C6 00                 6127 	.db #0x00
   16C7 C0                 6128 	.db #0xC0
   16C8 00                 6129 	.db #0x00
   16C9 C0                 6130 	.db #0xC0
   16CA 00                 6131 	.db #0x00
   16CB C0                 6132 	.db #0xC0
   16CC 00                 6133 	.db #0x00
   16CD C0                 6134 	.db #0xC0
   16CE 03                 6135 	.db #0x03
   16CF 10                 6136 	.db #0x10
   16D0 03                 6137 	.db #0x03
   16D1 10                 6138 	.db #0x10
   16D2 07                 6139 	.db #0x07
   16D3 10                 6140 	.db #0x10
   16D4 07                 6141 	.db #0x07
   16D5 10                 6142 	.db #0x10
   16D6 03                 6143 	.db #0x03
   16D7 10                 6144 	.db #0x10
   16D8 03                 6145 	.db #0x03
   16D9 10                 6146 	.db #0x10
   16DA 03                 6147 	.db #0x03
   16DB 10                 6148 	.db #0x10
   16DC 03                 6149 	.db #0x03
   16DD 10                 6150 	.db #0x10
   16DE CF                 6151 	.db #0xCF
   16DF 20                 6152 	.db #0x20
   16E0 CF                 6153 	.db #0xCF
   16E1 20                 6154 	.db #0x20
   16E2 8F                 6155 	.db #0x8F
   16E3 40                 6156 	.db #0x40
   16E4 8F                 6157 	.db #0x8F
   16E5 40                 6158 	.db #0x40
   16E6 8F                 6159 	.db #0x8F
   16E7 40                 6160 	.db #0x40
   16E8 1F                 6161 	.db #0x1F
   16E9 80                 6162 	.db #0x80
   16EA 1F                 6163 	.db #0x1F
   16EB 80                 6164 	.db #0x80
   16EC 1F                 6165 	.db #0x1F
   16ED 80                 6166 	.db #0x80
   16EE FD                 6167 	.db #0xFD
   16EF 02                 6168 	.db #0x02
   16F0 F1                 6169 	.db #0xF1
   16F1 0C                 6170 	.db #0x0C
   16F2 E3                 6171 	.db #0xE3
   16F3 10                 6172 	.db #0x10
   16F4 E7                 6173 	.db #0xE7
   16F5 10                 6174 	.db #0x10
   16F6 EF                 6175 	.db #0xEF
   16F7 10                 6176 	.db #0x10
   16F8 CF                 6177 	.db #0xCF
   16F9 30                 6178 	.db #0x30
   16FA 8F                 6179 	.db #0x8F
   16FB 70                 6180 	.db #0x70
   16FC 9F                 6181 	.db #0x9F
   16FD 60                 6182 	.db #0x60
   16FE FC                 6183 	.db #0xFC
   16FF 03                 6184 	.db #0x03
   1700 FE                 6185 	.db #0xFE
   1701 01                 6186 	.db #0x01
   1702 FF                 6187 	.db #0xFF
   1703 00                 6188 	.db #0x00
   1704 FF                 6189 	.db #0xFF
   1705 00                 6190 	.db #0x00
   1706 FF                 6191 	.db #0xFF
   1707 00                 6192 	.db #0x00
   1708 EF                 6193 	.db #0xEF
   1709 00                 6194 	.db #0x00
   170A CF                 6195 	.db #0xCF
   170B 20                 6196 	.db #0x20
   170C 07                 6197 	.db #0x07
   170D E0                 6198 	.db #0xE0
   170E 00                 6199 	.db #0x00
   170F E0                 6200 	.db #0xE0
   1710 00                 6201 	.db #0x00
   1711 F0                 6202 	.db #0xF0
   1712 00                 6203 	.db #0x00
   1713 F0                 6204 	.db #0xF0
   1714 00                 6205 	.db #0x00
   1715 F8                 6206 	.db #0xF8
   1716 80                 6207 	.db #0x80
   1717 78                 6208 	.db #0x78
   1718 80                 6209 	.db #0x80
   1719 78                 6210 	.db #0x78
   171A C0                 6211 	.db #0xC0
   171B 38                 6212 	.db #0x38
   171C C0                 6213 	.db #0xC0
   171D 38                 6214 	.db #0x38
   171E FF                 6215 	.db #0xFF
   171F 00                 6216 	.db #0x00
   1720 7F                 6217 	.db #0x7F
   1721 1D                 6218 	.db #0x1D
   1722 3F                 6219 	.db #0x3F
   1723 0A                 6220 	.db #0x0A
   1724 9F                 6221 	.db #0x9F
   1725 8A                 6222 	.db #0x8A
   1726 7F                 6223 	.db #0x7F
   1727 79                 6224 	.db #0x79
   1728 27                 6225 	.db #0x27
   1729 20                 6226 	.db #0x20
   172A 23                 6227 	.db #0x23
   172B 20                 6228 	.db #0x20
   172C BD                 6229 	.db #0xBD
   172D BC                 6230 	.db #0xBC
   172E FF                 6231 	.db #0xFF
   172F 26                 6232 	.db #0x26
   1730 FE                 6233 	.db #0xFE
   1731 E4                 6234 	.db #0xE4
   1732 FC                 6235 	.db #0xFC
   1733 24                 6236 	.db #0x24
   1734 FC                 6237 	.db #0xFC
   1735 24                 6238 	.db #0x24
   1736 FE                 6239 	.db #0xFE
   1737 FE                 6240 	.db #0xFE
   1738 E4                 6241 	.db #0xE4
   1739 04                 6242 	.db #0x04
   173A C4                 6243 	.db #0xC4
   173B 04                 6244 	.db #0x04
   173C CF                 6245 	.db #0xCF
   173D CF                 6246 	.db #0xCF
   173E FF                 6247 	.db #0xFF
   173F 4A                 6248 	.db #0x4A
   1740 7F                 6249 	.db #0x7F
   1741 4B                 6250 	.db #0x4B
   1742 7F                 6251 	.db #0x7F
   1743 4A                 6252 	.db #0x4A
   1744 5F                 6253 	.db #0x5F
   1745 4B                 6254 	.db #0x4B
   1746 FF                 6255 	.db #0xFF
   1747 FD                 6256 	.db #0xFD
   1748 07                 6257 	.db #0x07
   1749 00                 6258 	.db #0x00
   174A 03                 6259 	.db #0x03
   174B 00                 6260 	.db #0x00
   174C CF                 6261 	.db #0xCF
   174D CF                 6262 	.db #0xCF
   174E FF                 6263 	.db #0xFF
   174F 24                 6264 	.db #0x24
   1750 FE                 6265 	.db #0xFE
   1751 E6                 6266 	.db #0xE6
   1752 FD                 6267 	.db #0xFD
   1753 01                 6268 	.db #0x01
   1754 FC                 6269 	.db #0xFC
   1755 04                 6270 	.db #0x04
   1756 F7                 6271 	.db #0xF7
   1757 C7                 6272 	.db #0xC7
   1758 E0                 6273 	.db #0xE0
   1759 00                 6274 	.db #0x00
   175A C0                 6275 	.db #0xC0
   175B 00                 6276 	.db #0x00
   175C ED                 6277 	.db #0xED
   175D 6D                 6278 	.db #0x6D
   175E FF                 6279 	.db #0xFF
   175F 00                 6280 	.db #0x00
   1760 7F                 6281 	.db #0x7F
   1761 00                 6282 	.db #0x00
   1762 BF                 6283 	.db #0xBF
   1763 80                 6284 	.db #0x80
   1764 9F                 6285 	.db #0x9F
   1765 80                 6286 	.db #0x80
   1766 0F                 6287 	.db #0x0F
   1767 00                 6288 	.db #0x00
   1768 07                 6289 	.db #0x07
   1769 00                 6290 	.db #0x00
   176A 03                 6291 	.db #0x03
   176B 00                 6292 	.db #0x00
   176C C1                 6293 	.db #0xC1
   176D C0                 6294 	.db #0xC0
   176E 00                 6295 	.db #0x00
   176F 00                 6296 	.db #0x00
   1770 00                 6297 	.db #0x00
   1771 00                 6298 	.db #0x00
   1772 00                 6299 	.db #0x00
   1773 00                 6300 	.db #0x00
   1774 00                 6301 	.db #0x00
   1775 00                 6302 	.db #0x00
   1776 00                 6303 	.db #0x00
   1777 00                 6304 	.db #0x00
   1778 00                 6305 	.db #0x00
   1779 00                 6306 	.db #0x00
   177A 00                 6307 	.db #0x00
   177B 00                 6308 	.db #0x00
   177C 00                 6309 	.db #0x00
   177D 00                 6310 	.db #0x00
   177E 00                 6311 	.db #0x00
   177F 00                 6312 	.db #0x00
   1780 00                 6313 	.db #0x00
   1781 00                 6314 	.db #0x00
   1782 00                 6315 	.db #0x00
   1783 00                 6316 	.db #0x00
   1784 00                 6317 	.db #0x00
   1785 00                 6318 	.db #0x00
   1786 00                 6319 	.db #0x00
   1787 00                 6320 	.db #0x00
   1788 00                 6321 	.db #0x00
   1789 00                 6322 	.db #0x00
   178A 00                 6323 	.db #0x00
   178B 00                 6324 	.db #0x00
   178C 00                 6325 	.db #0x00
   178D 00                 6326 	.db #0x00
   178E 00                 6327 	.db #0x00
   178F 00                 6328 	.db #0x00
   1790 00                 6329 	.db #0x00
   1791 00                 6330 	.db #0x00
   1792 00                 6331 	.db #0x00
   1793 00                 6332 	.db #0x00
   1794 00                 6333 	.db #0x00
   1795 00                 6334 	.db #0x00
   1796 00                 6335 	.db #0x00
   1797 00                 6336 	.db #0x00
   1798 00                 6337 	.db #0x00
   1799 00                 6338 	.db #0x00
   179A 00                 6339 	.db #0x00
   179B 00                 6340 	.db #0x00
   179C 00                 6341 	.db #0x00
   179D 00                 6342 	.db #0x00
   179E 00                 6343 	.db #0x00
   179F 1F                 6344 	.db #0x1F
   17A0 00                 6345 	.db #0x00
   17A1 1F                 6346 	.db #0x1F
   17A2 00                 6347 	.db #0x00
   17A3 1F                 6348 	.db #0x1F
   17A4 00                 6349 	.db #0x00
   17A5 1F                 6350 	.db #0x1F
   17A6 00                 6351 	.db #0x00
   17A7 1F                 6352 	.db #0x1F
   17A8 00                 6353 	.db #0x00
   17A9 1F                 6354 	.db #0x1F
   17AA 00                 6355 	.db #0x00
   17AB 1F                 6356 	.db #0x1F
   17AC 00                 6357 	.db #0x00
   17AD 1F                 6358 	.db #0x1F
   17AE 00                 6359 	.db #0x00
   17AF FF                 6360 	.db #0xFF
   17B0 00                 6361 	.db #0x00
   17B1 FF                 6362 	.db #0xFF
   17B2 00                 6363 	.db #0x00
   17B3 FF                 6364 	.db #0xFF
   17B4 00                 6365 	.db #0x00
   17B5 FF                 6366 	.db #0xFF
   17B6 00                 6367 	.db #0x00
   17B7 FF                 6368 	.db #0xFF
   17B8 00                 6369 	.db #0x00
   17B9 FF                 6370 	.db #0xFF
   17BA 00                 6371 	.db #0x00
   17BB FF                 6372 	.db #0xFF
   17BC 00                 6373 	.db #0x00
   17BD FF                 6374 	.db #0xFF
   17BE 00                 6375 	.db #0x00
   17BF C0                 6376 	.db #0xC0
   17C0 00                 6377 	.db #0x00
   17C1 C0                 6378 	.db #0xC0
   17C2 00                 6379 	.db #0x00
   17C3 C0                 6380 	.db #0xC0
   17C4 00                 6381 	.db #0x00
   17C5 C0                 6382 	.db #0xC0
   17C6 00                 6383 	.db #0x00
   17C7 C0                 6384 	.db #0xC0
   17C8 00                 6385 	.db #0x00
   17C9 C0                 6386 	.db #0xC0
   17CA 00                 6387 	.db #0x00
   17CB C0                 6388 	.db #0xC0
   17CC 00                 6389 	.db #0x00
   17CD 80                 6390 	.db #0x80
   17CE 03                 6391 	.db #0x03
   17CF 10                 6392 	.db #0x10
   17D0 03                 6393 	.db #0x03
   17D1 10                 6394 	.db #0x10
   17D2 02                 6395 	.db #0x02
   17D3 11                 6396 	.db #0x11
   17D4 06                 6397 	.db #0x06
   17D5 11                 6398 	.db #0x11
   17D6 06                 6399 	.db #0x06
   17D7 11                 6400 	.db #0x11
   17D8 06                 6401 	.db #0x06
   17D9 11                 6402 	.db #0x11
   17DA 07                 6403 	.db #0x07
   17DB 10                 6404 	.db #0x10
   17DC 07                 6405 	.db #0x07
   17DD 10                 6406 	.db #0x10
   17DE 1F                 6407 	.db #0x1F
   17DF 80                 6408 	.db #0x80
   17E0 3F                 6409 	.db #0x3F
   17E1 80                 6410 	.db #0x80
   17E2 3F                 6411 	.db #0x3F
   17E3 00                 6412 	.db #0x00
   17E4 3F                 6413 	.db #0x3F
   17E5 00                 6414 	.db #0x00
   17E6 3F                 6415 	.db #0x3F
   17E7 00                 6416 	.db #0x00
   17E8 3F                 6417 	.db #0x3F
   17E9 00                 6418 	.db #0x00
   17EA 3F                 6419 	.db #0x3F
   17EB 80                 6420 	.db #0x80
   17EC 1F                 6421 	.db #0x1F
   17ED 80                 6422 	.db #0x80
   17EE 1F                 6423 	.db #0x1F
   17EF E0                 6424 	.db #0xE0
   17F0 1E                 6425 	.db #0x1E
   17F1 E1                 6426 	.db #0xE1
   17F2 9E                 6427 	.db #0x9E
   17F3 61                 6428 	.db #0x61
   17F4 9C                 6429 	.db #0x9C
   17F5 62                 6430 	.db #0x62
   17F6 8C                 6431 	.db #0x8C
   17F7 72                 6432 	.db #0x72
   17F8 C0                 6433 	.db #0xC0
   17F9 3C                 6434 	.db #0x3C
   17FA E0                 6435 	.db #0xE0
   17FB 1F                 6436 	.db #0x1F
   17FC F1                 6437 	.db #0xF1
   17FD 0E                 6438 	.db #0x0E
   17FE 03                 6439 	.db #0x03
   17FF 90                 6440 	.db #0x90
   1800 03                 6441 	.db #0x03
   1801 10                 6442 	.db #0x10
   1802 03                 6443 	.db #0x03
   1803 08                 6444 	.db #0x08
   1804 03                 6445 	.db #0x03
   1805 08                 6446 	.db #0x08
   1806 03                 6447 	.db #0x03
   1807 10                 6448 	.db #0x10
   1808 07                 6449 	.db #0x07
   1809 20                 6450 	.db #0x20
   180A 0F                 6451 	.db #0x0F
   180B C0                 6452 	.db #0xC0
   180C DF                 6453 	.db #0xDF
   180D 00                 6454 	.db #0x00
   180E C0                 6455 	.db #0xC0
   180F 38                 6456 	.db #0x38
   1810 C0                 6457 	.db #0xC0
   1811 38                 6458 	.db #0x38
   1812 C0                 6459 	.db #0xC0
   1813 38                 6460 	.db #0x38
   1814 C0                 6461 	.db #0xC0
   1815 38                 6462 	.db #0x38
   1816 E0                 6463 	.db #0xE0
   1817 18                 6464 	.db #0x18
   1818 E0                 6465 	.db #0xE0
   1819 18                 6466 	.db #0x18
   181A E0                 6467 	.db #0xE0
   181B 10                 6468 	.db #0x10
   181C E0                 6469 	.db #0xE0
   181D 10                 6470 	.db #0x10
   181E 23                 6471 	.db #0x23
   181F 22                 6472 	.db #0x22
   1820 23                 6473 	.db #0x23
   1821 22                 6474 	.db #0x22
   1822 27                 6475 	.db #0x27
   1823 22                 6476 	.db #0x22
   1824 2F                 6477 	.db #0x2F
   1825 26                 6478 	.db #0x26
   1826 BF                 6479 	.db #0xBF
   1827 BC                 6480 	.db #0xBC
   1828 3F                 6481 	.db #0x3F
   1829 00                 6482 	.db #0x00
   182A 7F                 6483 	.db #0x7F
   182B 00                 6484 	.db #0x00
   182C FF                 6485 	.db #0xFF
   182D 00                 6486 	.db #0x00
   182E C4                 6487 	.db #0xC4
   182F 44                 6488 	.db #0x44
   1830 C4                 6489 	.db #0xC4
   1831 44                 6490 	.db #0x44
   1832 E4                 6491 	.db #0xE4
   1833 44                 6492 	.db #0x44
   1834 F4                 6493 	.db #0xF4
   1835 44                 6494 	.db #0x44
   1836 FF                 6495 	.db #0xFF
   1837 E7                 6496 	.db #0xE7
   1838 FC                 6497 	.db #0xFC
   1839 00                 6498 	.db #0x00
   183A FE                 6499 	.db #0xFE
   183B 00                 6500 	.db #0x00
   183C FF                 6501 	.db #0xFF
   183D 00                 6502 	.db #0x00
   183E 41                 6503 	.db #0x41
   183F 41                 6504 	.db #0x41
   1840 4F                 6505 	.db #0x4F
   1841 4F                 6506 	.db #0x4F
   1842 57                 6507 	.db #0x57
   1843 51                 6508 	.db #0x51
   1844 5F                 6509 	.db #0x5F
   1845 51                 6510 	.db #0x51
   1846 5F                 6511 	.db #0x5F
   1847 4F                 6512 	.db #0x4F
   1848 7F                 6513 	.db #0x7F
   1849 40                 6514 	.db #0x40
   184A 7F                 6515 	.db #0x7F
   184B 40                 6516 	.db #0x40
   184C FF                 6517 	.db #0xFF
   184D 80                 6518 	.db #0x80
   184E B2                 6519 	.db #0xB2
   184F 32                 6520 	.db #0x32
   1850 E2                 6521 	.db #0xE2
   1851 22                 6522 	.db #0x22
   1852 E2                 6523 	.db #0xE2
   1853 22                 6524 	.db #0x22
   1854 F2                 6525 	.db #0xF2
   1855 22                 6526 	.db #0x22
   1856 FF                 6527 	.db #0xFF
   1857 F7                 6528 	.db #0xF7
   1858 FC                 6529 	.db #0xFC
   1859 00                 6530 	.db #0x00
   185A FE                 6531 	.db #0xFE
   185B 00                 6532 	.db #0x00
   185C FF                 6533 	.db #0xFF
   185D 00                 6534 	.db #0x00
   185E 4F                 6535 	.db #0x4F
   185F 4F                 6536 	.db #0x4F
   1860 43                 6537 	.db #0x43
   1861 41                 6538 	.db #0x41
   1862 47                 6539 	.db #0x47
   1863 42                 6540 	.db #0x42
   1864 4F                 6541 	.db #0x4F
   1865 47                 6542 	.db #0x47
   1866 FF                 6543 	.db #0xFF
   1867 E1                 6544 	.db #0xE1
   1868 3F                 6545 	.db #0x3F
   1869 01                 6546 	.db #0x01
   186A 7F                 6547 	.db #0x7F
   186B 02                 6548 	.db #0x02
   186C FF                 6549 	.db #0xFF
   186D 1C                 6550 	.db #0x1C
   186E 00                 6551 	.db #0x00
   186F 00                 6552 	.db #0x00
   1870 00                 6553 	.db #0x00
   1871 00                 6554 	.db #0x00
   1872 00                 6555 	.db #0x00
   1873 00                 6556 	.db #0x00
   1874 00                 6557 	.db #0x00
   1875 00                 6558 	.db #0x00
   1876 00                 6559 	.db #0x00
   1877 00                 6560 	.db #0x00
   1878 00                 6561 	.db #0x00
   1879 00                 6562 	.db #0x00
   187A 00                 6563 	.db #0x00
   187B 00                 6564 	.db #0x00
   187C 00                 6565 	.db #0x00
   187D 00                 6566 	.db #0x00
   187E 00                 6567 	.db #0x00
   187F 00                 6568 	.db #0x00
   1880 00                 6569 	.db #0x00
   1881 00                 6570 	.db #0x00
   1882 00                 6571 	.db #0x00
   1883 00                 6572 	.db #0x00
   1884 00                 6573 	.db #0x00
   1885 00                 6574 	.db #0x00
   1886 00                 6575 	.db #0x00
   1887 00                 6576 	.db #0x00
   1888 00                 6577 	.db #0x00
   1889 00                 6578 	.db #0x00
   188A 00                 6579 	.db #0x00
   188B 00                 6580 	.db #0x00
   188C 00                 6581 	.db #0x00
   188D 00                 6582 	.db #0x00
   188E 00                 6583 	.db #0x00
   188F 00                 6584 	.db #0x00
   1890 00                 6585 	.db #0x00
   1891 00                 6586 	.db #0x00
   1892 00                 6587 	.db #0x00
   1893 00                 6588 	.db #0x00
   1894 00                 6589 	.db #0x00
   1895 00                 6590 	.db #0x00
   1896 00                 6591 	.db #0x00
   1897 00                 6592 	.db #0x00
   1898 00                 6593 	.db #0x00
   1899 00                 6594 	.db #0x00
   189A 00                 6595 	.db #0x00
   189B 00                 6596 	.db #0x00
   189C 00                 6597 	.db #0x00
   189D 00                 6598 	.db #0x00
   189E 00                 6599 	.db #0x00
   189F 1F                 6600 	.db #0x1F
   18A0 00                 6601 	.db #0x00
   18A1 1F                 6602 	.db #0x1F
   18A2 00                 6603 	.db #0x00
   18A3 1F                 6604 	.db #0x1F
   18A4 00                 6605 	.db #0x00
   18A5 0F                 6606 	.db #0x0F
   18A6 00                 6607 	.db #0x00
   18A7 07                 6608 	.db #0x07
   18A8 00                 6609 	.db #0x00
   18A9 03                 6610 	.db #0x03
   18AA 00                 6611 	.db #0x00
   18AB 01                 6612 	.db #0x01
   18AC 00                 6613 	.db #0x00
   18AD 00                 6614 	.db #0x00
   18AE 00                 6615 	.db #0x00
   18AF FF                 6616 	.db #0xFF
   18B0 00                 6617 	.db #0x00
   18B1 FF                 6618 	.db #0xFF
   18B2 00                 6619 	.db #0x00
   18B3 FF                 6620 	.db #0xFF
   18B4 00                 6621 	.db #0x00
   18B5 FF                 6622 	.db #0xFF
   18B6 00                 6623 	.db #0x00
   18B7 FE                 6624 	.db #0xFE
   18B8 00                 6625 	.db #0x00
   18B9 FE                 6626 	.db #0xFE
   18BA 00                 6627 	.db #0x00
   18BB FC                 6628 	.db #0xFC
   18BC 00                 6629 	.db #0x00
   18BD F8                 6630 	.db #0xF8
   18BE 00                 6631 	.db #0x00
   18BF 80                 6632 	.db #0x80
   18C0 00                 6633 	.db #0x00
   18C1 80                 6634 	.db #0x80
   18C2 00                 6635 	.db #0x00
   18C3 00                 6636 	.db #0x00
   18C4 00                 6637 	.db #0x00
   18C5 00                 6638 	.db #0x00
   18C6 00                 6639 	.db #0x00
   18C7 00                 6640 	.db #0x00
   18C8 00                 6641 	.db #0x00
   18C9 00                 6642 	.db #0x00
   18CA 00                 6643 	.db #0x00
   18CB 00                 6644 	.db #0x00
   18CC 00                 6645 	.db #0x00
   18CD 00                 6646 	.db #0x00
   18CE 07                 6647 	.db #0x07
   18CF 10                 6648 	.db #0x10
   18D0 07                 6649 	.db #0x07
   18D1 10                 6650 	.db #0x10
   18D2 07                 6651 	.db #0x07
   18D3 10                 6652 	.db #0x10
   18D4 07                 6653 	.db #0x07
   18D5 10                 6654 	.db #0x10
   18D6 07                 6655 	.db #0x07
   18D7 10                 6656 	.db #0x10
   18D8 0F                 6657 	.db #0x0F
   18D9 10                 6658 	.db #0x10
   18DA 0F                 6659 	.db #0x0F
   18DB 10                 6660 	.db #0x10
   18DC 0F                 6661 	.db #0x0F
   18DD 10                 6662 	.db #0x10
   18DE 1F                 6663 	.db #0x1F
   18DF 80                 6664 	.db #0x80
   18E0 9F                 6665 	.db #0x9F
   18E1 40                 6666 	.db #0x40
   18E2 9F                 6667 	.db #0x9F
   18E3 40                 6668 	.db #0x40
   18E4 BF                 6669 	.db #0xBF
   18E5 40                 6670 	.db #0x40
   18E6 DF                 6671 	.db #0xDF
   18E7 20                 6672 	.db #0x20
   18E8 CF                 6673 	.db #0xCF
   18E9 30                 6674 	.db #0x30
   18EA F1                 6675 	.db #0xF1
   18EB 0E                 6676 	.db #0x0E
   18EC FE                 6677 	.db #0xFE
   18ED 01                 6678 	.db #0x01
   18EE FF                 6679 	.db #0xFF
   18EF 00                 6680 	.db #0x00
   18F0 FF                 6681 	.db #0xFF
   18F1 00                 6682 	.db #0x00
   18F2 FF                 6683 	.db #0xFF
   18F3 00                 6684 	.db #0x00
   18F4 FF                 6685 	.db #0xFF
   18F5 00                 6686 	.db #0x00
   18F6 FF                 6687 	.db #0xFF
   18F7 00                 6688 	.db #0x00
   18F8 FF                 6689 	.db #0xFF
   18F9 00                 6690 	.db #0x00
   18FA FF                 6691 	.db #0xFF
   18FB 00                 6692 	.db #0x00
   18FC 0F                 6693 	.db #0x0F
   18FD F0                 6694 	.db #0xF0
   18FE FF                 6695 	.db #0xFF
   18FF 00                 6696 	.db #0x00
   1900 FF                 6697 	.db #0xFF
   1901 00                 6698 	.db #0x00
   1902 FF                 6699 	.db #0xFF
   1903 00                 6700 	.db #0x00
   1904 FE                 6701 	.db #0xFE
   1905 01                 6702 	.db #0x01
   1906 FC                 6703 	.db #0xFC
   1907 02                 6704 	.db #0x02
   1908 F0                 6705 	.db #0xF0
   1909 0C                 6706 	.db #0x0C
   190A E0                 6707 	.db #0xE0
   190B 10                 6708 	.db #0x10
   190C 80                 6709 	.db #0x80
   190D 60                 6710 	.db #0x60
   190E C0                 6711 	.db #0xC0
   190F 20                 6712 	.db #0x20
   1910 C0                 6713 	.db #0xC0
   1911 20                 6714 	.db #0x20
   1912 80                 6715 	.db #0x80
   1913 40                 6716 	.db #0x40
   1914 00                 6717 	.db #0x00
   1915 80                 6718 	.db #0x80
   1916 00                 6719 	.db #0x00
   1917 00                 6720 	.db #0x00
   1918 00                 6721 	.db #0x00
   1919 00                 6722 	.db #0x00
   191A 00                 6723 	.db #0x00
   191B 00                 6724 	.db #0x00
   191C 00                 6725 	.db #0x00
   191D 00                 6726 	.db #0x00
   191E 03                 6727 	.db #0x03
   191F 0C                 6728 	.db #0x0C
   1920 0F                 6729 	.db #0x0F
   1921 30                 6730 	.db #0x30
   1922 3E                 6731 	.db #0x3E
   1923 C1                 6732 	.db #0xC1
   1924 F8                 6733 	.db #0xF8
   1925 06                 6734 	.db #0x06
   1926 E0                 6735 	.db #0xE0
   1927 18                 6736 	.db #0x18
   1928 80                 6737 	.db #0x80
   1929 60                 6738 	.db #0x60
   192A 00                 6739 	.db #0x00
   192B 80                 6740 	.db #0x80
   192C 00                 6741 	.db #0x00
   192D 00                 6742 	.db #0x00
   192E E0                 6743 	.db #0xE0
   192F 19                 6744 	.db #0x19
   1930 80                 6745 	.db #0x80
   1931 61                 6746 	.db #0x61
   1932 00                 6747 	.db #0x00
   1933 80                 6748 	.db #0x80
   1934 00                 6749 	.db #0x00
   1935 00                 6750 	.db #0x00
   1936 00                 6751 	.db #0x00
   1937 00                 6752 	.db #0x00
   1938 00                 6753 	.db #0x00
   1939 00                 6754 	.db #0x00
   193A 00                 6755 	.db #0x00
   193B 00                 6756 	.db #0x00
   193C 00                 6757 	.db #0x00
   193D 00                 6758 	.db #0x00
   193E 3F                 6759 	.db #0x3F
   193F 00                 6760 	.db #0x00
   1940 BF                 6761 	.db #0xBF
   1941 00                 6762 	.db #0x00
   1942 3F                 6763 	.db #0x3F
   1943 80                 6764 	.db #0x80
   1944 3F                 6765 	.db #0x3F
   1945 80                 6766 	.db #0x80
   1946 3F                 6767 	.db #0x3F
   1947 80                 6768 	.db #0x80
   1948 3F                 6769 	.db #0x3F
   1949 40                 6770 	.db #0x40
   194A 1F                 6771 	.db #0x1F
   194B 60                 6772 	.db #0x60
   194C 03                 6773 	.db #0x03
   194D 1C                 6774 	.db #0x1C
   194E F1                 6775 	.db #0xF1
   194F 0E                 6776 	.db #0x0E
   1950 FF                 6777 	.db #0xFF
   1951 00                 6778 	.db #0x00
   1952 FF                 6779 	.db #0xFF
   1953 00                 6780 	.db #0x00
   1954 FF                 6781 	.db #0xFF
   1955 00                 6782 	.db #0x00
   1956 FF                 6783 	.db #0xFF
   1957 00                 6784 	.db #0x00
   1958 FF                 6785 	.db #0xFF
   1959 00                 6786 	.db #0x00
   195A FF                 6787 	.db #0xFF
   195B 00                 6788 	.db #0x00
   195C FF                 6789 	.db #0xFF
   195D 00                 6790 	.db #0x00
   195E FF                 6791 	.db #0xFF
   195F 00                 6792 	.db #0x00
   1960 FF                 6793 	.db #0xFF
   1961 00                 6794 	.db #0x00
   1962 FF                 6795 	.db #0xFF
   1963 00                 6796 	.db #0x00
   1964 FF                 6797 	.db #0xFF
   1965 00                 6798 	.db #0x00
   1966 FC                 6799 	.db #0xFC
   1967 03                 6800 	.db #0x03
   1968 F8                 6801 	.db #0xF8
   1969 04                 6802 	.db #0x04
   196A E0                 6803 	.db #0xE0
   196B 18                 6804 	.db #0x18
   196C C0                 6805 	.db #0xC0
   196D 20                 6806 	.db #0x20
   196E C0                 6807 	.db #0xC0
   196F 20                 6808 	.db #0x20
   1970 80                 6809 	.db #0x80
   1971 40                 6810 	.db #0x40
   1972 80                 6811 	.db #0x80
   1973 40                 6812 	.db #0x40
   1974 00                 6813 	.db #0x00
   1975 80                 6814 	.db #0x80
   1976 00                 6815 	.db #0x00
   1977 00                 6816 	.db #0x00
   1978 00                 6817 	.db #0x00
   1979 00                 6818 	.db #0x00
   197A 00                 6819 	.db #0x00
   197B 00                 6820 	.db #0x00
   197C 00                 6821 	.db #0x00
   197D 00                 6822 	.db #0x00
   197E 00                 6823 	.db #0x00
   197F 00                 6824 	.db #0x00
   1980 00                 6825 	.db #0x00
   1981 00                 6826 	.db #0x00
   1982 00                 6827 	.db #0x00
   1983 00                 6828 	.db #0x00
   1984 00                 6829 	.db #0x00
   1985 00                 6830 	.db #0x00
   1986 00                 6831 	.db #0x00
   1987 00                 6832 	.db #0x00
   1988 00                 6833 	.db #0x00
   1989 00                 6834 	.db #0x00
   198A 00                 6835 	.db #0x00
   198B 00                 6836 	.db #0x00
   198C 00                 6837 	.db #0x00
   198D 00                 6838 	.db #0x00
   198E 00                 6839 	.db #0x00
   198F 00                 6840 	.db #0x00
   1990 00                 6841 	.db #0x00
   1991 00                 6842 	.db #0x00
   1992 00                 6843 	.db #0x00
   1993 00                 6844 	.db #0x00
   1994 00                 6845 	.db #0x00
   1995 00                 6846 	.db #0x00
   1996 00                 6847 	.db #0x00
   1997 00                 6848 	.db #0x00
   1998 00                 6849 	.db #0x00
   1999 00                 6850 	.db #0x00
   199A 00                 6851 	.db #0x00
   199B 00                 6852 	.db #0x00
   199C 00                 6853 	.db #0x00
   199D 00                 6854 	.db #0x00
   199E 00                 6855 	.db #0x00
   199F 00                 6856 	.db #0x00
   19A0 00                 6857 	.db #0x00
   19A1 00                 6858 	.db #0x00
   19A2 00                 6859 	.db #0x00
   19A3 00                 6860 	.db #0x00
   19A4 00                 6861 	.db #0x00
   19A5 80                 6862 	.db #0x80
   19A6 00                 6863 	.db #0x00
   19A7 80                 6864 	.db #0x80
   19A8 00                 6865 	.db #0x00
   19A9 C0                 6866 	.db #0xC0
   19AA 00                 6867 	.db #0x00
   19AB C0                 6868 	.db #0xC0
   19AC 00                 6869 	.db #0x00
   19AD 80                 6870 	.db #0x80
   19AE 00                 6871 	.db #0x00
   19AF 00                 6872 	.db #0x00
   19B0 00                 6873 	.db #0x00
   19B1 00                 6874 	.db #0x00
   19B2 00                 6875 	.db #0x00
   19B3 00                 6876 	.db #0x00
   19B4 00                 6877 	.db #0x00
   19B5 00                 6878 	.db #0x00
   19B6 00                 6879 	.db #0x00
   19B7 00                 6880 	.db #0x00
   19B8 00                 6881 	.db #0x00
   19B9 00                 6882 	.db #0x00
   19BA 00                 6883 	.db #0x00
   19BB 00                 6884 	.db #0x00
   19BC 00                 6885 	.db #0x00
   19BD 00                 6886 	.db #0x00
   19BE 00                 6887 	.db #0x00
   19BF 00                 6888 	.db #0x00
   19C0 00                 6889 	.db #0x00
   19C1 00                 6890 	.db #0x00
   19C2 00                 6891 	.db #0x00
   19C3 00                 6892 	.db #0x00
   19C4 00                 6893 	.db #0x00
   19C5 00                 6894 	.db #0x00
   19C6 00                 6895 	.db #0x00
   19C7 00                 6896 	.db #0x00
   19C8 00                 6897 	.db #0x00
   19C9 00                 6898 	.db #0x00
   19CA 00                 6899 	.db #0x00
   19CB 00                 6900 	.db #0x00
   19CC 00                 6901 	.db #0x00
   19CD 00                 6902 	.db #0x00
   19CE 0F                 6903 	.db #0x0F
   19CF 10                 6904 	.db #0x10
   19D0 0F                 6905 	.db #0x0F
   19D1 10                 6906 	.db #0x10
   19D2 1F                 6907 	.db #0x1F
   19D3 20                 6908 	.db #0x20
   19D4 1F                 6909 	.db #0x1F
   19D5 20                 6910 	.db #0x20
   19D6 1F                 6911 	.db #0x1F
   19D7 20                 6912 	.db #0x20
   19D8 3F                 6913 	.db #0x3F
   19D9 40                 6914 	.db #0x40
   19DA 3F                 6915 	.db #0x3F
   19DB 40                 6916 	.db #0x40
   19DC 7F                 6917 	.db #0x7F
   19DD 80                 6918 	.db #0x80
   19DE FF                 6919 	.db #0xFF
   19DF 00                 6920 	.db #0x00
   19E0 FF                 6921 	.db #0xFF
   19E1 00                 6922 	.db #0x00
   19E2 FF                 6923 	.db #0xFF
   19E3 00                 6924 	.db #0x00
   19E4 FE                 6925 	.db #0xFE
   19E5 01                 6926 	.db #0x01
   19E6 FD                 6927 	.db #0xFD
   19E7 02                 6928 	.db #0x02
   19E8 FB                 6929 	.db #0xFB
   19E9 04                 6930 	.db #0x04
   19EA E7                 6931 	.db #0xE7
   19EB 18                 6932 	.db #0x18
   19EC CF                 6933 	.db #0xCF
   19ED 20                 6934 	.db #0x20
   19EE F0                 6935 	.db #0xF0
   19EF 0F                 6936 	.db #0x0F
   19F0 FC                 6937 	.db #0xFC
   19F1 02                 6938 	.db #0x02
   19F2 80                 6939 	.db #0x80
   19F3 7C                 6940 	.db #0x7C
   19F4 40                 6941 	.db #0x40
   19F5 BE                 6942 	.db #0xBE
   19F6 F8                 6943 	.db #0xF8
   19F7 07                 6944 	.db #0x07
   19F8 FC                 6945 	.db #0xFC
   19F9 03                 6946 	.db #0x03
   19FA FE                 6947 	.db #0xFE
   19FB 01                 6948 	.db #0x01
   19FC FF                 6949 	.db #0xFF
   19FD 00                 6950 	.db #0x00
   19FE 00                 6951 	.db #0x00
   19FF 80                 6952 	.db #0x80
   1A00 00                 6953 	.db #0x00
   1A01 00                 6954 	.db #0x00
   1A02 00                 6955 	.db #0x00
   1A03 00                 6956 	.db #0x00
   1A04 00                 6957 	.db #0x00
   1A05 00                 6958 	.db #0x00
   1A06 00                 6959 	.db #0x00
   1A07 80                 6960 	.db #0x80
   1A08 00                 6961 	.db #0x00
   1A09 C0                 6962 	.db #0xC0
   1A0A 00                 6963 	.db #0x00
   1A0B E0                 6964 	.db #0xE0
   1A0C 00                 6965 	.db #0x00
   1A0D E0                 6966 	.db #0xE0
   1A0E 00                 6967 	.db #0x00
   1A0F 00                 6968 	.db #0x00
   1A10 00                 6969 	.db #0x00
   1A11 00                 6970 	.db #0x00
   1A12 00                 6971 	.db #0x00
   1A13 00                 6972 	.db #0x00
   1A14 00                 6973 	.db #0x00
   1A15 00                 6974 	.db #0x00
   1A16 00                 6975 	.db #0x00
   1A17 00                 6976 	.db #0x00
   1A18 00                 6977 	.db #0x00
   1A19 00                 6978 	.db #0x00
   1A1A 00                 6979 	.db #0x00
   1A1B 00                 6980 	.db #0x00
   1A1C 00                 6981 	.db #0x00
   1A1D 00                 6982 	.db #0x00
   1A1E 00                 6983 	.db #0x00
   1A1F 00                 6984 	.db #0x00
   1A20 00                 6985 	.db #0x00
   1A21 00                 6986 	.db #0x00
   1A22 00                 6987 	.db #0x00
   1A23 00                 6988 	.db #0x00
   1A24 00                 6989 	.db #0x00
   1A25 00                 6990 	.db #0x00
   1A26 00                 6991 	.db #0x00
   1A27 00                 6992 	.db #0x00
   1A28 00                 6993 	.db #0x00
   1A29 00                 6994 	.db #0x00
   1A2A 00                 6995 	.db #0x00
   1A2B 00                 6996 	.db #0x00
   1A2C 00                 6997 	.db #0x00
   1A2D 00                 6998 	.db #0x00
   1A2E 00                 6999 	.db #0x00
   1A2F 00                 7000 	.db #0x00
   1A30 00                 7001 	.db #0x00
   1A31 00                 7002 	.db #0x00
   1A32 00                 7003 	.db #0x00
   1A33 00                 7004 	.db #0x00
   1A34 00                 7005 	.db #0x00
   1A35 00                 7006 	.db #0x00
   1A36 00                 7007 	.db #0x00
   1A37 00                 7008 	.db #0x00
   1A38 00                 7009 	.db #0x00
   1A39 00                 7010 	.db #0x00
   1A3A 00                 7011 	.db #0x00
   1A3B 00                 7012 	.db #0x00
   1A3C 00                 7013 	.db #0x00
   1A3D 00                 7014 	.db #0x00
   1A3E 00                 7015 	.db #0x00
   1A3F 03                 7016 	.db #0x03
   1A40 00                 7017 	.db #0x00
   1A41 00                 7018 	.db #0x00
   1A42 00                 7019 	.db #0x00
   1A43 00                 7020 	.db #0x00
   1A44 00                 7021 	.db #0x00
   1A45 00                 7022 	.db #0x00
   1A46 00                 7023 	.db #0x00
   1A47 00                 7024 	.db #0x00
   1A48 00                 7025 	.db #0x00
   1A49 00                 7026 	.db #0x00
   1A4A 00                 7027 	.db #0x00
   1A4B 00                 7028 	.db #0x00
   1A4C 00                 7029 	.db #0x00
   1A4D 00                 7030 	.db #0x00
   1A4E 1F                 7031 	.db #0x1F
   1A4F E0                 7032 	.db #0xE0
   1A50 00                 7033 	.db #0x00
   1A51 1F                 7034 	.db #0x1F
   1A52 00                 7035 	.db #0x00
   1A53 00                 7036 	.db #0x00
   1A54 00                 7037 	.db #0x00
   1A55 00                 7038 	.db #0x00
   1A56 00                 7039 	.db #0x00
   1A57 00                 7040 	.db #0x00
   1A58 00                 7041 	.db #0x00
   1A59 00                 7042 	.db #0x00
   1A5A 00                 7043 	.db #0x00
   1A5B 00                 7044 	.db #0x00
   1A5C 00                 7045 	.db #0x00
   1A5D 00                 7046 	.db #0x00
   1A5E 00                 7047 	.db #0x00
   1A5F E0                 7048 	.db #0xE0
   1A60 00                 7049 	.db #0x00
   1A61 1E                 7050 	.db #0x1E
   1A62 00                 7051 	.db #0x00
   1A63 01                 7052 	.db #0x01
   1A64 00                 7053 	.db #0x00
   1A65 00                 7054 	.db #0x00
   1A66 00                 7055 	.db #0x00
   1A67 00                 7056 	.db #0x00
   1A68 00                 7057 	.db #0x00
   1A69 00                 7058 	.db #0x00
   1A6A 00                 7059 	.db #0x00
   1A6B 00                 7060 	.db #0x00
   1A6C 00                 7061 	.db #0x00
   1A6D 00                 7062 	.db #0x00
   1A6E 00                 7063 	.db #0x00
   1A6F 00                 7064 	.db #0x00
   1A70 00                 7065 	.db #0x00
   1A71 00                 7066 	.db #0x00
   1A72 00                 7067 	.db #0x00
   1A73 C0                 7068 	.db #0xC0
   1A74 00                 7069 	.db #0x00
   1A75 3C                 7070 	.db #0x3C
   1A76 00                 7071 	.db #0x00
   1A77 03                 7072 	.db #0x03
   1A78 00                 7073 	.db #0x00
   1A79 00                 7074 	.db #0x00
   1A7A 00                 7075 	.db #0x00
   1A7B 00                 7076 	.db #0x00
   1A7C 00                 7077 	.db #0x00
   1A7D 00                 7078 	.db #0x00
   1A7E 00                 7079 	.db #0x00
   1A7F 00                 7080 	.db #0x00
   1A80 00                 7081 	.db #0x00
   1A81 00                 7082 	.db #0x00
   1A82 00                 7083 	.db #0x00
   1A83 00                 7084 	.db #0x00
   1A84 00                 7085 	.db #0x00
   1A85 00                 7086 	.db #0x00
   1A86 00                 7087 	.db #0x00
   1A87 80                 7088 	.db #0x80
   1A88 00                 7089 	.db #0x00
   1A89 78                 7090 	.db #0x78
   1A8A 00                 7091 	.db #0x00
   1A8B 06                 7092 	.db #0x06
   1A8C 00                 7093 	.db #0x00
   1A8D 01                 7094 	.db #0x01
   1A8E 00                 7095 	.db #0x00
   1A8F 00                 7096 	.db #0x00
   1A90 00                 7097 	.db #0x00
   1A91 00                 7098 	.db #0x00
   1A92 00                 7099 	.db #0x00
   1A93 00                 7100 	.db #0x00
   1A94 00                 7101 	.db #0x00
   1A95 00                 7102 	.db #0x00
   1A96 00                 7103 	.db #0x00
   1A97 00                 7104 	.db #0x00
   1A98 00                 7105 	.db #0x00
   1A99 00                 7106 	.db #0x00
   1A9A 00                 7107 	.db #0x00
   1A9B 00                 7108 	.db #0x00
   1A9C 00                 7109 	.db #0x00
   1A9D 00                 7110 	.db #0x00
   1A9E 00                 7111 	.db #0x00
   1A9F 00                 7112 	.db #0x00
   1AA0 00                 7113 	.db #0x00
   1AA1 00                 7114 	.db #0x00
   1AA2 00                 7115 	.db #0x00
   1AA3 00                 7116 	.db #0x00
   1AA4 00                 7117 	.db #0x00
   1AA5 00                 7118 	.db #0x00
   1AA6 00                 7119 	.db #0x00
   1AA7 00                 7120 	.db #0x00
   1AA8 00                 7121 	.db #0x00
   1AA9 00                 7122 	.db #0x00
   1AAA 00                 7123 	.db #0x00
   1AAB F8                 7124 	.db #0xF8
   1AAC 00                 7125 	.db #0x00
   1AAD 07                 7126 	.db #0x07
   1AAE 00                 7127 	.db #0x00
   1AAF 00                 7128 	.db #0x00
   1AB0 00                 7129 	.db #0x00
   1AB1 00                 7130 	.db #0x00
   1AB2 00                 7131 	.db #0x00
   1AB3 00                 7132 	.db #0x00
   1AB4 00                 7133 	.db #0x00
   1AB5 00                 7134 	.db #0x00
   1AB6 00                 7135 	.db #0x00
   1AB7 00                 7136 	.db #0x00
   1AB8 00                 7137 	.db #0x00
   1AB9 00                 7138 	.db #0x00
   1ABA 00                 7139 	.db #0x00
   1ABB 00                 7140 	.db #0x00
   1ABC 00                 7141 	.db #0x00
   1ABD E0                 7142 	.db #0xE0
   1ABE 00                 7143 	.db #0x00
   1ABF 00                 7144 	.db #0x00
   1AC0 00                 7145 	.db #0x00
   1AC1 00                 7146 	.db #0x00
   1AC2 00                 7147 	.db #0x00
   1AC3 01                 7148 	.db #0x01
   1AC4 00                 7149 	.db #0x00
   1AC5 01                 7150 	.db #0x01
   1AC6 00                 7151 	.db #0x00
   1AC7 01                 7152 	.db #0x01
   1AC8 00                 7153 	.db #0x00
   1AC9 01                 7154 	.db #0x01
   1ACA 00                 7155 	.db #0x00
   1ACB 01                 7156 	.db #0x01
   1ACC 00                 7157 	.db #0x00
   1ACD 02                 7158 	.db #0x02
   1ACE 3F                 7159 	.db #0x3F
   1ACF 80                 7160 	.db #0x80
   1AD0 3F                 7161 	.db #0x3F
   1AD1 80                 7162 	.db #0x80
   1AD2 3F                 7163 	.db #0x3F
   1AD3 00                 7164 	.db #0x00
   1AD4 3F                 7165 	.db #0x3F
   1AD5 00                 7166 	.db #0x00
   1AD6 3F                 7167 	.db #0x3F
   1AD7 00                 7168 	.db #0x00
   1AD8 3F                 7169 	.db #0x3F
   1AD9 00                 7170 	.db #0x00
   1ADA 3F                 7171 	.db #0x3F
   1ADB 00                 7172 	.db #0x00
   1ADC 3F                 7173 	.db #0x3F
   1ADD 00                 7174 	.db #0x00
   1ADE CF                 7175 	.db #0xCF
   1ADF 20                 7176 	.db #0x20
   1AE0 CF                 7177 	.db #0xCF
   1AE1 20                 7178 	.db #0x20
   1AE2 CF                 7179 	.db #0xCF
   1AE3 20                 7180 	.db #0x20
   1AE4 DF                 7181 	.db #0xDF
   1AE5 20                 7182 	.db #0x20
   1AE6 9E                 7183 	.db #0x9E
   1AE7 41                 7184 	.db #0x41
   1AE8 9E                 7185 	.db #0x9E
   1AE9 41                 7186 	.db #0x41
   1AEA 3C                 7187 	.db #0x3C
   1AEB C2                 7188 	.db #0xC2
   1AEC 3C                 7189 	.db #0x3C
   1AED C2                 7190 	.db #0xC2
   1AEE FF                 7191 	.db #0xFF
   1AEF 00                 7192 	.db #0x00
   1AF0 FF                 7193 	.db #0xFF
   1AF1 00                 7194 	.db #0x00
   1AF2 DF                 7195 	.db #0xDF
   1AF3 00                 7196 	.db #0x00
   1AF4 9F                 7197 	.db #0x9F
   1AF5 40                 7198 	.db #0x40
   1AF6 0F                 7199 	.db #0x0F
   1AF7 C0                 7200 	.db #0xC0
   1AF8 0F                 7201 	.db #0x0F
   1AF9 20                 7202 	.db #0x20
   1AFA 0F                 7203 	.db #0x0F
   1AFB 20                 7204 	.db #0x20
   1AFC 07                 7205 	.db #0x07
   1AFD 10                 7206 	.db #0x10
   1AFE 80                 7207 	.db #0x80
   1AFF 70                 7208 	.db #0x70
   1B00 C0                 7209 	.db #0xC0
   1B01 30                 7210 	.db #0x30
   1B02 C0                 7211 	.db #0xC0
   1B03 30                 7212 	.db #0x30
   1B04 C0                 7213 	.db #0xC0
   1B05 30                 7214 	.db #0x30
   1B06 C0                 7215 	.db #0xC0
   1B07 30                 7216 	.db #0x30
   1B08 C0                 7217 	.db #0xC0
   1B09 30                 7218 	.db #0x30
   1B0A E0                 7219 	.db #0xE0
   1B0B 10                 7220 	.db #0x10
   1B0C E0                 7221 	.db #0xE0
   1B0D 10                 7222 	.db #0x10
   1B0E FF                 7223 	.db #0xFF
   1B0F 00                 7224 	.db #0x00
   1B10 7F                 7225 	.db #0x7F
   1B11 03                 7226 	.db #0x03
   1B12 3F                 7227 	.db #0x3F
   1B13 07                 7228 	.db #0x07
   1B14 1F                 7229 	.db #0x1F
   1B15 0E                 7230 	.db #0x0E
   1B16 0F                 7231 	.db #0x0F
   1B17 0E                 7232 	.db #0x0E
   1B18 0F                 7233 	.db #0x0F
   1B19 0F                 7234 	.db #0x0F
   1B1A 07                 7235 	.db #0x07
   1B1B 07                 7236 	.db #0x07
   1B1C 03                 7237 	.db #0x03
   1B1D 03                 7238 	.db #0x03
   1B1E FF                 7239 	.db #0xFF
   1B1F 03                 7240 	.db #0x03
   1B20 FF                 7241 	.db #0xFF
   1B21 F1                 7242 	.db #0xF1
   1B22 FD                 7243 	.db #0xFD
   1B23 11                 7244 	.db #0x11
   1B24 F9                 7245 	.db #0xF9
   1B25 11                 7246 	.db #0x11
   1B26 F1                 7247 	.db #0xF1
   1B27 01                 7248 	.db #0x01
   1B28 E1                 7249 	.db #0xE1
   1B29 01                 7250 	.db #0x01
   1B2A C1                 7251 	.db #0xC1
   1B2B C1                 7252 	.db #0xC1
   1B2C E1                 7253 	.db #0xE1
   1B2D E1                 7254 	.db #0xE1
   1B2E FF                 7255 	.db #0xFF
   1B2F C0                 7256 	.db #0xC0
   1B30 FF                 7257 	.db #0xFF
   1B31 C0                 7258 	.db #0xC0
   1B32 FF                 7259 	.db #0xFF
   1B33 C0                 7260 	.db #0xC0
   1B34 DF                 7261 	.db #0xDF
   1B35 C0                 7262 	.db #0xC0
   1B36 CF                 7263 	.db #0xCF
   1B37 C0                 7264 	.db #0xC0
   1B38 FF                 7265 	.db #0xFF
   1B39 FC                 7266 	.db #0xFC
   1B3A CF                 7267 	.db #0xCF
   1B3B CE                 7268 	.db #0xCE
   1B3C CF                 7269 	.db #0xCF
   1B3D CE                 7270 	.db #0xCE
   1B3E FF                 7271 	.db #0xFF
   1B3F 00                 7272 	.db #0x00
   1B40 FE                 7273 	.db #0xFE
   1B41 00                 7274 	.db #0x00
   1B42 FC                 7275 	.db #0xFC
   1B43 00                 7276 	.db #0x00
   1B44 F8                 7277 	.db #0xF8
   1B45 00                 7278 	.db #0x00
   1B46 F0                 7279 	.db #0xF0
   1B47 00                 7280 	.db #0x00
   1B48 FF                 7281 	.db #0xFF
   1B49 3F                 7282 	.db #0x3F
   1B4A C3                 7283 	.db #0xC3
   1B4B 03                 7284 	.db #0x03
   1B4C 83                 7285 	.db #0x83
   1B4D 03                 7286 	.db #0x03
   1B4E FF                 7287 	.db #0xFF
   1B4F 1E                 7288 	.db #0x1E
   1B50 7F                 7289 	.db #0x7F
   1B51 0E                 7290 	.db #0x0E
   1B52 3F                 7291 	.db #0x3F
   1B53 0E                 7292 	.db #0x0E
   1B54 1F                 7293 	.db #0x1F
   1B55 0E                 7294 	.db #0x0E
   1B56 0F                 7295 	.db #0x0F
   1B57 0E                 7296 	.db #0x0E
   1B58 0F                 7297 	.db #0x0F
   1B59 0E                 7298 	.db #0x0E
   1B5A 8F                 7299 	.db #0x8F
   1B5B 8E                 7300 	.db #0x8E
   1B5C 8F                 7301 	.db #0x8F
   1B5D 8E                 7302 	.db #0x8E
   1B5E FF                 7303 	.db #0xFF
   1B5F 78                 7304 	.db #0x78
   1B60 FE                 7305 	.db #0xFE
   1B61 38                 7306 	.db #0x38
   1B62 FC                 7307 	.db #0xFC
   1B63 38                 7308 	.db #0x38
   1B64 F8                 7309 	.db #0xF8
   1B65 38                 7310 	.db #0x38
   1B66 F8                 7311 	.db #0xF8
   1B67 38                 7312 	.db #0x38
   1B68 F8                 7313 	.db #0xF8
   1B69 38                 7314 	.db #0x38
   1B6A F8                 7315 	.db #0xF8
   1B6B 38                 7316 	.db #0x38
   1B6C B8                 7317 	.db #0xB8
   1B6D 38                 7318 	.db #0x38
   1B6E FF                 7319 	.db #0xFF
   1B6F 00                 7320 	.db #0x00
   1B70 7F                 7321 	.db #0x7F
   1B71 1F                 7322 	.db #0x1F
   1B72 3F                 7323 	.db #0x3F
   1B73 0E                 7324 	.db #0x0E
   1B74 1F                 7325 	.db #0x1F
   1B75 0E                 7326 	.db #0x0E
   1B76 0F                 7327 	.db #0x0F
   1B77 0E                 7328 	.db #0x0E
   1B78 0F                 7329 	.db #0x0F
   1B79 0E                 7330 	.db #0x0E
   1B7A 0F                 7331 	.db #0x0F
   1B7B 0F                 7332 	.db #0x0F
   1B7C 0F                 7333 	.db #0x0F
   1B7D 0E                 7334 	.db #0x0E
   1B7E FF                 7335 	.db #0xFF
   1B7F 00                 7336 	.db #0x00
   1B80 FE                 7337 	.db #0xFE
   1B81 E0                 7338 	.db #0xE0
   1B82 FC                 7339 	.db #0xFC
   1B83 38                 7340 	.db #0x38
   1B84 F8                 7341 	.db #0xF8
   1B85 38                 7342 	.db #0x38
   1B86 F8                 7343 	.db #0xF8
   1B87 38                 7344 	.db #0x38
   1B88 F0                 7345 	.db #0xF0
   1B89 30                 7346 	.db #0x30
   1B8A F0                 7347 	.db #0xF0
   1B8B F0                 7348 	.db #0xF0
   1B8C F9                 7349 	.db #0xF9
   1B8D 79                 7350 	.db #0x79
   1B8E FF                 7351 	.db #0xFF
   1B8F 00                 7352 	.db #0x00
   1B90 7F                 7353 	.db #0x7F
   1B91 00                 7354 	.db #0x00
   1B92 3F                 7355 	.db #0x3F
   1B93 00                 7356 	.db #0x00
   1B94 1F                 7357 	.db #0x1F
   1B95 00                 7358 	.db #0x00
   1B96 0F                 7359 	.db #0x0F
   1B97 00                 7360 	.db #0x00
   1B98 3F                 7361 	.db #0x3F
   1B99 3C                 7362 	.db #0x3C
   1B9A E7                 7363 	.db #0xE7
   1B9B E6                 7364 	.db #0xE6
   1B9C C7                 7365 	.db #0xC7
   1B9D C7                 7366 	.db #0xC7
   1B9E 00                 7367 	.db #0x00
   1B9F 01                 7368 	.db #0x01
   1BA0 00                 7369 	.db #0x00
   1BA1 FE                 7370 	.db #0xFE
   1BA2 C0                 7371 	.db #0xC0
   1BA3 3E                 7372 	.db #0x3E
   1BA4 F0                 7373 	.db #0xF0
   1BA5 0C                 7374 	.db #0x0C
   1BA6 F0                 7375 	.db #0xF0
   1BA7 08                 7376 	.db #0x08
   1BA8 C0                 7377 	.db #0xC0
   1BA9 30                 7378 	.db #0x30
   1BAA 00                 7379 	.db #0x00
   1BAB C0                 7380 	.db #0xC0
   1BAC 00                 7381 	.db #0x00
   1BAD 00                 7382 	.db #0x00
   1BAE 00                 7383 	.db #0x00
   1BAF 00                 7384 	.db #0x00
   1BB0 00                 7385 	.db #0x00
   1BB1 00                 7386 	.db #0x00
   1BB2 00                 7387 	.db #0x00
   1BB3 00                 7388 	.db #0x00
   1BB4 00                 7389 	.db #0x00
   1BB5 00                 7390 	.db #0x00
   1BB6 00                 7391 	.db #0x00
   1BB7 00                 7392 	.db #0x00
   1BB8 00                 7393 	.db #0x00
   1BB9 00                 7394 	.db #0x00
   1BBA 00                 7395 	.db #0x00
   1BBB 00                 7396 	.db #0x00
   1BBC 00                 7397 	.db #0x00
   1BBD 00                 7398 	.db #0x00
   1BBE 00                 7399 	.db #0x00
   1BBF 02                 7400 	.db #0x02
   1BC0 00                 7401 	.db #0x00
   1BC1 06                 7402 	.db #0x06
   1BC2 00                 7403 	.db #0x00
   1BC3 0E                 7404 	.db #0x0E
   1BC4 06                 7405 	.db #0x06
   1BC5 19                 7406 	.db #0x19
   1BC6 06                 7407 	.db #0x06
   1BC7 39                 7408 	.db #0x39
   1BC8 06                 7409 	.db #0x06
   1BC9 39                 7410 	.db #0x39
   1BCA 0F                 7411 	.db #0x0F
   1BCB 70                 7412 	.db #0x70
   1BCC 0F                 7413 	.db #0x0F
   1BCD F0                 7414 	.db #0xF0
   1BCE 3F                 7415 	.db #0x3F
   1BCF 00                 7416 	.db #0x00
   1BD0 7F                 7417 	.db #0x7F
   1BD1 00                 7418 	.db #0x00
   1BD2 3F                 7419 	.db #0x3F
   1BD3 00                 7420 	.db #0x00
   1BD4 3F                 7421 	.db #0x3F
   1BD5 00                 7422 	.db #0x00
   1BD6 3F                 7423 	.db #0x3F
   1BD7 00                 7424 	.db #0x00
   1BD8 3F                 7425 	.db #0x3F
   1BD9 00                 7426 	.db #0x00
   1BDA 1F                 7427 	.db #0x1F
   1BDB 80                 7428 	.db #0x80
   1BDC 0F                 7429 	.db #0x0F
   1BDD 80                 7430 	.db #0x80
   1BDE 38                 7431 	.db #0x38
   1BDF C4                 7432 	.db #0xC4
   1BE0 98                 7433 	.db #0x98
   1BE1 64                 7434 	.db #0x64
   1BE2 80                 7435 	.db #0x80
   1BE3 78                 7436 	.db #0x78
   1BE4 C0                 7437 	.db #0xC0
   1BE5 3F                 7438 	.db #0x3F
   1BE6 FF                 7439 	.db #0xFF
   1BE7 00                 7440 	.db #0x00
   1BE8 FF                 7441 	.db #0xFF
   1BE9 00                 7442 	.db #0x00
   1BEA FF                 7443 	.db #0xFF
   1BEB 00                 7444 	.db #0x00
   1BEC FF                 7445 	.db #0xFF
   1BED 00                 7446 	.db #0x00
   1BEE 07                 7447 	.db #0x07
   1BEF 10                 7448 	.db #0x10
   1BF0 0F                 7449 	.db #0x0F
   1BF1 20                 7450 	.db #0x20
   1BF2 0F                 7451 	.db #0x0F
   1BF3 40                 7452 	.db #0x40
   1BF4 5F                 7453 	.db #0x5F
   1BF5 80                 7454 	.db #0x80
   1BF6 FF                 7455 	.db #0xFF
   1BF7 00                 7456 	.db #0x00
   1BF8 FF                 7457 	.db #0xFF
   1BF9 00                 7458 	.db #0x00
   1BFA FF                 7459 	.db #0xFF
   1BFB 00                 7460 	.db #0x00
   1BFC FF                 7461 	.db #0xFF
   1BFD 00                 7462 	.db #0x00
   1BFE E0                 7463 	.db #0xE0
   1BFF 10                 7464 	.db #0x10
   1C00 E0                 7465 	.db #0xE0
   1C01 10                 7466 	.db #0x10
   1C02 E0                 7467 	.db #0xE0
   1C03 10                 7468 	.db #0x10
   1C04 C0                 7469 	.db #0xC0
   1C05 20                 7470 	.db #0x20
   1C06 C0                 7471 	.db #0xC0
   1C07 20                 7472 	.db #0x20
   1C08 80                 7473 	.db #0x80
   1C09 40                 7474 	.db #0x40
   1C0A 80                 7475 	.db #0x80
   1C0B 40                 7476 	.db #0x40
   1C0C 00                 7477 	.db #0x00
   1C0D 80                 7478 	.db #0x80
   1C0E 01                 7479 	.db #0x01
   1C0F 00                 7480 	.db #0x00
   1C10 03                 7481 	.db #0x03
   1C11 00                 7482 	.db #0x00
   1C12 0F                 7483 	.db #0x0F
   1C13 08                 7484 	.db #0x08
   1C14 0F                 7485 	.db #0x0F
   1C15 08                 7486 	.db #0x08
   1C16 1F                 7487 	.db #0x1F
   1C17 1F                 7488 	.db #0x1F
   1C18 3F                 7489 	.db #0x3F
   1C19 00                 7490 	.db #0x00
   1C1A 7F                 7491 	.db #0x7F
   1C1B 00                 7492 	.db #0x00
   1C1C 03                 7493 	.db #0x03
   1C1D 03                 7494 	.db #0x03
   1C1E F1                 7495 	.db #0xF1
   1C1F F1                 7496 	.db #0xF1
   1C20 F1                 7497 	.db #0xF1
   1C21 71                 7498 	.db #0x71
   1C22 F1                 7499 	.db #0xF1
   1C23 71                 7500 	.db #0x71
   1C24 F1                 7501 	.db #0xF1
   1C25 E1                 7502 	.db #0xE1
   1C26 FB                 7503 	.db #0xFB
   1C27 C3                 7504 	.db #0xC3
   1C28 FC                 7505 	.db #0xFC
   1C29 00                 7506 	.db #0x00
   1C2A FE                 7507 	.db #0xFE
   1C2B 00                 7508 	.db #0x00
   1C2C FF                 7509 	.db #0xFF
   1C2D FF                 7510 	.db #0xFF
   1C2E CF                 7511 	.db #0xCF
   1C2F CE                 7512 	.db #0xCE
   1C30 CF                 7513 	.db #0xCF
   1C31 CE                 7514 	.db #0xCE
   1C32 CF                 7515 	.db #0xCF
   1C33 CE                 7516 	.db #0xCE
   1C34 CF                 7517 	.db #0xCF
   1C35 CE                 7518 	.db #0xCE
   1C36 FF                 7519 	.db #0xFF
   1C37 FF                 7520 	.db #0xFF
   1C38 3F                 7521 	.db #0x3F
   1C39 00                 7522 	.db #0x00
   1C3A 7F                 7523 	.db #0x7F
   1C3B 00                 7524 	.db #0x00
   1C3C FF                 7525 	.db #0xFF
   1C3D FF                 7526 	.db #0xFF
   1C3E BF                 7527 	.db #0xBF
   1C3F 3F                 7528 	.db #0x3F
   1C40 E3                 7529 	.db #0xE3
   1C41 E3                 7530 	.db #0xE3
   1C42 E3                 7531 	.db #0xE3
   1C43 E3                 7532 	.db #0xE3
   1C44 F3                 7533 	.db #0xF3
   1C45 E3                 7534 	.db #0xE3
   1C46 FD                 7535 	.db #0xFD
   1C47 7D                 7536 	.db #0x7D
   1C48 FC                 7537 	.db #0xFC
   1C49 00                 7538 	.db #0x00
   1C4A FE                 7539 	.db #0xFE
   1C4B 00                 7540 	.db #0x00
   1C4C FF                 7541 	.db #0xFF
   1C4D FF                 7542 	.db #0xFF
   1C4E 8F                 7543 	.db #0x8F
   1C4F 8E                 7544 	.db #0x8E
   1C50 8F                 7545 	.db #0x8F
   1C51 8E                 7546 	.db #0x8E
   1C52 8F                 7547 	.db #0x8F
   1C53 8E                 7548 	.db #0x8E
   1C54 8F                 7549 	.db #0x8F
   1C55 8E                 7550 	.db #0x8E
   1C56 DF                 7551 	.db #0xDF
   1C57 DF                 7552 	.db #0xDF
   1C58 3F                 7553 	.db #0x3F
   1C59 00                 7554 	.db #0x00
   1C5A 7F                 7555 	.db #0x7F
   1C5B 00                 7556 	.db #0x00
   1C5C FF                 7557 	.db #0xFF
   1C5D FF                 7558 	.db #0xFF
   1C5E B8                 7559 	.db #0xB8
   1C5F 38                 7560 	.db #0x38
   1C60 F8                 7561 	.db #0xF8
   1C61 38                 7562 	.db #0x38
   1C62 F8                 7563 	.db #0xF8
   1C63 38                 7564 	.db #0x38
   1C64 F8                 7565 	.db #0xF8
   1C65 38                 7566 	.db #0x38
   1C66 FC                 7567 	.db #0xFC
   1C67 7C                 7568 	.db #0x7C
   1C68 FC                 7569 	.db #0xFC
   1C69 00                 7570 	.db #0x00
   1C6A FE                 7571 	.db #0xFE
   1C6B 00                 7572 	.db #0x00
   1C6C FF                 7573 	.db #0xFF
   1C6D FF                 7574 	.db #0xFF
   1C6E 0F                 7575 	.db #0x0F
   1C6F 0E                 7576 	.db #0x0E
   1C70 0F                 7577 	.db #0x0F
   1C71 0E                 7578 	.db #0x0E
   1C72 0F                 7579 	.db #0x0F
   1C73 0E                 7580 	.db #0x0E
   1C74 0F                 7581 	.db #0x0F
   1C75 0E                 7582 	.db #0x0E
   1C76 1F                 7583 	.db #0x1F
   1C77 1F                 7584 	.db #0x1F
   1C78 3F                 7585 	.db #0x3F
   1C79 00                 7586 	.db #0x00
   1C7A 7F                 7587 	.db #0x7F
   1C7B 00                 7588 	.db #0x00
   1C7C FF                 7589 	.db #0xFF
   1C7D FF                 7590 	.db #0xFF
   1C7E B9                 7591 	.db #0xB9
   1C7F 39                 7592 	.db #0x39
   1C80 F9                 7593 	.db #0xF9
   1C81 39                 7594 	.db #0x39
   1C82 F9                 7595 	.db #0xF9
   1C83 39                 7596 	.db #0x39
   1C84 F0                 7597 	.db #0xF0
   1C85 70                 7598 	.db #0x70
   1C86 F8                 7599 	.db #0xF8
   1C87 E0                 7600 	.db #0xE0
   1C88 FC                 7601 	.db #0xFC
   1C89 00                 7602 	.db #0x00
   1C8A FE                 7603 	.db #0xFE
   1C8B 00                 7604 	.db #0x00
   1C8C FF                 7605 	.db #0xFF
   1C8D FF                 7606 	.db #0xFF
   1C8E FF                 7607 	.db #0xFF
   1C8F FF                 7608 	.db #0xFF
   1C90 C3                 7609 	.db #0xC3
   1C91 C0                 7610 	.db #0xC0
   1C92 C7                 7611 	.db #0xC7
   1C93 C0                 7612 	.db #0xC0
   1C94 EF                 7613 	.db #0xEF
   1C95 E0                 7614 	.db #0xE0
   1C96 7F                 7615 	.db #0x7F
   1C97 7E                 7616 	.db #0x7E
   1C98 3F                 7617 	.db #0x3F
   1C99 00                 7618 	.db #0x00
   1C9A 7F                 7619 	.db #0x7F
   1C9B 00                 7620 	.db #0x00
   1C9C FF                 7621 	.db #0xFF
   1C9D FF                 7622 	.db #0xFF
   1C9E 00                 7623 	.db #0x00
   1C9F 00                 7624 	.db #0x00
   1CA0 00                 7625 	.db #0x00
   1CA1 00                 7626 	.db #0x00
   1CA2 00                 7627 	.db #0x00
   1CA3 00                 7628 	.db #0x00
   1CA4 00                 7629 	.db #0x00
   1CA5 00                 7630 	.db #0x00
   1CA6 00                 7631 	.db #0x00
   1CA7 00                 7632 	.db #0x00
   1CA8 00                 7633 	.db #0x00
   1CA9 01                 7634 	.db #0x01
   1CAA 00                 7635 	.db #0x00
   1CAB 06                 7636 	.db #0x06
   1CAC 00                 7637 	.db #0x00
   1CAD 08                 7638 	.db #0x08
   1CAE 00                 7639 	.db #0x00
   1CAF 01                 7640 	.db #0x01
   1CB0 00                 7641 	.db #0x00
   1CB1 07                 7642 	.db #0x07
   1CB2 00                 7643 	.db #0x00
   1CB3 0F                 7644 	.db #0x0F
   1CB4 00                 7645 	.db #0x00
   1CB5 3F                 7646 	.db #0x3F
   1CB6 00                 7647 	.db #0x00
   1CB7 CF                 7648 	.db #0xCF
   1CB8 00                 7649 	.db #0x00
   1CB9 0F                 7650 	.db #0x0F
   1CBA 00                 7651 	.db #0x00
   1CBB 0F                 7652 	.db #0x0F
   1CBC 00                 7653 	.db #0x00
   1CBD 0F                 7654 	.db #0x0F
   1CBE 0F                 7655 	.db #0x0F
   1CBF F0                 7656 	.db #0xF0
   1CC0 0F                 7657 	.db #0x0F
   1CC1 F0                 7658 	.db #0xF0
   1CC2 1F                 7659 	.db #0x1F
   1CC3 E0                 7660 	.db #0xE0
   1CC4 1F                 7661 	.db #0x1F
   1CC5 E0                 7662 	.db #0xE0
   1CC6 1F                 7663 	.db #0x1F
   1CC7 E0                 7664 	.db #0xE0
   1CC8 3F                 7665 	.db #0x3F
   1CC9 C0                 7666 	.db #0xC0
   1CCA 1F                 7667 	.db #0x1F
   1CCB E0                 7668 	.db #0xE0
   1CCC 1F                 7669 	.db #0x1F
   1CCD E0                 7670 	.db #0xE0
   1CCE 0F                 7671 	.db #0x0F
   1CCF 80                 7672 	.db #0x80
   1CD0 8F                 7673 	.db #0x8F
   1CD1 40                 7674 	.db #0x40
   1CD2 87                 7675 	.db #0x87
   1CD3 60                 7676 	.db #0x60
   1CD4 E3                 7677 	.db #0xE3
   1CD5 1C                 7678 	.db #0x1C
   1CD6 FC                 7679 	.db #0xFC
   1CD7 03                 7680 	.db #0x03
   1CD8 FF                 7681 	.db #0xFF
   1CD9 00                 7682 	.db #0x00
   1CDA FF                 7683 	.db #0xFF
   1CDB 00                 7684 	.db #0x00
   1CDC FE                 7685 	.db #0xFE
   1CDD 01                 7686 	.db #0x01
   1CDE FF                 7687 	.db #0xFF
   1CDF 00                 7688 	.db #0x00
   1CE0 FF                 7689 	.db #0xFF
   1CE1 00                 7690 	.db #0x00
   1CE2 FF                 7691 	.db #0xFF
   1CE3 00                 7692 	.db #0x00
   1CE4 FF                 7693 	.db #0xFF
   1CE5 00                 7694 	.db #0x00
   1CE6 1F                 7695 	.db #0x1F
   1CE7 E0                 7696 	.db #0xE0
   1CE8 E0                 7697 	.db #0xE0
   1CE9 1F                 7698 	.db #0x1F
   1CEA 80                 7699 	.db #0x80
   1CEB 7C                 7700 	.db #0x7C
   1CEC 70                 7701 	.db #0x70
   1CED 8E                 7702 	.db #0x8E
   1CEE FC                 7703 	.db #0xFC
   1CEF 03                 7704 	.db #0x03
   1CF0 F8                 7705 	.db #0xF8
   1CF1 04                 7706 	.db #0x04
   1CF2 E0                 7707 	.db #0xE0
   1CF3 18                 7708 	.db #0x18
   1CF4 C0                 7709 	.db #0xC0
   1CF5 20                 7710 	.db #0x20
   1CF6 00                 7711 	.db #0x00
   1CF7 C0                 7712 	.db #0xC0
   1CF8 00                 7713 	.db #0x00
   1CF9 00                 7714 	.db #0x00
   1CFA 00                 7715 	.db #0x00
   1CFB 00                 7716 	.db #0x00
   1CFC 00                 7717 	.db #0x00
   1CFD 00                 7718 	.db #0x00
   1CFE F1                 7719 	.db #0xF1
   1CFF F1                 7720 	.db #0xF1
   1D00 E3                 7721 	.db #0xE3
   1D01 E3                 7722 	.db #0xE3
   1D02 C7                 7723 	.db #0xC7
   1D03 C7                 7724 	.db #0xC7
   1D04 87                 7725 	.db #0x87
   1D05 87                 7726 	.db #0x87
   1D06 8F                 7727 	.db #0x8F
   1D07 8F                 7728 	.db #0x8F
   1D08 0F                 7729 	.db #0x0F
   1D09 0F                 7730 	.db #0x0F
   1D0A 0F                 7731 	.db #0x0F
   1D0B 0F                 7732 	.db #0x0F
   1D0C 0F                 7733 	.db #0x0F
   1D0D 0F                 7734 	.db #0x0F
   1D0E F0                 7735 	.db #0xF0
   1D0F F0                 7736 	.db #0xF0
   1D10 FC                 7737 	.db #0xFC
   1D11 FC                 7738 	.db #0xFC
   1D12 FE                 7739 	.db #0xFE
   1D13 FE                 7740 	.db #0xFE
   1D14 FE                 7741 	.db #0xFE
   1D15 FE                 7742 	.db #0xFE
   1D16 FF                 7743 	.db #0xFF
   1D17 FF                 7744 	.db #0xFF
   1D18 FF                 7745 	.db #0xFF
   1D19 FF                 7746 	.db #0xFF
   1D1A FF                 7747 	.db #0xFF
   1D1B FF                 7748 	.db #0xFF
   1D1C FF                 7749 	.db #0xFF
   1D1D FF                 7750 	.db #0xFF
   1D1E FF                 7751 	.db #0xFF
   1D1F FF                 7752 	.db #0xFF
   1D20 3F                 7753 	.db #0x3F
   1D21 3F                 7754 	.db #0x3F
   1D22 3F                 7755 	.db #0x3F
   1D23 3F                 7756 	.db #0x3F
   1D24 1F                 7757 	.db #0x1F
   1D25 1F                 7758 	.db #0x1F
   1D26 1F                 7759 	.db #0x1F
   1D27 1F                 7760 	.db #0x1F
   1D28 0F                 7761 	.db #0x0F
   1D29 0F                 7762 	.db #0x0F
   1D2A 0E                 7763 	.db #0x0E
   1D2B 0E                 7764 	.db #0x0E
   1D2C 00                 7765 	.db #0x00
   1D2D 00                 7766 	.db #0x00
   1D2E FF                 7767 	.db #0xFF
   1D2F FF                 7768 	.db #0xFF
   1D30 FF                 7769 	.db #0xFF
   1D31 FF                 7770 	.db #0xFF
   1D32 FF                 7771 	.db #0xFF
   1D33 FF                 7772 	.db #0xFF
   1D34 FF                 7773 	.db #0xFF
   1D35 FF                 7774 	.db #0xFF
   1D36 FF                 7775 	.db #0xFF
   1D37 FF                 7776 	.db #0xFF
   1D38 FF                 7777 	.db #0xFF
   1D39 FF                 7778 	.db #0xFF
   1D3A 3F                 7779 	.db #0x3F
   1D3B 3F                 7780 	.db #0x3F
   1D3C 38                 7781 	.db #0x38
   1D3D 38                 7782 	.db #0x38
   1D3E FF                 7783 	.db #0xFF
   1D3F FF                 7784 	.db #0xFF
   1D40 FF                 7785 	.db #0xFF
   1D41 FF                 7786 	.db #0xFF
   1D42 FF                 7787 	.db #0xFF
   1D43 FF                 7788 	.db #0xFF
   1D44 FF                 7789 	.db #0xFF
   1D45 FF                 7790 	.db #0xFF
   1D46 FF                 7791 	.db #0xFF
   1D47 FF                 7792 	.db #0xFF
   1D48 FF                 7793 	.db #0xFF
   1D49 FF                 7794 	.db #0xFF
   1D4A 1F                 7795 	.db #0x1F
   1D4B 1F                 7796 	.db #0x1F
   1D4C 1E                 7797 	.db #0x1E
   1D4D 1E                 7798 	.db #0x1E
   1D4E FF                 7799 	.db #0xFF
   1D4F FF                 7800 	.db #0xFF
   1D50 FF                 7801 	.db #0xFF
   1D51 FF                 7802 	.db #0xFF
   1D52 FF                 7803 	.db #0xFF
   1D53 FF                 7804 	.db #0xFF
   1D54 FF                 7805 	.db #0xFF
   1D55 FF                 7806 	.db #0xFF
   1D56 FF                 7807 	.db #0xFF
   1D57 FF                 7808 	.db #0xFF
   1D58 FF                 7809 	.db #0xFF
   1D59 FF                 7810 	.db #0xFF
   1D5A 81                 7811 	.db #0x81
   1D5B 81                 7812 	.db #0x81
   1D5C 38                 7813 	.db #0x38
   1D5D 38                 7814 	.db #0x38
   1D5E FF                 7815 	.db #0xFF
   1D5F FF                 7816 	.db #0xFF
   1D60 FF                 7817 	.db #0xFF
   1D61 FF                 7818 	.db #0xFF
   1D62 FF                 7819 	.db #0xFF
   1D63 FF                 7820 	.db #0xFF
   1D64 FF                 7821 	.db #0xFF
   1D65 FF                 7822 	.db #0xFF
   1D66 FF                 7823 	.db #0xFF
   1D67 FF                 7824 	.db #0xFF
   1D68 FF                 7825 	.db #0xFF
   1D69 FF                 7826 	.db #0xFF
   1D6A FC                 7827 	.db #0xFC
   1D6B FC                 7828 	.db #0xFC
   1D6C F1                 7829 	.db #0xF1
   1D6D F1                 7830 	.db #0xF1
   1D6E FF                 7831 	.db #0xFF
   1D6F FF                 7832 	.db #0xFF
   1D70 FF                 7833 	.db #0xFF
   1D71 FF                 7834 	.db #0xFF
   1D72 FF                 7835 	.db #0xFF
   1D73 FF                 7836 	.db #0xFF
   1D74 FF                 7837 	.db #0xFF
   1D75 FF                 7838 	.db #0xFF
   1D76 FF                 7839 	.db #0xFF
   1D77 FF                 7840 	.db #0xFF
   1D78 FF                 7841 	.db #0xFF
   1D79 FF                 7842 	.db #0xFF
   1D7A 0F                 7843 	.db #0x0F
   1D7B 0F                 7844 	.db #0x0F
   1D7C C6                 7845 	.db #0xC6
   1D7D C6                 7846 	.db #0xC6
   1D7E FF                 7847 	.db #0xFF
   1D7F FF                 7848 	.db #0xFF
   1D80 FF                 7849 	.db #0xFF
   1D81 FF                 7850 	.db #0xFF
   1D82 FF                 7851 	.db #0xFF
   1D83 FF                 7852 	.db #0xFF
   1D84 FF                 7853 	.db #0xFF
   1D85 FF                 7854 	.db #0xFF
   1D86 FF                 7855 	.db #0xFF
   1D87 FF                 7856 	.db #0xFF
   1D88 FF                 7857 	.db #0xFF
   1D89 FF                 7858 	.db #0xFF
   1D8A C6                 7859 	.db #0xC6
   1D8B C6                 7860 	.db #0xC6
   1D8C 00                 7861 	.db #0x00
   1D8D 00                 7862 	.db #0x00
   1D8E FF                 7863 	.db #0xFF
   1D8F FF                 7864 	.db #0xFF
   1D90 FF                 7865 	.db #0xFF
   1D91 FF                 7866 	.db #0xFF
   1D92 FF                 7867 	.db #0xFF
   1D93 FF                 7868 	.db #0xFF
   1D94 FF                 7869 	.db #0xFF
   1D95 FF                 7870 	.db #0xFF
   1D96 FF                 7871 	.db #0xFF
   1D97 FF                 7872 	.db #0xFF
   1D98 FF                 7873 	.db #0xFF
   1D99 FF                 7874 	.db #0xFF
   1D9A 0F                 7875 	.db #0x0F
   1D9B 0F                 7876 	.db #0x0F
   1D9C 07                 7877 	.db #0x07
   1D9D 07                 7878 	.db #0x07
   1D9E 00                 7879 	.db #0x00
   1D9F 30                 7880 	.db #0x30
   1DA0 00                 7881 	.db #0x00
   1DA1 C0                 7882 	.db #0xC0
   1DA2 00                 7883 	.db #0x00
   1DA3 00                 7884 	.db #0x00
   1DA4 00                 7885 	.db #0x00
   1DA5 00                 7886 	.db #0x00
   1DA6 00                 7887 	.db #0x00
   1DA7 00                 7888 	.db #0x00
   1DA8 00                 7889 	.db #0x00
   1DA9 00                 7890 	.db #0x00
   1DAA 00                 7891 	.db #0x00
   1DAB 00                 7892 	.db #0x00
   1DAC 00                 7893 	.db #0x00
   1DAD 00                 7894 	.db #0x00
   1DAE 00                 7895 	.db #0x00
   1DAF 07                 7896 	.db #0x07
   1DB0 00                 7897 	.db #0x00
   1DB1 07                 7898 	.db #0x07
   1DB2 00                 7899 	.db #0x00
   1DB3 07                 7900 	.db #0x07
   1DB4 00                 7901 	.db #0x00
   1DB5 07                 7902 	.db #0x07
   1DB6 00                 7903 	.db #0x00
   1DB7 07                 7904 	.db #0x07
   1DB8 00                 7905 	.db #0x00
   1DB9 07                 7906 	.db #0x07
   1DBA 00                 7907 	.db #0x00
   1DBB 03                 7908 	.db #0x03
   1DBC 00                 7909 	.db #0x00
   1DBD 03                 7910 	.db #0x03
   1DBE 0F                 7911 	.db #0x0F
   1DBF E0                 7912 	.db #0xE0
   1DC0 0F                 7913 	.db #0x0F
   1DC1 C0                 7914 	.db #0xC0
   1DC2 0F                 7915 	.db #0x0F
   1DC3 C0                 7916 	.db #0xC0
   1DC4 1F                 7917 	.db #0x1F
   1DC5 80                 7918 	.db #0x80
   1DC6 1F                 7919 	.db #0x1F
   1DC7 80                 7920 	.db #0x80
   1DC8 1F                 7921 	.db #0x1F
   1DC9 80                 7922 	.db #0x80
   1DCA 1F                 7923 	.db #0x1F
   1DCB 00                 7924 	.db #0x00
   1DCC 3F                 7925 	.db #0x3F
   1DCD 00                 7926 	.db #0x00
   1DCE FD                 7927 	.db #0xFD
   1DCF 02                 7928 	.db #0x02
   1DD0 FB                 7929 	.db #0xFB
   1DD1 04                 7930 	.db #0x04
   1DD2 E3                 7931 	.db #0xE3
   1DD3 18                 7932 	.db #0x18
   1DD4 C7                 7933 	.db #0xC7
   1DD5 20                 7934 	.db #0x20
   1DD6 CF                 7935 	.db #0xCF
   1DD7 20                 7936 	.db #0x20
   1DD8 CF                 7937 	.db #0xCF
   1DD9 20                 7938 	.db #0x20
   1DDA DF                 7939 	.db #0xDF
   1DDB 20                 7940 	.db #0x20
   1DDC DF                 7941 	.db #0xDF
   1DDD 20                 7942 	.db #0x20
   1DDE F8                 7943 	.db #0xF8
   1DDF 07                 7944 	.db #0x07
   1DE0 FF                 7945 	.db #0xFF
   1DE1 00                 7946 	.db #0x00
   1DE2 FF                 7947 	.db #0xFF
   1DE3 00                 7948 	.db #0x00
   1DE4 FF                 7949 	.db #0xFF
   1DE5 00                 7950 	.db #0x00
   1DE6 FF                 7951 	.db #0xFF
   1DE7 00                 7952 	.db #0x00
   1DE8 FF                 7953 	.db #0xFF
   1DE9 00                 7954 	.db #0x00
   1DEA FF                 7955 	.db #0xFF
   1DEB 00                 7956 	.db #0x00
   1DEC 9F                 7957 	.db #0x9F
   1DED 40                 7958 	.db #0x40
   1DEE 00                 7959 	.db #0x00
   1DEF 80                 7960 	.db #0x80
   1DF0 00                 7961 	.db #0x00
   1DF1 C0                 7962 	.db #0xC0
   1DF2 00                 7963 	.db #0x00
   1DF3 E0                 7964 	.db #0xE0
   1DF4 00                 7965 	.db #0x00
   1DF5 E0                 7966 	.db #0xE0
   1DF6 80                 7967 	.db #0x80
   1DF7 70                 7968 	.db #0x70
   1DF8 C0                 7969 	.db #0xC0
   1DF9 30                 7970 	.db #0x30
   1DFA C0                 7971 	.db #0xC0
   1DFB 30                 7972 	.db #0x30
   1DFC C0                 7973 	.db #0xC0
   1DFD 30                 7974 	.db #0x30
   1DFE 0F                 7975 	.db #0x0F
   1DFF 0F                 7976 	.db #0x0F
   1E00 0F                 7977 	.db #0x0F
   1E01 0F                 7978 	.db #0x0F
   1E02 0F                 7979 	.db #0x0F
   1E03 0F                 7980 	.db #0x0F
   1E04 0F                 7981 	.db #0x0F
   1E05 0F                 7982 	.db #0x0F
   1E06 87                 7983 	.db #0x87
   1E07 87                 7984 	.db #0x87
   1E08 87                 7985 	.db #0x87
   1E09 87                 7986 	.db #0x87
   1E0A C7                 7987 	.db #0xC7
   1E0B C7                 7988 	.db #0xC7
   1E0C E3                 7989 	.db #0xE3
   1E0D E3                 7990 	.db #0xE3
   1E0E FF                 7991 	.db #0xFF
   1E0F FF                 7992 	.db #0xFF
   1E10 FF                 7993 	.db #0xFF
   1E11 FF                 7994 	.db #0xFF
   1E12 FF                 7995 	.db #0xFF
   1E13 FF                 7996 	.db #0xFF
   1E14 FF                 7997 	.db #0xFF
   1E15 FF                 7998 	.db #0xFF
   1E16 FF                 7999 	.db #0xFF
   1E17 FF                 8000 	.db #0xFF
   1E18 FE                 8001 	.db #0xFE
   1E19 FE                 8002 	.db #0xFE
   1E1A FE                 8003 	.db #0xFE
   1E1B FE                 8004 	.db #0xFE
   1E1C FC                 8005 	.db #0xFC
   1E1D FC                 8006 	.db #0xFC
   1E1E 0C                 8007 	.db #0x0C
   1E1F 0C                 8008 	.db #0x0C
   1E20 0C                 8009 	.db #0x0C
   1E21 0C                 8010 	.db #0x0C
   1E22 0C                 8011 	.db #0x0C
   1E23 0C                 8012 	.db #0x0C
   1E24 0C                 8013 	.db #0x0C
   1E25 0C                 8014 	.db #0x0C
   1E26 1C                 8015 	.db #0x1C
   1E27 1C                 8016 	.db #0x1C
   1E28 1C                 8017 	.db #0x1C
   1E29 1C                 8018 	.db #0x1C
   1E2A 3C                 8019 	.db #0x3C
   1E2B 3C                 8020 	.db #0x3C
   1E2C 7C                 8021 	.db #0x7C
   1E2D 7C                 8022 	.db #0x7C
   1E2E 3E                 8023 	.db #0x3E
   1E2F 3E                 8024 	.db #0x3E
   1E30 3E                 8025 	.db #0x3E
   1E31 3E                 8026 	.db #0x3E
   1E32 3E                 8027 	.db #0x3E
   1E33 3E                 8028 	.db #0x3E
   1E34 3E                 8029 	.db #0x3E
   1E35 3E                 8030 	.db #0x3E
   1E36 3E                 8031 	.db #0x3E
   1E37 3E                 8032 	.db #0x3E
   1E38 3E                 8033 	.db #0x3E
   1E39 3E                 8034 	.db #0x3E
   1E3A 3E                 8035 	.db #0x3E
   1E3B 3E                 8036 	.db #0x3E
   1E3C 1E                 8037 	.db #0x1E
   1E3D 1E                 8038 	.db #0x1E
   1E3E 1C                 8039 	.db #0x1C
   1E3F 1C                 8040 	.db #0x1C
   1E40 1C                 8041 	.db #0x1C
   1E41 1C                 8042 	.db #0x1C
   1E42 18                 8043 	.db #0x18
   1E43 18                 8044 	.db #0x18
   1E44 18                 8045 	.db #0x18
   1E45 18                 8046 	.db #0x18
   1E46 18                 8047 	.db #0x18
   1E47 18                 8048 	.db #0x18
   1E48 18                 8049 	.db #0x18
   1E49 18                 8050 	.db #0x18
   1E4A 18                 8051 	.db #0x18
   1E4B 18                 8052 	.db #0x18
   1E4C 1C                 8053 	.db #0x1C
   1E4D 1C                 8054 	.db #0x1C
   1E4E 38                 8055 	.db #0x38
   1E4F 38                 8056 	.db #0x38
   1E50 7C                 8057 	.db #0x7C
   1E51 7C                 8058 	.db #0x7C
   1E52 7C                 8059 	.db #0x7C
   1E53 7C                 8060 	.db #0x7C
   1E54 00                 8061 	.db #0x00
   1E55 00                 8062 	.db #0x00
   1E56 7F                 8063 	.db #0x7F
   1E57 7F                 8064 	.db #0x7F
   1E58 7F                 8065 	.db #0x7F
   1E59 7F                 8066 	.db #0x7F
   1E5A 3F                 8067 	.db #0x3F
   1E5B 3F                 8068 	.db #0x3F
   1E5C 1F                 8069 	.db #0x1F
   1E5D 1F                 8070 	.db #0x1F
   1E5E 61                 8071 	.db #0x61
   1E5F 61                 8072 	.db #0x61
   1E60 23                 8073 	.db #0x23
   1E61 23                 8074 	.db #0x23
   1E62 03                 8075 	.db #0x03
   1E63 03                 8076 	.db #0x03
   1E64 00                 8077 	.db #0x00
   1E65 00                 8078 	.db #0x00
   1E66 C3                 8079 	.db #0xC3
   1E67 C3                 8080 	.db #0xC3
   1E68 C3                 8081 	.db #0xC3
   1E69 C3                 8082 	.db #0xC3
   1E6A C1                 8083 	.db #0xC1
   1E6B C1                 8084 	.db #0xC1
   1E6C E0                 8085 	.db #0xE0
   1E6D E0                 8086 	.db #0xE0
   1E6E C3                 8087 	.db #0xC3
   1E6F C3                 8088 	.db #0xC3
   1E70 E1                 8089 	.db #0xE1
   1E71 E1                 8090 	.db #0xE1
   1E72 E1                 8091 	.db #0xE1
   1E73 E1                 8092 	.db #0xE1
   1E74 01                 8093 	.db #0x01
   1E75 01                 8094 	.db #0x01
   1E76 FF                 8095 	.db #0xFF
   1E77 FF                 8096 	.db #0xFF
   1E78 FF                 8097 	.db #0xFF
   1E79 FF                 8098 	.db #0xFF
   1E7A FF                 8099 	.db #0xFF
   1E7B FF                 8100 	.db #0xFF
   1E7C FF                 8101 	.db #0xFF
   1E7D FF                 8102 	.db #0xFF
   1E7E 87                 8103 	.db #0x87
   1E7F 87                 8104 	.db #0x87
   1E80 87                 8105 	.db #0x87
   1E81 87                 8106 	.db #0x87
   1E82 87                 8107 	.db #0x87
   1E83 87                 8108 	.db #0x87
   1E84 87                 8109 	.db #0x87
   1E85 87                 8110 	.db #0x87
   1E86 87                 8111 	.db #0x87
   1E87 87                 8112 	.db #0x87
   1E88 87                 8113 	.db #0x87
   1E89 87                 8114 	.db #0x87
   1E8A 87                 8115 	.db #0x87
   1E8B 87                 8116 	.db #0x87
   1E8C 87                 8117 	.db #0x87
   1E8D 87                 8118 	.db #0x87
   1E8E 83                 8119 	.db #0x83
   1E8F 83                 8120 	.db #0x83
   1E90 C3                 8121 	.db #0xC3
   1E91 C3                 8122 	.db #0xC3
   1E92 C3                 8123 	.db #0xC3
   1E93 C3                 8124 	.db #0xC3
   1E94 C3                 8125 	.db #0xC3
   1E95 C3                 8126 	.db #0xC3
   1E96 C3                 8127 	.db #0xC3
   1E97 C3                 8128 	.db #0xC3
   1E98 C3                 8129 	.db #0xC3
   1E99 C3                 8130 	.db #0xC3
   1E9A C3                 8131 	.db #0xC3
   1E9B C3                 8132 	.db #0xC3
   1E9C C3                 8133 	.db #0xC3
   1E9D C3                 8134 	.db #0xC3
   1E9E 00                 8135 	.db #0x00
   1E9F 00                 8136 	.db #0x00
   1EA0 00                 8137 	.db #0x00
   1EA1 00                 8138 	.db #0x00
   1EA2 00                 8139 	.db #0x00
   1EA3 00                 8140 	.db #0x00
   1EA4 00                 8141 	.db #0x00
   1EA5 00                 8142 	.db #0x00
   1EA6 00                 8143 	.db #0x00
   1EA7 00                 8144 	.db #0x00
   1EA8 00                 8145 	.db #0x00
   1EA9 00                 8146 	.db #0x00
   1EAA 00                 8147 	.db #0x00
   1EAB 01                 8148 	.db #0x01
   1EAC 01                 8149 	.db #0x01
   1EAD 02                 8150 	.db #0x02
   1EAE 00                 8151 	.db #0x00
   1EAF 03                 8152 	.db #0x03
   1EB0 00                 8153 	.db #0x00
   1EB1 01                 8154 	.db #0x01
   1EB2 00                 8155 	.db #0x00
   1EB3 03                 8156 	.db #0x03
   1EB4 01                 8157 	.db #0x01
   1EB5 0E                 8158 	.db #0x0E
   1EB6 0C                 8159 	.db #0x0C
   1EB7 32                 8160 	.db #0x32
   1EB8 3C                 8161 	.db #0x3C
   1EB9 42                 8162 	.db #0x42
   1EBA 7C                 8163 	.db #0x7C
   1EBB 82                 8164 	.db #0x82
   1EBC F8                 8165 	.db #0xF8
   1EBD 07                 8166 	.db #0x07
   1EBE 3F                 8167 	.db #0x3F
   1EBF 00                 8168 	.db #0x00
   1EC0 3F                 8169 	.db #0x3F
   1EC1 00                 8170 	.db #0x00
   1EC2 3F                 8171 	.db #0x3F
   1EC3 00                 8172 	.db #0x00
   1EC4 3F                 8173 	.db #0x3F
   1EC5 00                 8174 	.db #0x00
   1EC6 3F                 8175 	.db #0x3F
   1EC7 00                 8176 	.db #0x00
   1EC8 3F                 8177 	.db #0x3F
   1EC9 00                 8178 	.db #0x00
   1ECA 3F                 8179 	.db #0x3F
   1ECB 00                 8180 	.db #0x00
   1ECC 3F                 8181 	.db #0x3F
   1ECD 00                 8182 	.db #0x00
   1ECE 9E                 8183 	.db #0x9E
   1ECF 41                 8184 	.db #0x41
   1ED0 9E                 8185 	.db #0x9E
   1ED1 41                 8186 	.db #0x41
   1ED2 1C                 8187 	.db #0x1C
   1ED3 C2                 8188 	.db #0xC2
   1ED4 1C                 8189 	.db #0x1C
   1ED5 C2                 8190 	.db #0xC2
   1ED6 18                 8191 	.db #0x18
   1ED7 C4                 8192 	.db #0xC4
   1ED8 98                 8193 	.db #0x98
   1ED9 64                 8194 	.db #0x64
   1EDA 80                 8195 	.db #0x80
   1EDB 78                 8196 	.db #0x78
   1EDC E0                 8197 	.db #0xE0
   1EDD 1F                 8198 	.db #0x1F
   1EDE 0F                 8199 	.db #0x0F
   1EDF C0                 8200 	.db #0xC0
   1EE0 0F                 8201 	.db #0x0F
   1EE1 20                 8202 	.db #0x20
   1EE2 07                 8203 	.db #0x07
   1EE3 20                 8204 	.db #0x20
   1EE4 07                 8205 	.db #0x07
   1EE5 10                 8206 	.db #0x10
   1EE6 07                 8207 	.db #0x07
   1EE7 10                 8208 	.db #0x10
   1EE8 0F                 8209 	.db #0x0F
   1EE9 20                 8210 	.db #0x20
   1EEA 1F                 8211 	.db #0x1F
   1EEB 40                 8212 	.db #0x40
   1EEC 7F                 8213 	.db #0x7F
   1EED 80                 8214 	.db #0x80
   1EEE C0                 8215 	.db #0xC0
   1EEF 30                 8216 	.db #0x30
   1EF0 C0                 8217 	.db #0xC0
   1EF1 30                 8218 	.db #0x30
   1EF2 C0                 8219 	.db #0xC0
   1EF3 30                 8220 	.db #0x30
   1EF4 E0                 8221 	.db #0xE0
   1EF5 10                 8222 	.db #0x10
   1EF6 E0                 8223 	.db #0xE0
   1EF7 10                 8224 	.db #0x10
   1EF8 E0                 8225 	.db #0xE0
   1EF9 10                 8226 	.db #0x10
   1EFA E0                 8227 	.db #0xE0
   1EFB 10                 8228 	.db #0x10
   1EFC C0                 8229 	.db #0xC0
   1EFD 20                 8230 	.db #0x20
   1EFE F0                 8231 	.db #0xF0
   1EFF F0                 8232 	.db #0xF0
   1F00 FC                 8233 	.db #0xFC
   1F01 FC                 8234 	.db #0xFC
   1F02 FF                 8235 	.db #0xFF
   1F03 FF                 8236 	.db #0xFF
   1F04 FF                 8237 	.db #0xFF
   1F05 FF                 8238 	.db #0xFF
   1F06 FF                 8239 	.db #0xFF
   1F07 FF                 8240 	.db #0xFF
   1F08 FF                 8241 	.db #0xFF
   1F09 FF                 8242 	.db #0xFF
   1F0A FF                 8243 	.db #0xFF
   1F0B FF                 8244 	.db #0xFF
   1F0C FF                 8245 	.db #0xFF
   1F0D FF                 8246 	.db #0xFF
   1F0E F8                 8247 	.db #0xF8
   1F0F F8                 8248 	.db #0xF8
   1F10 07                 8249 	.db #0x07
   1F11 07                 8250 	.db #0x07
   1F12 CF                 8251 	.db #0xCF
   1F13 CF                 8252 	.db #0xCF
   1F14 C7                 8253 	.db #0xC7
   1F15 C7                 8254 	.db #0xC7
   1F16 C3                 8255 	.db #0xC3
   1F17 C3                 8256 	.db #0xC3
   1F18 E0                 8257 	.db #0xE0
   1F19 E0                 8258 	.db #0xE0
   1F1A F0                 8259 	.db #0xF0
   1F1B F0                 8260 	.db #0xF0
   1F1C FC                 8261 	.db #0xFC
   1F1D FC                 8262 	.db #0xFC
   1F1E FE                 8263 	.db #0xFE
   1F1F FE                 8264 	.db #0xFE
   1F20 FF                 8265 	.db #0xFF
   1F21 FF                 8266 	.db #0xFF
   1F22 FF                 8267 	.db #0xFF
   1F23 FF                 8268 	.db #0xFF
   1F24 FF                 8269 	.db #0xFF
   1F25 FF                 8270 	.db #0xFF
   1F26 FF                 8271 	.db #0xFF
   1F27 FF                 8272 	.db #0xFF
   1F28 0F                 8273 	.db #0x0F
   1F29 0F                 8274 	.db #0x0F
   1F2A 1F                 8275 	.db #0x1F
   1F2B 1F                 8276 	.db #0x1F
   1F2C 3F                 8277 	.db #0x3F
   1F2D 3F                 8278 	.db #0x3F
   1F2E 00                 8279 	.db #0x00
   1F2F 00                 8280 	.db #0x00
   1F30 07                 8281 	.db #0x07
   1F31 07                 8282 	.db #0x07
   1F32 FF                 8283 	.db #0xFF
   1F33 FF                 8284 	.db #0xFF
   1F34 FF                 8285 	.db #0xFF
   1F35 FF                 8286 	.db #0xFF
   1F36 FF                 8287 	.db #0xFF
   1F37 FF                 8288 	.db #0xFF
   1F38 FF                 8289 	.db #0xFF
   1F39 FF                 8290 	.db #0xFF
   1F3A FF                 8291 	.db #0xFF
   1F3B FF                 8292 	.db #0xFF
   1F3C FF                 8293 	.db #0xFF
   1F3D FF                 8294 	.db #0xFF
   1F3E 1E                 8295 	.db #0x1E
   1F3F 1E                 8296 	.db #0x1E
   1F40 07                 8297 	.db #0x07
   1F41 07                 8298 	.db #0x07
   1F42 FF                 8299 	.db #0xFF
   1F43 FF                 8300 	.db #0xFF
   1F44 FF                 8301 	.db #0xFF
   1F45 FF                 8302 	.db #0xFF
   1F46 FF                 8303 	.db #0xFF
   1F47 FF                 8304 	.db #0xFF
   1F48 FF                 8305 	.db #0xFF
   1F49 FF                 8306 	.db #0xFF
   1F4A FF                 8307 	.db #0xFF
   1F4B FF                 8308 	.db #0xFF
   1F4C FF                 8309 	.db #0xFF
   1F4D FF                 8310 	.db #0xFF
   1F4E 00                 8311 	.db #0x00
   1F4F 00                 8312 	.db #0x00
   1F50 80                 8313 	.db #0x80
   1F51 80                 8314 	.db #0x80
   1F52 FF                 8315 	.db #0xFF
   1F53 FF                 8316 	.db #0xFF
   1F54 FF                 8317 	.db #0xFF
   1F55 FF                 8318 	.db #0xFF
   1F56 FF                 8319 	.db #0xFF
   1F57 FF                 8320 	.db #0xFF
   1F58 FF                 8321 	.db #0xFF
   1F59 FF                 8322 	.db #0xFF
   1F5A FF                 8323 	.db #0xFF
   1F5B FF                 8324 	.db #0xFF
   1F5C FF                 8325 	.db #0xFF
   1F5D FF                 8326 	.db #0xFF
   1F5E 30                 8327 	.db #0x30
   1F5F 30                 8328 	.db #0x30
   1F60 FC                 8329 	.db #0xFC
   1F61 FC                 8330 	.db #0xFC
   1F62 FF                 8331 	.db #0xFF
   1F63 FF                 8332 	.db #0xFF
   1F64 FF                 8333 	.db #0xFF
   1F65 FF                 8334 	.db #0xFF
   1F66 FF                 8335 	.db #0xFF
   1F67 FF                 8336 	.db #0xFF
   1F68 FF                 8337 	.db #0xFF
   1F69 FF                 8338 	.db #0xFF
   1F6A FF                 8339 	.db #0xFF
   1F6B FF                 8340 	.db #0xFF
   1F6C FF                 8341 	.db #0xFF
   1F6D FF                 8342 	.db #0xFF
   1F6E 01                 8343 	.db #0x01
   1F6F 01                 8344 	.db #0x01
   1F70 06                 8345 	.db #0x06
   1F71 06                 8346 	.db #0x06
   1F72 FF                 8347 	.db #0xFF
   1F73 FF                 8348 	.db #0xFF
   1F74 FF                 8349 	.db #0xFF
   1F75 FF                 8350 	.db #0xFF
   1F76 FF                 8351 	.db #0xFF
   1F77 FF                 8352 	.db #0xFF
   1F78 FF                 8353 	.db #0xFF
   1F79 FF                 8354 	.db #0xFF
   1F7A FF                 8355 	.db #0xFF
   1F7B FF                 8356 	.db #0xFF
   1F7C FF                 8357 	.db #0xFF
   1F7D FF                 8358 	.db #0xFF
   1F7E 87                 8359 	.db #0x87
   1F7F 87                 8360 	.db #0x87
   1F80 01                 8361 	.db #0x01
   1F81 01                 8362 	.db #0x01
   1F82 FF                 8363 	.db #0xFF
   1F83 FF                 8364 	.db #0xFF
   1F84 FF                 8365 	.db #0xFF
   1F85 FF                 8366 	.db #0xFF
   1F86 FF                 8367 	.db #0xFF
   1F87 FF                 8368 	.db #0xFF
   1F88 FF                 8369 	.db #0xFF
   1F89 FF                 8370 	.db #0xFF
   1F8A FF                 8371 	.db #0xFF
   1F8B FF                 8372 	.db #0xFF
   1F8C FF                 8373 	.db #0xFF
   1F8D FF                 8374 	.db #0xFF
   1F8E C3                 8375 	.db #0xC3
   1F8F C3                 8376 	.db #0xC3
   1F90 00                 8377 	.db #0x00
   1F91 00                 8378 	.db #0x00
   1F92 FF                 8379 	.db #0xFF
   1F93 FF                 8380 	.db #0xFF
   1F94 FF                 8381 	.db #0xFF
   1F95 FF                 8382 	.db #0xFF
   1F96 FF                 8383 	.db #0xFF
   1F97 FF                 8384 	.db #0xFF
   1F98 FF                 8385 	.db #0xFF
   1F99 FF                 8386 	.db #0xFF
   1F9A FF                 8387 	.db #0xFF
   1F9B FF                 8388 	.db #0xFF
   1F9C FF                 8389 	.db #0xFF
   1F9D FF                 8390 	.db #0xFF
   1F9E                    8391 _titleScreenTiles:
   1F9E 00                 8392 	.db #0x00
   1F9F 01                 8393 	.db #0x01
   1FA0 02                 8394 	.db #0x02
   1FA1 03                 8395 	.db #0x03
   1FA2 04                 8396 	.db #0x04
   1FA3 08                 8397 	.db #0x08
   1FA4 07                 8398 	.db #0x07
   1FA5 08                 8399 	.db #0x08
   1FA6 07                 8400 	.db #0x07
   1FA7 08                 8401 	.db #0x08
   1FA8 07                 8402 	.db #0x07
   1FA9 08                 8403 	.db #0x08
   1FAA 07                 8404 	.db #0x07
   1FAB 08                 8405 	.db #0x08
   1FAC 07                 8406 	.db #0x07
   1FAD 08                 8407 	.db #0x08
   1FAE 07                 8408 	.db #0x07
   1FAF 08                 8409 	.db #0x08
   1FB0 07                 8410 	.db #0x07
   1FB1 08                 8411 	.db #0x08
   1FB2 10                 8412 	.db #0x10
   1FB3 11                 8413 	.db #0x11
   1FB4 12                 8414 	.db #0x12
   1FB5 13                 8415 	.db #0x13
   1FB6 14                 8416 	.db #0x14
   1FB7 15                 8417 	.db #0x15
   1FB8 17                 8418 	.db #0x17
   1FB9 18                 8419 	.db #0x18
   1FBA 17                 8420 	.db #0x17
   1FBB 06                 8421 	.db #0x06
   1FBC B7                 8422 	.db #0xB7
   1FBD B8                 8423 	.db #0xB8
   1FBE B9                 8424 	.db #0xB9
   1FBF BA                 8425 	.db #0xBA
   1FC0 BB                 8426 	.db #0xBB
   1FC1 BC                 8427 	.db #0xBC
   1FC2 BD                 8428 	.db #0xBD
   1FC3 BE                 8429 	.db #0xBE
   1FC4 BF                 8430 	.db #0xBF
   1FC5 18                 8431 	.db #0x18
   1FC6 20                 8432 	.db #0x20
   1FC7 21                 8433 	.db #0x21
   1FC8 22                 8434 	.db #0x22
   1FC9 23                 8435 	.db #0x23
   1FCA 24                 8436 	.db #0x24
   1FCB 25                 8437 	.db #0x25
   1FCC 07                 8438 	.db #0x07
   1FCD 08                 8439 	.db #0x08
   1FCE 07                 8440 	.db #0x07
   1FCF 16                 8441 	.db #0x16
   1FD0 C7                 8442 	.db #0xC7
   1FD1 C8                 8443 	.db #0xC8
   1FD2 C9                 8444 	.db #0xC9
   1FD3 CA                 8445 	.db #0xCA
   1FD4 CB                 8446 	.db #0xCB
   1FD5 CC                 8447 	.db #0xCC
   1FD6 CD                 8448 	.db #0xCD
   1FD7 CE                 8449 	.db #0xCE
   1FD8 CF                 8450 	.db #0xCF
   1FD9 08                 8451 	.db #0x08
   1FDA 30                 8452 	.db #0x30
   1FDB 31                 8453 	.db #0x31
   1FDC 32                 8454 	.db #0x32
   1FDD 33                 8455 	.db #0x33
   1FDE 34                 8456 	.db #0x34
   1FDF 35                 8457 	.db #0x35
   1FE0 36                 8458 	.db #0x36
   1FE1 18                 8459 	.db #0x18
   1FE2 17                 8460 	.db #0x17
   1FE3 D6                 8461 	.db #0xD6
   1FE4 D7                 8462 	.db #0xD7
   1FE5 D8                 8463 	.db #0xD8
   1FE6 D9                 8464 	.db #0xD9
   1FE7 DA                 8465 	.db #0xDA
   1FE8 DB                 8466 	.db #0xDB
   1FE9 DC                 8467 	.db #0xDC
   1FEA DD                 8468 	.db #0xDD
   1FEB DE                 8469 	.db #0xDE
   1FEC DF                 8470 	.db #0xDF
   1FED 18                 8471 	.db #0x18
   1FEE 40                 8472 	.db #0x40
   1FEF 41                 8473 	.db #0x41
   1FF0 42                 8474 	.db #0x42
   1FF1 43                 8475 	.db #0x43
   1FF2 44                 8476 	.db #0x44
   1FF3 45                 8477 	.db #0x45
   1FF4 46                 8478 	.db #0x46
   1FF5 08                 8479 	.db #0x08
   1FF6 07                 8480 	.db #0x07
   1FF7 E6                 8481 	.db #0xE6
   1FF8 E7                 8482 	.db #0xE7
   1FF9 E8                 8483 	.db #0xE8
   1FFA E9                 8484 	.db #0xE9
   1FFB EA                 8485 	.db #0xEA
   1FFC EB                 8486 	.db #0xEB
   1FFD EC                 8487 	.db #0xEC
   1FFE ED                 8488 	.db #0xED
   1FFF EE                 8489 	.db #0xEE
   2000 EF                 8490 	.db #0xEF
   2001 08                 8491 	.db #0x08
   2002 50                 8492 	.db #0x50
   2003 51                 8493 	.db #0x51
   2004 52                 8494 	.db #0x52
   2005 53                 8495 	.db #0x53
   2006 54                 8496 	.db #0x54
   2007 55                 8497 	.db #0x55
   2008 56                 8498 	.db #0x56
   2009 18                 8499 	.db #0x18
   200A 17                 8500 	.db #0x17
   200B F6                 8501 	.db #0xF6
   200C F7                 8502 	.db #0xF7
   200D F8                 8503 	.db #0xF8
   200E F9                 8504 	.db #0xF9
   200F F9                 8505 	.db #0xF9
   2010 FB                 8506 	.db #0xFB
   2011 FC                 8507 	.db #0xFC
   2012 FD                 8508 	.db #0xFD
   2013 FE                 8509 	.db #0xFE
   2014 FF                 8510 	.db #0xFF
   2015 18                 8511 	.db #0x18
   2016 60                 8512 	.db #0x60
   2017 61                 8513 	.db #0x61
   2018 62                 8514 	.db #0x62
   2019 63                 8515 	.db #0x63
   201A 64                 8516 	.db #0x64
   201B 65                 8517 	.db #0x65
   201C 66                 8518 	.db #0x66
   201D 67                 8519 	.db #0x67
   201E 07                 8520 	.db #0x07
   201F 08                 8521 	.db #0x08
   2020 07                 8522 	.db #0x07
   2021 08                 8523 	.db #0x08
   2022 07                 8524 	.db #0x07
   2023 08                 8525 	.db #0x08
   2024 07                 8526 	.db #0x07
   2025 08                 8527 	.db #0x08
   2026 07                 8528 	.db #0x07
   2027 08                 8529 	.db #0x08
   2028 07                 8530 	.db #0x07
   2029 08                 8531 	.db #0x08
   202A 70                 8532 	.db #0x70
   202B 71                 8533 	.db #0x71
   202C 72                 8534 	.db #0x72
   202D 73                 8535 	.db #0x73
   202E 74                 8536 	.db #0x74
   202F 75                 8537 	.db #0x75
   2030 76                 8538 	.db #0x76
   2031 77                 8539 	.db #0x77
   2032 17                 8540 	.db #0x17
   2033 18                 8541 	.db #0x18
   2034 17                 8542 	.db #0x17
   2035 18                 8543 	.db #0x18
   2036 17                 8544 	.db #0x17
   2037 18                 8545 	.db #0x18
   2038 17                 8546 	.db #0x17
   2039 18                 8547 	.db #0x18
   203A 17                 8548 	.db #0x17
   203B 18                 8549 	.db #0x18
   203C 17                 8550 	.db #0x17
   203D 18                 8551 	.db #0x18
   203E 80                 8552 	.db #0x80
   203F 81                 8553 	.db #0x81
   2040 82                 8554 	.db #0x82
   2041 83                 8555 	.db #0x83
   2042 84                 8556 	.db #0x84
   2043 85                 8557 	.db #0x85
   2044 86                 8558 	.db #0x86
   2045 87                 8559 	.db #0x87
   2046 07                 8560 	.db #0x07
   2047 08                 8561 	.db #0x08
   2048 07                 8562 	.db #0x07
   2049 27                 8563 	.db #0x27
   204A 28                 8564 	.db #0x28
   204B 29                 8565 	.db #0x29
   204C 2A                 8566 	.db #0x2A
   204D 2B                 8567 	.db #0x2B
   204E 2C                 8568 	.db #0x2C
   204F 2D                 8569 	.db #0x2D
   2050 2E                 8570 	.db #0x2E
   2051 08                 8571 	.db #0x08
   2052 90                 8572 	.db #0x90
   2053 91                 8573 	.db #0x91
   2054 92                 8574 	.db #0x92
   2055 93                 8575 	.db #0x93
   2056 94                 8576 	.db #0x94
   2057 95                 8577 	.db #0x95
   2058 96                 8578 	.db #0x96
   2059 97                 8579 	.db #0x97
   205A 17                 8580 	.db #0x17
   205B 18                 8581 	.db #0x18
   205C 17                 8582 	.db #0x17
   205D 18                 8583 	.db #0x18
   205E 17                 8584 	.db #0x17
   205F 18                 8585 	.db #0x18
   2060 17                 8586 	.db #0x17
   2061 18                 8587 	.db #0x18
   2062 17                 8588 	.db #0x17
   2063 18                 8589 	.db #0x18
   2064 17                 8590 	.db #0x17
   2065 18                 8591 	.db #0x18
   2066 A0                 8592 	.db #0xA0
   2067 A1                 8593 	.db #0xA1
   2068 A2                 8594 	.db #0xA2
   2069 A3                 8595 	.db #0xA3
   206A A4                 8596 	.db #0xA4
   206B A5                 8597 	.db #0xA5
   206C A6                 8598 	.db #0xA6
   206D 08                 8599 	.db #0x08
   206E 07                 8600 	.db #0x07
   206F 08                 8601 	.db #0x08
   2070 07                 8602 	.db #0x07
   2071 09                 8603 	.db #0x09
   2072 0A                 8604 	.db #0x0A
   2073 0B                 8605 	.db #0x0B
   2074 0C                 8606 	.db #0x0C
   2075 0D                 8607 	.db #0x0D
   2076 0E                 8608 	.db #0x0E
   2077 08                 8609 	.db #0x08
   2078 07                 8610 	.db #0x07
   2079 08                 8611 	.db #0x08
   207A B0                 8612 	.db #0xB0
   207B B1                 8613 	.db #0xB1
   207C B2                 8614 	.db #0xB2
   207D B3                 8615 	.db #0xB3
   207E B4                 8616 	.db #0xB4
   207F B5                 8617 	.db #0xB5
   2080 B6                 8618 	.db #0xB6
   2081 18                 8619 	.db #0x18
   2082 17                 8620 	.db #0x17
   2083 18                 8621 	.db #0x18
   2084 17                 8622 	.db #0x17
   2085 18                 8623 	.db #0x18
   2086 17                 8624 	.db #0x17
   2087 18                 8625 	.db #0x18
   2088 17                 8626 	.db #0x17
   2089 18                 8627 	.db #0x18
   208A 17                 8628 	.db #0x17
   208B 18                 8629 	.db #0x18
   208C 17                 8630 	.db #0x17
   208D 18                 8631 	.db #0x18
   208E C0                 8632 	.db #0xC0
   208F C1                 8633 	.db #0xC1
   2090 C2                 8634 	.db #0xC2
   2091 C3                 8635 	.db #0xC3
   2092 C4                 8636 	.db #0xC4
   2093 C5                 8637 	.db #0xC5
   2094 C6                 8638 	.db #0xC6
   2095 08                 8639 	.db #0x08
   2096 07                 8640 	.db #0x07
   2097 08                 8641 	.db #0x08
   2098 07                 8642 	.db #0x07
   2099 08                 8643 	.db #0x08
   209A 07                 8644 	.db #0x07
   209B 08                 8645 	.db #0x08
   209C 07                 8646 	.db #0x07
   209D 08                 8647 	.db #0x08
   209E 07                 8648 	.db #0x07
   209F 08                 8649 	.db #0x08
   20A0 07                 8650 	.db #0x07
   20A1 08                 8651 	.db #0x08
   20A2 D0                 8652 	.db #0xD0
   20A3 D1                 8653 	.db #0xD1
   20A4 D2                 8654 	.db #0xD2
   20A5 D3                 8655 	.db #0xD3
   20A6 D4                 8656 	.db #0xD4
   20A7 D5                 8657 	.db #0xD5
   20A8 17                 8658 	.db #0x17
   20A9 18                 8659 	.db #0x18
   20AA 17                 8660 	.db #0x17
   20AB 18                 8661 	.db #0x18
   20AC 17                 8662 	.db #0x17
   20AD 18                 8663 	.db #0x18
   20AE 17                 8664 	.db #0x17
   20AF 18                 8665 	.db #0x18
   20B0 17                 8666 	.db #0x17
   20B1 18                 8667 	.db #0x18
   20B2 17                 8668 	.db #0x17
   20B3 18                 8669 	.db #0x18
   20B4 17                 8670 	.db #0x17
   20B5 18                 8671 	.db #0x18
   20B6 E0                 8672 	.db #0xE0
   20B7 E1                 8673 	.db #0xE1
   20B8 E2                 8674 	.db #0xE2
   20B9 E3                 8675 	.db #0xE3
   20BA E4                 8676 	.db #0xE4
   20BB E5                 8677 	.db #0xE5
   20BC 07                 8678 	.db #0x07
   20BD 08                 8679 	.db #0x08
   20BE 37                 8680 	.db #0x37
   20BF 38                 8681 	.db #0x38
   20C0 39                 8682 	.db #0x39
   20C1 3A                 8683 	.db #0x3A
   20C2 3B                 8684 	.db #0x3B
   20C3 3C                 8685 	.db #0x3C
   20C4 68                 8686 	.db #0x68
   20C5 69                 8687 	.db #0x69
   20C6 6A                 8688 	.db #0x6A
   20C7 6B                 8689 	.db #0x6B
   20C8 6C                 8690 	.db #0x6C
   20C9 08                 8691 	.db #0x08
   20CA F0                 8692 	.db #0xF0
   20CB F1                 8693 	.db #0xF1
   20CC F2                 8694 	.db #0xF2
   20CD F3                 8695 	.db #0xF3
   20CE F4                 8696 	.db #0xF4
   20CF F5                 8697 	.db #0xF5
   20D0 17                 8698 	.db #0x17
   20D1 18                 8699 	.db #0x18
   20D2 47                 8700 	.db #0x47
   20D3 48                 8701 	.db #0x48
   20D4 49                 8702 	.db #0x49
   20D5 4A                 8703 	.db #0x4A
   20D6 4B                 8704 	.db #0x4B
   20D7 4C                 8705 	.db #0x4C
   20D8 78                 8706 	.db #0x78
   20D9 79                 8707 	.db #0x79
   20DA 7A                 8708 	.db #0x7A
   20DB 7B                 8709 	.db #0x7B
   20DC 7C                 8710 	.db #0x7C
   20DD 18                 8711 	.db #0x18
   20DE 98                 8712 	.db #0x98
   20DF 99                 8713 	.db #0x99
   20E0 9A                 8714 	.db #0x9A
   20E1 9B                 8715 	.db #0x9B
   20E2 9C                 8716 	.db #0x9C
   20E3 9D                 8717 	.db #0x9D
   20E4 07                 8718 	.db #0x07
   20E5 08                 8719 	.db #0x08
   20E6 57                 8720 	.db #0x57
   20E7 58                 8721 	.db #0x58
   20E8 59                 8722 	.db #0x59
   20E9 5A                 8723 	.db #0x5A
   20EA 5B                 8724 	.db #0x5B
   20EB 5C                 8725 	.db #0x5C
   20EC 88                 8726 	.db #0x88
   20ED 89                 8727 	.db #0x89
   20EE 8A                 8728 	.db #0x8A
   20EF 8B                 8729 	.db #0x8B
   20F0 8C                 8730 	.db #0x8C
   20F1 08                 8731 	.db #0x08
   20F2 A7                 8732 	.db #0xA7
   20F3 A7                 8733 	.db #0xA7
   20F4 AA                 8734 	.db #0xAA
   20F5 AB                 8735 	.db #0xAB
   20F6 AC                 8736 	.db #0xAC
   20F7 AD                 8737 	.db #0xAD
   20F8 AE                 8738 	.db #0xAE
   20F9 18                 8739 	.db #0x18
   20FA 17                 8740 	.db #0x17
   20FB 18                 8741 	.db #0x18
   20FC 17                 8742 	.db #0x17
   20FD 18                 8743 	.db #0x18
   20FE 17                 8744 	.db #0x17
   20FF 18                 8745 	.db #0x18
   2100 17                 8746 	.db #0x17
   2101 18                 8747 	.db #0x18
   2102 17                 8748 	.db #0x17
   2103 18                 8749 	.db #0x18
   2104 17                 8750 	.db #0x17
   2105 18                 8751 	.db #0x18
   2106                    8752 _titleScreenColours:
   2106 00                 8753 	.db #0x00
   2107 00                 8754 	.db #0x00
   2108 00                 8755 	.db #0x00
   2109 00                 8756 	.db #0x00
   210A 00                 8757 	.db #0x00
   210B 01                 8758 	.db #0x01
   210C 01                 8759 	.db #0x01
   210D 01                 8760 	.db #0x01
   210E 01                 8761 	.db #0x01
   210F 01                 8762 	.db #0x01
   2110 01                 8763 	.db #0x01
   2111 01                 8764 	.db #0x01
   2112 01                 8765 	.db #0x01
   2113 01                 8766 	.db #0x01
   2114 01                 8767 	.db #0x01
   2115 01                 8768 	.db #0x01
   2116 01                 8769 	.db #0x01
   2117 01                 8770 	.db #0x01
   2118 01                 8771 	.db #0x01
   2119 01                 8772 	.db #0x01
   211A 00                 8773 	.db #0x00
   211B 00                 8774 	.db #0x00
   211C 00                 8775 	.db #0x00
   211D 00                 8776 	.db #0x00
   211E 00                 8777 	.db #0x00
   211F 00                 8778 	.db #0x00
   2120 01                 8779 	.db #0x01
   2121 01                 8780 	.db #0x01
   2122 01                 8781 	.db #0x01
   2123 01                 8782 	.db #0x01
   2124 04                 8783 	.db #0x04
   2125 05                 8784 	.db #0x05
   2126 06                 8785 	.db #0x06
   2127 07                 8786 	.db #0x07
   2128 07                 8787 	.db #0x07
   2129 06                 8788 	.db #0x06
   212A 05                 8789 	.db #0x05
   212B 04                 8790 	.db #0x04
   212C 01                 8791 	.db #0x01
   212D 01                 8792 	.db #0x01
   212E 00                 8793 	.db #0x00
   212F 00                 8794 	.db #0x00
   2130 00                 8795 	.db #0x00
   2131 00                 8796 	.db #0x00
   2132 00                 8797 	.db #0x00
   2133 00                 8798 	.db #0x00
   2134 01                 8799 	.db #0x01
   2135 01                 8800 	.db #0x01
   2136 01                 8801 	.db #0x01
   2137 01                 8802 	.db #0x01
   2138 04                 8803 	.db #0x04
   2139 05                 8804 	.db #0x05
   213A 06                 8805 	.db #0x06
   213B 07                 8806 	.db #0x07
   213C 07                 8807 	.db #0x07
   213D 06                 8808 	.db #0x06
   213E 05                 8809 	.db #0x05
   213F 04                 8810 	.db #0x04
   2140 01                 8811 	.db #0x01
   2141 01                 8812 	.db #0x01
   2142 00                 8813 	.db #0x00
   2143 00                 8814 	.db #0x00
   2144 00                 8815 	.db #0x00
   2145 00                 8816 	.db #0x00
   2146 00                 8817 	.db #0x00
   2147 00                 8818 	.db #0x00
   2148 00                 8819 	.db #0x00
   2149 01                 8820 	.db #0x01
   214A 01                 8821 	.db #0x01
   214B 01                 8822 	.db #0x01
   214C 04                 8823 	.db #0x04
   214D 05                 8824 	.db #0x05
   214E 06                 8825 	.db #0x06
   214F 07                 8826 	.db #0x07
   2150 07                 8827 	.db #0x07
   2151 06                 8828 	.db #0x06
   2152 05                 8829 	.db #0x05
   2153 04                 8830 	.db #0x04
   2154 01                 8831 	.db #0x01
   2155 01                 8832 	.db #0x01
   2156 00                 8833 	.db #0x00
   2157 00                 8834 	.db #0x00
   2158 00                 8835 	.db #0x00
   2159 00                 8836 	.db #0x00
   215A 00                 8837 	.db #0x00
   215B 00                 8838 	.db #0x00
   215C 00                 8839 	.db #0x00
   215D 01                 8840 	.db #0x01
   215E 01                 8841 	.db #0x01
   215F 01                 8842 	.db #0x01
   2160 04                 8843 	.db #0x04
   2161 05                 8844 	.db #0x05
   2162 06                 8845 	.db #0x06
   2163 07                 8846 	.db #0x07
   2164 07                 8847 	.db #0x07
   2165 06                 8848 	.db #0x06
   2166 05                 8849 	.db #0x05
   2167 04                 8850 	.db #0x04
   2168 01                 8851 	.db #0x01
   2169 01                 8852 	.db #0x01
   216A 00                 8853 	.db #0x00
   216B 00                 8854 	.db #0x00
   216C 00                 8855 	.db #0x00
   216D 00                 8856 	.db #0x00
   216E 00                 8857 	.db #0x00
   216F 00                 8858 	.db #0x00
   2170 00                 8859 	.db #0x00
   2171 01                 8860 	.db #0x01
   2172 01                 8861 	.db #0x01
   2173 01                 8862 	.db #0x01
   2174 04                 8863 	.db #0x04
   2175 05                 8864 	.db #0x05
   2176 06                 8865 	.db #0x06
   2177 07                 8866 	.db #0x07
   2178 07                 8867 	.db #0x07
   2179 06                 8868 	.db #0x06
   217A 05                 8869 	.db #0x05
   217B 04                 8870 	.db #0x04
   217C 01                 8871 	.db #0x01
   217D 01                 8872 	.db #0x01
   217E 00                 8873 	.db #0x00
   217F 00                 8874 	.db #0x00
   2180 00                 8875 	.db #0x00
   2181 00                 8876 	.db #0x00
   2182 00                 8877 	.db #0x00
   2183 00                 8878 	.db #0x00
   2184 00                 8879 	.db #0x00
   2185 00                 8880 	.db #0x00
   2186 01                 8881 	.db #0x01
   2187 01                 8882 	.db #0x01
   2188 01                 8883 	.db #0x01
   2189 01                 8884 	.db #0x01
   218A 01                 8885 	.db #0x01
   218B 01                 8886 	.db #0x01
   218C 01                 8887 	.db #0x01
   218D 01                 8888 	.db #0x01
   218E 01                 8889 	.db #0x01
   218F 01                 8890 	.db #0x01
   2190 01                 8891 	.db #0x01
   2191 01                 8892 	.db #0x01
   2192 00                 8893 	.db #0x00
   2193 00                 8894 	.db #0x00
   2194 00                 8895 	.db #0x00
   2195 00                 8896 	.db #0x00
   2196 00                 8897 	.db #0x00
   2197 00                 8898 	.db #0x00
   2198 00                 8899 	.db #0x00
   2199 00                 8900 	.db #0x00
   219A 01                 8901 	.db #0x01
   219B 01                 8902 	.db #0x01
   219C 01                 8903 	.db #0x01
   219D 01                 8904 	.db #0x01
   219E 01                 8905 	.db #0x01
   219F 01                 8906 	.db #0x01
   21A0 01                 8907 	.db #0x01
   21A1 01                 8908 	.db #0x01
   21A2 01                 8909 	.db #0x01
   21A3 01                 8910 	.db #0x01
   21A4 01                 8911 	.db #0x01
   21A5 01                 8912 	.db #0x01
   21A6 00                 8913 	.db #0x00
   21A7 00                 8914 	.db #0x00
   21A8 00                 8915 	.db #0x00
   21A9 00                 8916 	.db #0x00
   21AA 00                 8917 	.db #0x00
   21AB 00                 8918 	.db #0x00
   21AC 00                 8919 	.db #0x00
   21AD 00                 8920 	.db #0x00
   21AE 01                 8921 	.db #0x01
   21AF 01                 8922 	.db #0x01
   21B0 01                 8923 	.db #0x01
   21B1 03                 8924 	.db #0x03
   21B2 03                 8925 	.db #0x03
   21B3 03                 8926 	.db #0x03
   21B4 03                 8927 	.db #0x03
   21B5 03                 8928 	.db #0x03
   21B6 03                 8929 	.db #0x03
   21B7 03                 8930 	.db #0x03
   21B8 03                 8931 	.db #0x03
   21B9 01                 8932 	.db #0x01
   21BA 00                 8933 	.db #0x00
   21BB 00                 8934 	.db #0x00
   21BC 00                 8935 	.db #0x00
   21BD 00                 8936 	.db #0x00
   21BE 00                 8937 	.db #0x00
   21BF 00                 8938 	.db #0x00
   21C0 00                 8939 	.db #0x00
   21C1 00                 8940 	.db #0x00
   21C2 01                 8941 	.db #0x01
   21C3 01                 8942 	.db #0x01
   21C4 01                 8943 	.db #0x01
   21C5 01                 8944 	.db #0x01
   21C6 01                 8945 	.db #0x01
   21C7 01                 8946 	.db #0x01
   21C8 01                 8947 	.db #0x01
   21C9 01                 8948 	.db #0x01
   21CA 01                 8949 	.db #0x01
   21CB 01                 8950 	.db #0x01
   21CC 01                 8951 	.db #0x01
   21CD 01                 8952 	.db #0x01
   21CE 00                 8953 	.db #0x00
   21CF 00                 8954 	.db #0x00
   21D0 00                 8955 	.db #0x00
   21D1 00                 8956 	.db #0x00
   21D2 00                 8957 	.db #0x00
   21D3 00                 8958 	.db #0x00
   21D4 00                 8959 	.db #0x00
   21D5 01                 8960 	.db #0x01
   21D6 01                 8961 	.db #0x01
   21D7 01                 8962 	.db #0x01
   21D8 01                 8963 	.db #0x01
   21D9 03                 8964 	.db #0x03
   21DA 03                 8965 	.db #0x03
   21DB 03                 8966 	.db #0x03
   21DC 03                 8967 	.db #0x03
   21DD 03                 8968 	.db #0x03
   21DE 03                 8969 	.db #0x03
   21DF 01                 8970 	.db #0x01
   21E0 01                 8971 	.db #0x01
   21E1 01                 8972 	.db #0x01
   21E2 00                 8973 	.db #0x00
   21E3 00                 8974 	.db #0x00
   21E4 00                 8975 	.db #0x00
   21E5 00                 8976 	.db #0x00
   21E6 00                 8977 	.db #0x00
   21E7 00                 8978 	.db #0x00
   21E8 00                 8979 	.db #0x00
   21E9 01                 8980 	.db #0x01
   21EA 01                 8981 	.db #0x01
   21EB 01                 8982 	.db #0x01
   21EC 01                 8983 	.db #0x01
   21ED 01                 8984 	.db #0x01
   21EE 01                 8985 	.db #0x01
   21EF 01                 8986 	.db #0x01
   21F0 01                 8987 	.db #0x01
   21F1 01                 8988 	.db #0x01
   21F2 01                 8989 	.db #0x01
   21F3 01                 8990 	.db #0x01
   21F4 01                 8991 	.db #0x01
   21F5 01                 8992 	.db #0x01
   21F6 00                 8993 	.db #0x00
   21F7 00                 8994 	.db #0x00
   21F8 00                 8995 	.db #0x00
   21F9 00                 8996 	.db #0x00
   21FA 00                 8997 	.db #0x00
   21FB 00                 8998 	.db #0x00
   21FC 00                 8999 	.db #0x00
   21FD 01                 9000 	.db #0x01
   21FE 01                 9001 	.db #0x01
   21FF 01                 9002 	.db #0x01
   2200 01                 9003 	.db #0x01
   2201 01                 9004 	.db #0x01
   2202 01                 9005 	.db #0x01
   2203 01                 9006 	.db #0x01
   2204 01                 9007 	.db #0x01
   2205 01                 9008 	.db #0x01
   2206 01                 9009 	.db #0x01
   2207 01                 9010 	.db #0x01
   2208 01                 9011 	.db #0x01
   2209 01                 9012 	.db #0x01
   220A 00                 9013 	.db #0x00
   220B 00                 9014 	.db #0x00
   220C 00                 9015 	.db #0x00
   220D 00                 9016 	.db #0x00
   220E 00                 9017 	.db #0x00
   220F 00                 9018 	.db #0x00
   2210 01                 9019 	.db #0x01
   2211 01                 9020 	.db #0x01
   2212 01                 9021 	.db #0x01
   2213 01                 9022 	.db #0x01
   2214 01                 9023 	.db #0x01
   2215 01                 9024 	.db #0x01
   2216 01                 9025 	.db #0x01
   2217 01                 9026 	.db #0x01
   2218 01                 9027 	.db #0x01
   2219 01                 9028 	.db #0x01
   221A 01                 9029 	.db #0x01
   221B 01                 9030 	.db #0x01
   221C 01                 9031 	.db #0x01
   221D 01                 9032 	.db #0x01
   221E 00                 9033 	.db #0x00
   221F 00                 9034 	.db #0x00
   2220 00                 9035 	.db #0x00
   2221 00                 9036 	.db #0x00
   2222 00                 9037 	.db #0x00
   2223 00                 9038 	.db #0x00
   2224 01                 9039 	.db #0x01
   2225 01                 9040 	.db #0x01
   2226 03                 9041 	.db #0x03
   2227 03                 9042 	.db #0x03
   2228 03                 9043 	.db #0x03
   2229 03                 9044 	.db #0x03
   222A 03                 9045 	.db #0x03
   222B 03                 9046 	.db #0x03
   222C 03                 9047 	.db #0x03
   222D 03                 9048 	.db #0x03
   222E 03                 9049 	.db #0x03
   222F 03                 9050 	.db #0x03
   2230 03                 9051 	.db #0x03
   2231 01                 9052 	.db #0x01
   2232 02                 9053 	.db #0x02
   2233 02                 9054 	.db #0x02
   2234 00                 9055 	.db #0x00
   2235 00                 9056 	.db #0x00
   2236 00                 9057 	.db #0x00
   2237 00                 9058 	.db #0x00
   2238 01                 9059 	.db #0x01
   2239 01                 9060 	.db #0x01
   223A 03                 9061 	.db #0x03
   223B 03                 9062 	.db #0x03
   223C 03                 9063 	.db #0x03
   223D 03                 9064 	.db #0x03
   223E 03                 9065 	.db #0x03
   223F 03                 9066 	.db #0x03
   2240 03                 9067 	.db #0x03
   2241 03                 9068 	.db #0x03
   2242 03                 9069 	.db #0x03
   2243 03                 9070 	.db #0x03
   2244 03                 9071 	.db #0x03
   2245 01                 9072 	.db #0x01
   2246 02                 9073 	.db #0x02
   2247 02                 9074 	.db #0x02
   2248 00                 9075 	.db #0x00
   2249 00                 9076 	.db #0x00
   224A 00                 9077 	.db #0x00
   224B 00                 9078 	.db #0x00
   224C 01                 9079 	.db #0x01
   224D 01                 9080 	.db #0x01
   224E 03                 9081 	.db #0x03
   224F 03                 9082 	.db #0x03
   2250 03                 9083 	.db #0x03
   2251 03                 9084 	.db #0x03
   2252 03                 9085 	.db #0x03
   2253 03                 9086 	.db #0x03
   2254 03                 9087 	.db #0x03
   2255 03                 9088 	.db #0x03
   2256 03                 9089 	.db #0x03
   2257 03                 9090 	.db #0x03
   2258 03                 9091 	.db #0x03
   2259 01                 9092 	.db #0x01
   225A 00                 9093 	.db #0x00
   225B 00                 9094 	.db #0x00
   225C 00                 9095 	.db #0x00
   225D 00                 9096 	.db #0x00
   225E 00                 9097 	.db #0x00
   225F 00                 9098 	.db #0x00
   2260 00                 9099 	.db #0x00
   2261 01                 9100 	.db #0x01
   2262 01                 9101 	.db #0x01
   2263 01                 9102 	.db #0x01
   2264 01                 9103 	.db #0x01
   2265 01                 9104 	.db #0x01
   2266 01                 9105 	.db #0x01
   2267 01                 9106 	.db #0x01
   2268 01                 9107 	.db #0x01
   2269 01                 9108 	.db #0x01
   226A 01                 9109 	.db #0x01
   226B 01                 9110 	.db #0x01
   226C 01                 9111 	.db #0x01
   226D 01                 9112 	.db #0x01
   226E                    9113 _introPalette:
   226E B8 03              9114 	.byte #0xB8,#0x03
   2270 FF 67              9115 	.byte #0xFF,#0x67
   2272 9C 7F              9116 	.byte #0x9C,#0x7F
   2274 9F 73              9117 	.byte #0x9F,#0x73
   2276 71 03              9118 	.byte #0x71,#0x03
   2278 FF 67              9119 	.byte #0xFF,#0x67
   227A 9C 7F              9120 	.byte #0x9C,#0x7F
   227C 9F 73              9121 	.byte #0x9F,#0x73
   227E 6E 03              9122 	.byte #0x6E,#0x03
   2280 FF 67              9123 	.byte #0xFF,#0x67
   2282 9C 7F              9124 	.byte #0x9C,#0x7F
   2284 9F 73              9125 	.byte #0x9F,#0x73
   2286 6C 03              9126 	.byte #0x6C,#0x03
   2288 FF 67              9127 	.byte #0xFF,#0x67
   228A 9C 7F              9128 	.byte #0x9C,#0x7F
   228C 9F 73              9129 	.byte #0x9F,#0x73
   228E 6C 03              9130 	.byte #0x6C,#0x03
   2290 86 01              9131 	.byte #0x86,#0x01
   2292 E0 03              9132 	.byte #0xE0,#0x03
   2294 FF 7F              9133 	.byte #0xFF,#0x7F
   2296                    9134 _bkgPalette:
   2296 9E 63              9135 	.byte #0x9E,#0x63
   2298 9F 19              9136 	.byte #0x9F,#0x19
   229A 8F 00              9137 	.byte #0x8F,#0x00
   229C C8 00              9138 	.byte #0xC8,#0x00
   229E 9E 63              9139 	.byte #0x9E,#0x63
   22A0 FF 53              9140 	.byte #0xFF,#0x53
   22A2 8F 00              9141 	.byte #0x8F,#0x00
   22A4 86 00              9142 	.byte #0x86,#0x00
   22A6 9E 63              9143 	.byte #0x9E,#0x63
   22A8 E0 03              9144 	.byte #0xE0,#0x03
   22AA 8F 00              9145 	.byte #0x8F,#0x00
   22AC 00 00              9146 	.byte #0x00,#0x00
   22AE 9E 63              9147 	.byte #0x9E,#0x63
   22B0 FF 53              9148 	.byte #0xFF,#0x53
   22B2 8F 00              9149 	.byte #0x8F,#0x00
   22B4 CE 21              9150 	.byte #0xCE,#0x21
   22B6 9E 63              9151 	.byte #0x9E,#0x63
   22B8 FF 53              9152 	.byte #0xFF,#0x53
   22BA 8F 00              9153 	.byte #0x8F,#0x00
   22BC E9 00              9154 	.byte #0xE9,#0x00
   22BE 9E 63              9155 	.byte #0x9E,#0x63
   22C0 FF 53              9156 	.byte #0xFF,#0x53
   22C2 8F 00              9157 	.byte #0x8F,#0x00
   22C4 0A 01              9158 	.byte #0x0A,#0x01
   22C6 9E 63              9159 	.byte #0x9E,#0x63
   22C8 FF 53              9160 	.byte #0xFF,#0x53
   22CA 8F 00              9161 	.byte #0x8F,#0x00
   22CC 2C 01              9162 	.byte #0x2C,#0x01
   22CE 9E 63              9163 	.byte #0x9E,#0x63
   22D0 FF 53              9164 	.byte #0xFF,#0x53
   22D2 8F 00              9165 	.byte #0x8F,#0x00
   22D4 4D 01              9166 	.byte #0x4D,#0x01
   22D6                    9167 _spritePalette:
   22D6 FF 7F              9168 	.byte #0xFF,#0x7F
   22D8 FF 03              9169 	.byte #0xFF,#0x03
   22DA B5 02              9170 	.byte #0xB5,#0x02
   22DC E7 00              9171 	.byte #0xE7,#0x00
   22DE FF 7F              9172 	.byte #0xFF,#0x7F
   22E0 FF 7F              9173 	.byte #0xFF,#0x7F
   22E2 FF 3F              9174 	.byte #0xFF,#0x3F
   22E4 FF 03              9175 	.byte #0xFF,#0x03
ASxxxx Assembler V01.75  (GameBoy Z80-like CPU), page 1.

Symbol Table

    _BCPD_REG                          **** GX
    _BCPS_REG                          **** GX
    _BGP_REG                           **** GX
    _DIV_REG                           **** GX
    _DMA_REG                           **** GX
    _HDMA1_REG                         **** GX
    _HDMA2_REG                         **** GX
    _HDMA3_REG                         **** GX
    _HDMA4_REG                         **** GX
    _HDMA5_REG                         **** GX
    _IE_REG                            **** GX
    _IF_REG                            **** GX
    _KEY1_REG                          **** GX
    _LCDC_REG                          **** GX
    _LYC_REG                           **** GX
    _LY_REG                            **** GX
    _NR10_REG                          **** GX
    _NR11_REG                          **** GX
    _NR12_REG                          **** GX
    _NR13_REG                          **** GX
    _NR14_REG                          **** GX
    _NR21_REG                          **** GX
    _NR22_REG                          **** GX
    _NR23_REG                          **** GX
    _NR24_REG                          **** GX
    _NR30_REG                          **** GX
    _NR31_REG                          **** GX
    _NR32_REG                          **** GX
    _NR33_REG                          **** GX
    _NR34_REG                          **** GX
    _NR41_REG                          **** GX
    _NR42_REG                          **** GX
    _NR43_REG                          **** GX
    _NR44_REG                          **** GX
    _NR50_REG                          **** GX
    _NR51_REG                          **** GX
    _NR52_REG                          **** GX
    _OBP0_REG                          **** GX
    _OBP1_REG                          **** GX
    _OCPD_REG                          **** GX
    _OCPS_REG                          **** GX
    _P1_REG                            **** GX
    _RP_REG                            **** GX
    _SB_REG                            **** GX
    _SCX_REG                           **** GX
    _SCY_REG                           **** GX
    _SC_REG                            **** GX
    _STAT_REG                          **** GX
    _SVBK_REG                          **** GX
    _TAC_REG                           **** GX
    _TIMA_REG                          **** GX
    _TMA_REG                           **** GX
    _VBK_REG                           **** GX
    _WX_REG                            **** GX
    _WY_REG                            **** GX
  8 ___updateGame_end                  087C R
  8 ___updateGame_start                0000 R
    __cpu                              **** GX
    __io_in                            **** GX
    __io_out                           **** GX
    __io_status                        **** GX
    __moduchar                         **** GX
    _add_LCD                           **** GX
    _add_TIM                           **** GX
    _add_VBL                           **** GX
  8 _bkgPalette                        2296 GR
    _cgb_compatibility                 **** GX
    _cpu_fast                          **** GX
    _cpu_slow                          **** GX
    _delay                             **** GX
    _disable_interrupts                **** GX
    _display_off                       **** GX
    _enable_interrupts                 **** GX
    _fadeInBkg                         **** GX
    _fadeInSprites                     **** GX
    _fadeOutBkg                        **** GX
    _fadeOutSprites                    **** GX
    _fullRow                           **** GX
    _get_bkg_tiles                     **** GX
    _get_data                          **** GX
    _get_mode                          **** GX
    _get_sprite_data                   **** GX
    _get_sprite_prop                   **** GX
    _get_sprite_tile                   **** GX
    _get_tiles                         **** GX
    _get_win_tiles                     **** GX
    _hMode                             **** GX
    _hiramcpy                          **** GX
    _i                                 **** GX
    _ii                                **** GX
    _initBank                          **** GX
  8 _introPalette                      226E GR
    _j                                 **** GX
    _jj                                **** GX
    _joypad                            **** GX
    _k                                 **** GX
    _kk                                **** GX
    _l                                 **** GX
    _lastKeys                          **** GX
    _level                             **** GX
    _ll                                **** GX
    _m                                 **** GX
    _maxLevel                          **** GX
    _memcpy                            **** GX
  8 _menuSprites                       0EFE GR
    _menuX                             **** GX
    _menuY                             **** GX
    _mode                              **** GX
    _move_bkg                          **** GX
    _move_sprite                       **** GX
    _move_win                          **** GX
    _newBank                           **** GX
    _pX                                **** GX
    _pY                                **** GX
  8 _preTitleScreen                    087C GR
    _receive_byte                      **** GX
  8 _refreshLogoMap                    0E7C GR
    _remove_JOY                        **** GX
    _remove_LCD                        **** GX
    _remove_SIO                        **** GX
    _remove_TIM                        **** GX
    _remove_VBL                        **** GX
    _reset                             **** GX
    _reverse                           **** GX
    _scene                             **** GX
    _scroll_bkg                        **** GX
    _scroll_sprite                     **** GX
    _scroll_win                        **** GX
    _send_byte                         **** GX
    _set_bkg_data                      **** GX
    _set_bkg_palette                   **** GX
    _set_bkg_palette_entry             **** GX
    _set_bkg_tiles                     **** GX
    _set_data                          **** GX
    _set_interrupts                    **** GX
    _set_sprite_data                   **** GX
    _set_sprite_palette                **** GX
    _set_sprite_palette_entry          **** GX
    _set_sprite_prop                   **** GX
    _set_sprite_tile                   **** GX
    _set_tiles                         **** GX
    _set_win_data                      **** GX
    _set_win_tiles                     **** GX
    _sgb_check                         **** GX
  8 _spritePalette                     22D6 GR
    _stopAllSounds                     **** GX
    _strcat                            **** GX
    _strcmp                            **** GX
    _strcpy                            **** GX
    _strlen                            **** GX
    _strncat                           **** GX
    _strncmp                           **** GX
    _strncpy                           **** GX
    _switchRomBanks                    **** GX
    _sys_time                          **** GX
  8 _titleScreenColours                2106 GR
  8 _titleScreenTileData               0F9E GR
  8 _titleScreenTiles                  1F9E GR
  8 _updateGame                        0000 GR
    _wait_vbl_done                     **** GX
    _waitpad                           **** GX
    _waitpadup                         **** GX

ASxxxx Assembler V01.75  (GameBoy Z80-like CPU), page 2.

Area Table

   0 _CODE                              size    0   flags 0
   1 _DATA_1                            size    0   flags 0
   2 _OVERLAY                           size    0   flags 0
   3 _ISEG                              size    0   flags 0
   4 _BSEG                              size    0   flags 0
   5 _XSEG                              size    0   flags 0
   6 _GSINIT                            size    0   flags 0
   7 _GSFINAL                           size    0   flags 0
   8 _CODE_1                            size 22E6   flags 0
