                              1 ;--------------------------------------------------------
                              2 ; File Created by SDCC : FreeWare ANSI-C Compiler
                              3 ; Version 2.2.1 Mon Jul 04 15:23:08 2016
                              4 
                              5 ;--------------------------------------------------------
                              6 	.module lcc74040
                              7 	
                              8 ;--------------------------------------------------------
                              9 ; Public variables in this module
                             10 ;--------------------------------------------------------
                             11 	.globl _convScreenPalette
                             12 	.globl _conversation33
                             13 	.globl _conversation32
                             14 	.globl _conversation31
                             15 	.globl _conversation23
                             16 	.globl _conversation22
                             17 	.globl _conversation21
                             18 	.globl _conversation15
                             19 	.globl _conversation14
                             20 	.globl _conversation13
                             21 	.globl _conversation12
                             22 	.globl _conversation11
                             23 	.globl _borderMid
                             24 	.globl _borderBottom
                             25 	.globl _colourBorder
                             26 	.globl _borderTop
                             27 	.globl _princessColours
                             28 	.globl _princessMouthOpen2
                             29 	.globl _princessMouthOpen1
                             30 	.globl _princessMouthClosed
                             31 	.globl _princessOpenEyes
                             32 	.globl _princessClosedEyes
                             33 	.globl _princessBaseSprite
                             34 	.globl _queenColours
                             35 	.globl _queenMouthOpen2
                             36 	.globl _queenMouthOpen1
                             37 	.globl _queenMouthClosed
                             38 	.globl _queenOpenEyes
                             39 	.globl _queenClosedEyes
                             40 	.globl _queenBaseSprite
                             41 	.globl _blankRow
                             42 	.globl _colourDiamonds
                             43 	.globl _diamonds
                             44 	.globl _intermissionBkgData
                             45 	.globl _skipSprites
                             46 	.globl _updateGame
                             47 	.globl _nextConversation
                             48 	.globl _get_tiles
                             49 	.globl _set_tiles
                             50 	.globl _get_data
                             51 	.globl _set_data
                             52 	.globl _scroll_sprite
                             53 	.globl _move_sprite
                             54 	.globl _get_sprite_prop
                             55 	.globl _set_sprite_prop
                             56 	.globl _get_sprite_tile
                             57 	.globl _set_sprite_tile
                             58 	.globl _get_sprite_data
                             59 	.globl _set_sprite_data
                             60 	.globl _scroll_win
                             61 	.globl _move_win
                             62 	.globl _get_win_tiles
                             63 	.globl _set_win_tiles
                             64 	.globl _set_win_data
                             65 	.globl _scroll_bkg
                             66 	.globl _move_bkg
                             67 	.globl _get_bkg_tiles
                             68 	.globl _set_bkg_tiles
                             69 	.globl _set_bkg_data
                             70 	.globl _hiramcpy
                             71 	.globl _display_off
                             72 	.globl _wait_vbl_done
                             73 	.globl _reset
                             74 	.globl _set_interrupts
                             75 	.globl _disable_interrupts
                             76 	.globl _enable_interrupts
                             77 	.globl _waitpadup
                             78 	.globl _waitpad
                             79 	.globl _joypad
                             80 	.globl _delay
                             81 	.globl _receive_byte
                             82 	.globl _send_byte
                             83 	.globl _get_mode
                             84 	.globl _mode
                             85 	.globl _add_TIM
                             86 	.globl _add_LCD
                             87 	.globl _add_VBL
                             88 	.globl _remove_JOY
                             89 	.globl _remove_SIO
                             90 	.globl _remove_TIM
                             91 	.globl _remove_LCD
                             92 	.globl _remove_VBL
                             93 	.globl _cgb_compatibility
                             94 	.globl _cpu_fast
                             95 	.globl _cpu_slow
                             96 	.globl _set_sprite_palette_entry
                             97 	.globl _set_bkg_palette_entry
                             98 	.globl _set_sprite_palette
                             99 	.globl _set_bkg_palette
                            100 	.globl _sgb_check
                            101 	.globl _strncpy
                            102 	.globl _strncmp
                            103 	.globl _strncat
                            104 	.globl _strlen
                            105 	.globl _strcat
                            106 	.globl _reverse
                            107 	.globl _memcpy
                            108 	.globl _strcmp
                            109 	.globl _strcpy
                            110 ;--------------------------------------------------------
                            111 ; Externals used
                            112 ;--------------------------------------------------------
                            113 	.globl _switchRomBanks
                            114 	.globl _stopAllSounds
                            115 	.globl _fadeOutBkg
                            116 	.globl _fadeOutSprites
                            117 	.globl _fadeInBkg
                            118 	.globl _fadeInSprites
                            119 	.globl _IE_REG
                            120 	.globl _SVBK_REG
                            121 	.globl _OCPD_REG
                            122 	.globl _OCPS_REG
                            123 	.globl _BCPD_REG
                            124 	.globl _BCPS_REG
                            125 	.globl _RP_REG
                            126 	.globl _HDMA5_REG
                            127 	.globl _HDMA4_REG
                            128 	.globl _HDMA3_REG
                            129 	.globl _HDMA2_REG
                            130 	.globl _HDMA1_REG
                            131 	.globl _VBK_REG
                            132 	.globl _KEY1_REG
                            133 	.globl _WX_REG
                            134 	.globl _WY_REG
                            135 	.globl _OBP1_REG
                            136 	.globl _OBP0_REG
                            137 	.globl _BGP_REG
                            138 	.globl _DMA_REG
                            139 	.globl _LYC_REG
                            140 	.globl _LY_REG
                            141 	.globl _SCX_REG
                            142 	.globl _SCY_REG
                            143 	.globl _STAT_REG
                            144 	.globl _LCDC_REG
                            145 	.globl _NR52_REG
                            146 	.globl _NR51_REG
                            147 	.globl _NR50_REG
                            148 	.globl _NR44_REG
                            149 	.globl _NR43_REG
                            150 	.globl _NR42_REG
                            151 	.globl _NR41_REG
                            152 	.globl _NR34_REG
                            153 	.globl _NR33_REG
                            154 	.globl _NR32_REG
                            155 	.globl _NR31_REG
                            156 	.globl _NR30_REG
                            157 	.globl _NR24_REG
                            158 	.globl _NR23_REG
                            159 	.globl _NR22_REG
                            160 	.globl _NR21_REG
                            161 	.globl _NR14_REG
                            162 	.globl _NR13_REG
                            163 	.globl _NR12_REG
                            164 	.globl _NR11_REG
                            165 	.globl _NR10_REG
                            166 	.globl _IF_REG
                            167 	.globl _TAC_REG
                            168 	.globl _TMA_REG
                            169 	.globl _TIMA_REG
                            170 	.globl _DIV_REG
                            171 	.globl _SC_REG
                            172 	.globl _SB_REG
                            173 	.globl _P1_REG
                            174 	.globl _currentConversation
                            175 	.globl _fullRow
                            176 	.globl _conversationID
                            177 	.globl _conversationIndex
                            178 	.globl _conversationTime
                            179 	.globl _scene
                            180 	.globl _initBank
                            181 	.globl _newBank
                            182 	.globl _lastKeys
                            183 	.globl _ll
                            184 	.globl _kk
                            185 	.globl _jj
                            186 	.globl _ii
                            187 	.globl _maxLevel
                            188 	.globl _level
                            189 	.globl _pY
                            190 	.globl _pX
                            191 	.globl _l
                            192 	.globl _k
                            193 	.globl _j
                            194 	.globl _i
                            195 	.globl __io_out
                            196 	.globl __io_in
                            197 	.globl __io_status
                            198 	.globl _sys_time
                            199 	.globl __cpu
                            200 ;--------------------------------------------------------
                            201 ; special function registers
                            202 ;--------------------------------------------------------
                            203 ;--------------------------------------------------------
                            204 ; special function bits 
                            205 ;--------------------------------------------------------
                            206 ;--------------------------------------------------------
                            207 ; internal ram data
                            208 ;--------------------------------------------------------
                            209 	.area _DATA_2
                            210 ;--------------------------------------------------------
                            211 ; overlayable items in internal ram 
                            212 ;--------------------------------------------------------
                            213 	.area _OVERLAY
                            214 ;--------------------------------------------------------
                            215 ; indirectly addressable internal ram data
                            216 ;--------------------------------------------------------
                            217 	.area _ISEG
                            218 ;--------------------------------------------------------
                            219 ; bit data
                            220 ;--------------------------------------------------------
                            221 	.area _BSEG
                            222 ;--------------------------------------------------------
                            223 ; external ram data
                            224 ;--------------------------------------------------------
                            225 	.area _XSEG
                            226 ;--------------------------------------------------------
                            227 ; global & static initialisations
                            228 ;--------------------------------------------------------
                            229 	.area _GSINIT
                            230 	.area _GSFINAL
                            231 	.area _GSINIT
                            232 ;--------------------------------------------------------
                            233 ; code
                            234 ;--------------------------------------------------------
                            235 	.area _CODE_2
                            236 ;	rombank2.c 155
                            237 ; genLabel
                            238 ; genFunction
                            239 ;	---------------------------------
                            240 ; Function updateGame
                            241 ; ---------------------------------
   0000                     242 ___updateGame_start:
   0000                     243 _updateGame:
   0000 C5                  244 	push	bc
   0001 E8 FF               245 	lda sp,-1(sp)
                            246 ;	rombank2.c 157
                            247 ; genCmpEq
                            248 ; AOP_HL for _initBank
   0003 21 00 00            249 	ld	hl,#_initBank + 0
   0006 7E                  250 	ld	a,(hl) ; 2
   0007 FE 01               251 	cp	a,#0x01
   0009 C2 0E 00            252 	jp	nz,00295$
   000C 18 03               253 	jr	00296$
   000E                     254 00295$:
   000E C3 1B 03            255 	jp	00186$
   0011                     256 00296$:
                            257 ;	rombank2.c 158
                            258 ; genAnd
                            259 ; AOP_SFR for _LCDC_REG
   0011 F0 00               260 	ldh	a,(_LCDC_REG+0) ; x
   0013 E6 FD               261 	and	a,#0xFD
   0015 E0 00               262 	ldh	(_LCDC_REG+0),a
                            263 ;	rombank2.c 159
                            264 ; genCall
   0017 CD 00 00            265 	call	_stopAllSounds
                            266 ;	rombank2.c 162
                            267 ; genAssign
                            268 ; AOP_HL for _i
   001A 21 00 00            269 	ld	hl,#_i + 0
   001D 36 00               270 	ld	(hl),#0x00
                            271 ; genLabel
   001F                     272 00188$:
                            273 ; genCmpEq
                            274 ; AOP_HL for _i
   001F 21 00 00            275 	ld	hl,#_i + 0
   0022 7E                  276 	ld	a,(hl) ; 2
   0023 FE 28               277 	cp	a,#0x28
                            278 ; Rule 5
   0025 CA 42 00            279 	jp	z,00191$
   0028                     280 00297$:
                            281 ;	rombank2.c 163
                            282 ; genIpush
   0028 3E 00               283 	ld	a,#0x00
   002A F5                  284 	push	af
   002B 33                  285 	inc	sp
                            286 ; genIpush
   002C 3E 00               287 	ld	a,#0x00
   002E F5                  288 	push	af
   002F 33                  289 	inc	sp
                            290 ; genIpush
                            291 ; AOP_HL for _i
   0030 21 00 00            292 	ld	hl,#_i + 0
   0033 7E                  293 	ld	a,(hl)
   0034 F5                  294 	push	af
   0035 33                  295 	inc	sp
                            296 ; genCall
   0036 CD 00 00            297 	call	_move_sprite
   0039 E8 03               298 	lda	sp,3(sp)
                            299 ;	rombank2.c 162
                            300 ; genPlus
                            301 ; AOP_HL for _i
                            302 ; genPlusIncr
   003B 21 00 00            303 	ld	hl,#_i + 0
   003E 34                  304 	inc	(hl)
                            305 ; genGoto
   003F C3 1F 00            306 	jp	00188$
                            307 ; genLabel
   0042                     308 00191$:
                            309 ;	rombank2.c 166
                            310 ; genAssign
                            311 ; AOP_HL for _i
   0042 21 00 00            312 	ld	hl,#_i + 0
   0045 36 00               313 	ld	(hl),#0x00
                            314 ; genLabel
   0047                     315 00192$:
                            316 ; genCmpEq
                            317 ; AOP_HL for _i
   0047 21 00 00            318 	ld	hl,#_i + 0
   004A 7E                  319 	ld	a,(hl) ; 2
   004B FE 08               320 	cp	a,#0x08
                            321 ; Rule 5
   004D CA 94 00            322 	jp	z,00195$
   0050                     323 00298$:
                            324 ;	rombank2.c 167
                            325 ; genIpush
   0050 3E 00               326 	ld	a,#0x00
   0052 F5                  327 	push	af
   0053 33                  328 	inc	sp
                            329 ; genIpush
                            330 ; AOP_HL for _i
   0054 21 00 00            331 	ld	hl,#_i + 0
   0057 7E                  332 	ld	a,(hl)
   0058 F5                  333 	push	af
   0059 33                  334 	inc	sp
                            335 ; genCall
   005A CD 00 00            336 	call	_set_sprite_prop
   005D E8 02               337 	lda	sp,2(sp)
                            338 ;	rombank2.c 168
                            339 ; genIpush
                            340 ; AOP_HL for _i
   005F 21 00 00            341 	ld	hl,#_i + 0
   0062 7E                  342 	ld	a,(hl)
   0063 F5                  343 	push	af
   0064 33                  344 	inc	sp
                            345 ; genIpush
                            346 ; AOP_HL for _i
   0065 7E                  347 	ld	a,(hl)
   0066 F5                  348 	push	af
   0067 33                  349 	inc	sp
                            350 ; genCall
   0068 CD 00 00            351 	call	_set_sprite_tile
   006B E8 02               352 	lda	sp,2(sp)
                            353 ;	rombank2.c 169
                            354 ; genLeftShift
                            355 ; AOP_HL for _i
   006D 21 00 00            356 	ld	hl,#_i + 0
   0070 7E                  357 	ld	a,(hl)
   0071 CB 17               358 	rl	a
   0073 CB 17               359 	rl	a
   0075 CB 17               360 	rl	a
   0077 E6 F8               361 	and	a,#0xF8
   0079 4F                  362 	ld	c,a
                            363 ; genPlus
                            364 ; genPlusIncr
   007A 79                  365 	ld	a,c
   007B C6 38               366 	add	a,#0x38
   007D 4F                  367 	ld	c,a
                            368 ; genIpush
   007E 3E 8A               369 	ld	a,#0x8A
   0080 F5                  370 	push	af
   0081 33                  371 	inc	sp
                            372 ; genIpush
   0082 79                  373 	ld	a,c
   0083 F5                  374 	push	af
   0084 33                  375 	inc	sp
                            376 ; genIpush
                            377 ; AOP_HL for _i
   0085 7E                  378 	ld	a,(hl)
   0086 F5                  379 	push	af
   0087 33                  380 	inc	sp
                            381 ; genCall
   0088 CD 00 00            382 	call	_move_sprite
   008B E8 03               383 	lda	sp,3(sp)
                            384 ;	rombank2.c 166
                            385 ; genPlus
                            386 ; AOP_HL for _i
                            387 ; genPlusIncr
   008D 21 00 00            388 	ld	hl,#_i + 0
   0090 34                  389 	inc	(hl)
                            390 ; genGoto
   0091 C3 47 00            391 	jp	00192$
                            392 ; genLabel
   0094                     393 00195$:
                            394 ;	rombank2.c 173
                            395 ; genCmpEq
                            396 ; AOP_HL for _maxLevel
   0094 21 00 00            397 	ld	hl,#_maxLevel + 0
   0097 7E                  398 	ld	a,(hl)
   0098 B7                  399 	or	a,a
                            400 ; Rule 5
   0099 CA C7 00            401 	jp	z,00106$
   009C                     402 00299$:
                            403 ;	rombank2.c 174
                            404 ; genAssign
                            405 ; AOP_HL for _maxLevel
                            406 ; AOP_HL for _level
   009C 21 00 00            407 	ld	hl,#_maxLevel + 0
   009F 7E                  408 	ld	a,(hl)
   00A0 21 00 00            409 	ld	hl,#_level + 0
   00A3 77                  410 	ld	(hl),a
                            411 ;	rombank2.c 176
                            412 ; genCmpEq
                            413 ; AOP_HL for _level
   00A4 7E                  414 	ld	a,(hl) ; 2
   00A5 FE 01               415 	cp	a,#0x01
   00A7 C2 AC 00            416 	jp	nz,00300$
   00AA 18 03               417 	jr	00301$
   00AC                     418 00300$:
   00AC C3 B4 00            419 	jp	00102$
   00AF                     420 00301$:
                            421 ; genAssign
                            422 ; AOP_HL for _scene
   00AF 21 00 00            423 	ld	hl,#_scene + 0
   00B2 36 02               424 	ld	(hl),#0x02
                            425 ; genLabel
   00B4                     426 00102$:
                            427 ;	rombank2.c 177
                            428 ; genCmpEq
                            429 ; AOP_HL for _level
   00B4 21 00 00            430 	ld	hl,#_level + 0
   00B7 7E                  431 	ld	a,(hl) ; 2
   00B8 FE 03               432 	cp	a,#0x03
   00BA C2 BF 00            433 	jp	nz,00302$
   00BD 18 03               434 	jr	00303$
   00BF                     435 00302$:
   00BF C3 C7 00            436 	jp	00106$
   00C2                     437 00303$:
                            438 ; genAssign
                            439 ; AOP_HL for _scene
   00C2 21 00 00            440 	ld	hl,#_scene + 0
   00C5 36 03               441 	ld	(hl),#0x03
                            442 ; genLabel
   00C7                     443 00106$:
                            444 ;	rombank2.c 181
                            445 ; genCmpEq
                            446 ; AOP_HL for _scene
   00C7 21 00 00            447 	ld	hl,#_scene + 0
   00CA 7E                  448 	ld	a,(hl) ; 2
   00CB FE 02               449 	cp	a,#0x02
                            450 ; Rule 5
   00CD CA E5 00            451 	jp	z,00107$
   00D0                     452 00304$:
                            453 ; genCmpEq
                            454 ; AOP_HL for _scene
   00D0 21 00 00            455 	ld	hl,#_scene + 0
   00D3 7E                  456 	ld	a,(hl) ; 2
   00D4 FE 03               457 	cp	a,#0x03
                            458 ; Rule 5
   00D6 CA ED 00            459 	jp	z,00108$
   00D9                     460 00305$:
                            461 ; genCmpEq
                            462 ; AOP_HL for _scene
   00D9 21 00 00            463 	ld	hl,#_scene + 0
   00DC 7E                  464 	ld	a,(hl) ; 2
   00DD FE 04               465 	cp	a,#0x04
                            466 ; Rule 5
   00DF CA F5 00            467 	jp	z,00109$
   00E2                     468 00306$:
                            469 ; genGoto
   00E2 C3 FA 00            470 	jp	00110$
                            471 ;	rombank2.c 183
                            472 ; genLabel
   00E5                     473 00107$:
                            474 ; genAssign
                            475 ; AOP_HL for _conversationID
   00E5 21 00 00            476 	ld	hl,#_conversationID + 0
   00E8 36 00               477 	ld	(hl),#0x00
                            478 ;	rombank2.c 184
                            479 ; genGoto
   00EA C3 FA 00            480 	jp	00110$
                            481 ;	rombank2.c 187
                            482 ; genLabel
   00ED                     483 00108$:
                            484 ; genAssign
                            485 ; AOP_HL for _conversationID
   00ED 21 00 00            486 	ld	hl,#_conversationID + 0
   00F0 36 0A               487 	ld	(hl),#0x0A
                            488 ;	rombank2.c 188
                            489 ; genGoto
   00F2 C3 FA 00            490 	jp	00110$
                            491 ;	rombank2.c 191
                            492 ; genLabel
   00F5                     493 00109$:
                            494 ; genAssign
                            495 ; AOP_HL for _conversationID
   00F5 21 00 00            496 	ld	hl,#_conversationID + 0
   00F8 36 14               497 	ld	(hl),#0x14
                            498 ;	rombank2.c 193
                            499 ; genLabel
   00FA                     500 00110$:
                            501 ;	rombank2.c 196
                            502 ; genAssign
                            503 ; AOP_HL for _conversationTime
   00FA 21 00 00            504 	ld	hl,#_conversationTime + 0
   00FD 36 00               505 	ld	(hl),#0x00
                            506 ;	rombank2.c 197
                            507 ; genAssign
                            508 ; AOP_HL for _conversationIndex
   00FF 21 00 00            509 	ld	hl,#_conversationIndex + 0
   0102 36 00               510 	ld	(hl),#0x00
                            511 ;	rombank2.c 198
                            512 ; genCall
   0104 CD 1E 08            513 	call	_nextConversation
                            514 ;	rombank2.c 201
                            515 ; genAssign
                            516 ; AOP_SFR for _VBK_REG
   0107 3E 00               517 	ld	a,#0x00
   0109 E0 00               518 	ldh	(_VBK_REG+0),a
                            519 ;	rombank2.c 202
                            520 ; genIpush
   010B 3E 00               521 	ld	a,#0x00
   010D F5                  522 	push	af
   010E 33                  523 	inc	sp
                            524 ; genIpush
   010F 3E 00               525 	ld	a,#0x00
   0111 F5                  526 	push	af
   0112 33                  527 	inc	sp
                            528 ; genCall
   0113 CD 00 00            529 	call	_move_bkg
   0116 E8 02               530 	lda	sp,2(sp)
                            531 ;	rombank2.c 203
                            532 ; genIpush
   0118 21 DF 09            533 	ld	hl,#_intermissionBkgData + 0
   011B E5                  534 	push	hl
                            535 ; genIpush
   011C 3E 00               536 	ld	a,#0x00
   011E F5                  537 	push	af
   011F 33                  538 	inc	sp
                            539 ; genIpush
   0120 3E 00               540 	ld	a,#0x00
   0122 F5                  541 	push	af
   0123 33                  542 	inc	sp
                            543 ; genCall
   0124 CD 00 00            544 	call	_set_bkg_data
   0127 E8 04               545 	lda	sp,4(sp)
                            546 ;	rombank2.c 205
                            547 ; genAssign
                            548 ; AOP_HL for _i
   0129 21 00 00            549 	ld	hl,#_i + 0
   012C 36 00               550 	ld	(hl),#0x00
                            551 ; genLabel
   012E                     552 00196$:
                            553 ; genCmpEq
                            554 ; AOP_HL for _i
   012E 21 00 00            555 	ld	hl,#_i + 0
   0131 7E                  556 	ld	a,(hl) ; 2
   0132 FE 20               557 	cp	a,#0x20
                            558 ; Rule 5
   0134 CA 59 01            559 	jp	z,00199$
   0137                     560 00307$:
                            561 ;	rombank2.c 206
                            562 ; genIpush
   0137 21 E7 19            563 	ld	hl,#_blankRow + 0
   013A E5                  564 	push	hl
                            565 ; genIpush
   013B 3E 01               566 	ld	a,#0x01
   013D F5                  567 	push	af
   013E 33                  568 	inc	sp
                            569 ; genIpush
   013F 3E 14               570 	ld	a,#0x14
   0141 F5                  571 	push	af
   0142 33                  572 	inc	sp
                            573 ; genIpush
                            574 ; AOP_HL for _i
   0143 21 00 00            575 	ld	hl,#_i + 0
   0146 7E                  576 	ld	a,(hl)
   0147 F5                  577 	push	af
   0148 33                  578 	inc	sp
                            579 ; genIpush
   0149 3E 00               580 	ld	a,#0x00
   014B F5                  581 	push	af
   014C 33                  582 	inc	sp
                            583 ; genCall
   014D CD 00 00            584 	call	_set_bkg_tiles
   0150 E8 06               585 	lda	sp,6(sp)
                            586 ;	rombank2.c 205
                            587 ; genPlus
                            588 ; AOP_HL for _i
                            589 ; genPlusIncr
   0152 21 00 00            590 	ld	hl,#_i + 0
   0155 34                  591 	inc	(hl)
                            592 ; genGoto
   0156 C3 2E 01            593 	jp	00196$
                            594 ; genLabel
   0159                     595 00199$:
                            596 ;	rombank2.c 209
                            597 ; genCall
   0159 CD 00 00            598 	call	_wait_vbl_done
                            599 ;	rombank2.c 210
                            600 ; genIpush
   015C 3E 01               601 	ld	a,#0x01
   015E F5                  602 	push	af
   015F 33                  603 	inc	sp
                            604 ; genCall
   0160 CD 00 00            605 	call	_fadeInBkg
   0163 E8 01               606 	lda	sp,1(sp)
                            607 ;	rombank2.c 212
                            608 ; genCmpEq
                            609 ; AOP_HL for __cpu
   0165 21 00 00            610 	ld	hl,#__cpu + 0
   0168 7E                  611 	ld	a,(hl) ; 2
   0169 FE 11               612 	cp	a,#0x11
   016B C2 72 01            613 	jp	nz,00308$
   016E 3E 01               614 	ld	a,#0x01
   0170 18 01               615 	jr	00309$
   0172                     616 00308$:
   0172 AF                  617 	xor	a,a
   0173                     618 00309$:
   0173 4F                  619 	ld	c,a
                            620 ; genIfx
                            621 ; Removed redundent or a,a
   0174 AF                  622 	xor	a,a
   0175 B1                  623 	or	a,c
   0176 CA 92 01            624 	jp	z,00112$
                            625 ;	rombank2.c 213
                            626 ; genAssign
                            627 ; AOP_SFR for _VBK_REG
   0179 3E 01               628 	ld	a,#0x01
   017B E0 00               629 	ldh	(_VBK_REG+0),a
                            630 ;	rombank2.c 214
                            631 ; genIpush
   017D 21 B5 1E            632 	ld	hl,#_convScreenPalette + 0
   0180 E5                  633 	push	hl
                            634 ; genIpush
   0181 3E 07               635 	ld	a,#0x07
   0183 F5                  636 	push	af
   0184 33                  637 	inc	sp
                            638 ; genIpush
   0185 3E 00               639 	ld	a,#0x00
   0187 F5                  640 	push	af
   0188 33                  641 	inc	sp
                            642 ; genCall
   0189 CD 00 00            643 	call	_set_bkg_palette
   018C E8 04               644 	lda	sp,4(sp)
                            645 ;	rombank2.c 215
                            646 ; genAssign
                            647 ; AOP_SFR for _VBK_REG
   018E 3E 00               648 	ld	a,#0x00
   0190 E0 00               649 	ldh	(_VBK_REG+0),a
                            650 ; genLabel
   0192                     651 00112$:
                            652 ;	rombank2.c 218
                            653 ; genAssign
                            654 ; AOP_HL for _i
   0192 21 00 00            655 	ld	hl,#_i + 0
   0195 36 00               656 	ld	(hl),#0x00
                            657 ; genLabel
   0197                     658 00204$:
                            659 ; genCmpEq
                            660 ; AOP_HL for _i
   0197 21 00 00            661 	ld	hl,#_i + 0
   019A 7E                  662 	ld	a,(hl) ; 2
   019B FE 14               663 	cp	a,#0x14
                            664 ; Rule 5
   019D CA 18 02            665 	jp	z,00207$
   01A0                     666 00310$:
                            667 ;	rombank2.c 220
                            668 ; genAssign
                            669 ; AOP_HL for _j
   01A0 21 00 00            670 	ld	hl,#_j + 0
   01A3 36 00               671 	ld	(hl),#0x00
                            672 ; genLabel
   01A5                     673 00200$:
                            674 ; genCmpEq
                            675 ; AOP_HL for _j
                            676 ; AOP_STK for _updateGame_sloc0_1_0
   01A5 21 00 00            677 	ld	hl,#_j + 0
   01A8 7E                  678 	ld	a,(hl) ; 2
   01A9 FE 12               679 	cp	a,#0x12
   01AB C2 B2 01            680 	jp	nz,00311$
   01AE 3E 01               681 	ld	a,#0x01
   01B0 18 01               682 	jr	00312$
   01B2                     683 00311$:
   01B2 AF                  684 	xor	a,a
   01B3                     685 00312$:
   01B3 F8 00               686 	lda	hl,0(sp)
   01B5 77                  687 	ld	(hl),a ; 3
                            688 ; genIfx
                            689 ; AOP_STK for _updateGame_sloc0_1_0
                            690 ; Removed redundent or a,a
   01B6 AF                  691 	xor	a,a
   01B7 B6                  692 	or	a,(hl)
   01B8 C2 0D 02            693 	jp	nz,00203$
                            694 ;	rombank2.c 221
                            695 ; genIpush
   01BB 21 DF 19            696 	ld	hl,#_diamonds + 0
   01BE E5                  697 	push	hl
                            698 ; genIpush
   01BF 3E 02               699 	ld	a,#0x02
   01C1 F5                  700 	push	af
   01C2 33                  701 	inc	sp
                            702 ; genIpush
   01C3 3E 02               703 	ld	a,#0x02
   01C5 F5                  704 	push	af
   01C6 33                  705 	inc	sp
                            706 ; genIpush
                            707 ; AOP_HL for _j
   01C7 21 00 00            708 	ld	hl,#_j + 0
   01CA 7E                  709 	ld	a,(hl)
   01CB F5                  710 	push	af
   01CC 33                  711 	inc	sp
                            712 ; genIpush
                            713 ; AOP_HL for _i
   01CD 21 00 00            714 	ld	hl,#_i + 0
   01D0 7E                  715 	ld	a,(hl)
   01D1 F5                  716 	push	af
   01D2 33                  717 	inc	sp
                            718 ; genCall
   01D3 CD 00 00            719 	call	_set_bkg_tiles
   01D6 E8 06               720 	lda	sp,6(sp)
                            721 ;	rombank2.c 223
                            722 ; genIfx
                            723 ; Removed redundent or a,a
   01D8 AF                  724 	xor	a,a
   01D9 B1                  725 	or	a,c
   01DA CA 02 02            726 	jp	z,00202$
                            727 ;	rombank2.c 224
                            728 ; genAssign
                            729 ; AOP_SFR for _VBK_REG
   01DD 3E 01               730 	ld	a,#0x01
   01DF E0 00               731 	ldh	(_VBK_REG+0),a
                            732 ;	rombank2.c 225
                            733 ; genIpush
   01E1 21 E3 19            734 	ld	hl,#_colourDiamonds + 0
   01E4 E5                  735 	push	hl
                            736 ; genIpush
   01E5 3E 02               737 	ld	a,#0x02
   01E7 F5                  738 	push	af
   01E8 33                  739 	inc	sp
                            740 ; genIpush
   01E9 3E 02               741 	ld	a,#0x02
   01EB F5                  742 	push	af
   01EC 33                  743 	inc	sp
                            744 ; genIpush
                            745 ; AOP_HL for _j
   01ED 21 00 00            746 	ld	hl,#_j + 0
   01F0 7E                  747 	ld	a,(hl)
   01F1 F5                  748 	push	af
   01F2 33                  749 	inc	sp
                            750 ; genIpush
                            751 ; AOP_HL for _i
   01F3 21 00 00            752 	ld	hl,#_i + 0
   01F6 7E                  753 	ld	a,(hl)
   01F7 F5                  754 	push	af
   01F8 33                  755 	inc	sp
                            756 ; genCall
   01F9 CD 00 00            757 	call	_set_bkg_tiles
   01FC E8 06               758 	lda	sp,6(sp)
                            759 ;	rombank2.c 226
                            760 ; genAssign
                            761 ; AOP_SFR for _VBK_REG
   01FE 3E 00               762 	ld	a,#0x00
   0200 E0 00               763 	ldh	(_VBK_REG+0),a
                            764 ; genLabel
   0202                     765 00202$:
                            766 ;	rombank2.c 220
                            767 ; genPlus
                            768 ; AOP_HL for _j
                            769 ; genPlusIncr
   0202 21 00 00            770 	ld	hl,#_j + 0
   0205 7E                  771 	ld	a,(hl)
   0206 C6 02               772 	add	a,#0x02
   0208 47                  773 	ld	b,a
                            774 ; genAssign
                            775 ; AOP_HL for _j
   0209 70                  776 	ld	(hl),b
                            777 ; genAssign
                            778 ; AOP_HL for _j
                            779 ; (registers are the same)
                            780 ; genGoto
   020A C3 A5 01            781 	jp	00200$
                            782 ; genLabel
   020D                     783 00203$:
                            784 ;	rombank2.c 230
                            785 ; genCall
   020D CD 00 00            786 	call	_wait_vbl_done
                            787 ;	rombank2.c 218
                            788 ; genPlus
                            789 ; AOP_HL for _i
                            790 ; genPlusIncr
   0210 21 00 00            791 	ld	hl,#_i + 0
   0213 34                  792 	inc	(hl)
   0214 34                  793 	inc	(hl)
                            794 ; genGoto
   0215 C3 97 01            795 	jp	00204$
                            796 ; genLabel
   0218                     797 00207$:
                            798 ;	rombank2.c 235
                            799 ; genIpush
   0218 21 16 1B            800 	ld	hl,#_borderTop + 0
   021B E5                  801 	push	hl
                            802 ; genIpush
   021C 3E 01               803 	ld	a,#0x01
   021E F5                  804 	push	af
   021F 33                  805 	inc	sp
                            806 ; genIpush
   0220 3E 14               807 	ld	a,#0x14
   0222 F5                  808 	push	af
   0223 33                  809 	inc	sp
                            810 ; genIpush
   0224 3E 03               811 	ld	a,#0x03
   0226 F5                  812 	push	af
   0227 33                  813 	inc	sp
                            814 ; genIpush
   0228 3E 00               815 	ld	a,#0x00
   022A F5                  816 	push	af
   022B 33                  817 	inc	sp
                            818 ; genCall
   022C CD 00 00            819 	call	_set_bkg_tiles
   022F E8 06               820 	lda	sp,6(sp)
                            821 ;	rombank2.c 237
                            822 ; genIfx
                            823 ; Removed redundent or a,a
   0231 AF                  824 	xor	a,a
   0232 B1                  825 	or	a,c
   0233 CA 57 02            826 	jp	z,00116$
                            827 ;	rombank2.c 238
                            828 ; genAssign
                            829 ; AOP_SFR for _VBK_REG
   0236 3E 01               830 	ld	a,#0x01
   0238 E0 00               831 	ldh	(_VBK_REG+0),a
                            832 ;	rombank2.c 239
                            833 ; genIpush
   023A 21 2A 1B            834 	ld	hl,#_colourBorder + 0
   023D E5                  835 	push	hl
                            836 ; genIpush
   023E 3E 01               837 	ld	a,#0x01
   0240 F5                  838 	push	af
   0241 33                  839 	inc	sp
                            840 ; genIpush
   0242 3E 14               841 	ld	a,#0x14
   0244 F5                  842 	push	af
   0245 33                  843 	inc	sp
                            844 ; genIpush
   0246 3E 03               845 	ld	a,#0x03
   0248 F5                  846 	push	af
   0249 33                  847 	inc	sp
                            848 ; genIpush
   024A 3E 00               849 	ld	a,#0x00
   024C F5                  850 	push	af
   024D 33                  851 	inc	sp
                            852 ; genCall
   024E CD 00 00            853 	call	_set_bkg_tiles
   0251 E8 06               854 	lda	sp,6(sp)
                            855 ;	rombank2.c 240
                            856 ; genAssign
                            857 ; AOP_SFR for _VBK_REG
   0253 3E 00               858 	ld	a,#0x00
   0255 E0 00               859 	ldh	(_VBK_REG+0),a
                            860 ; genLabel
   0257                     861 00116$:
                            862 ;	rombank2.c 243
                            863 ; genCall
   0257 CD 00 00            864 	call	_wait_vbl_done
                            865 ;	rombank2.c 245
                            866 ; genAssign
                            867 ; AOP_HL for _i
   025A 21 00 00            868 	ld	hl,#_i + 0
   025D 36 04               869 	ld	(hl),#0x04
                            870 ; genLabel
   025F                     871 00208$:
                            872 ; genCmpEq
                            873 ; AOP_HL for _i
   025F 21 00 00            874 	ld	hl,#_i + 0
   0262 7E                  875 	ld	a,(hl) ; 2
   0263 FE 0D               876 	cp	a,#0x0D
                            877 ; Rule 5
   0265 CA B5 02            878 	jp	z,00211$
   0268                     879 00313$:
                            880 ;	rombank2.c 246
                            881 ; genIpush
   0268 21 52 1B            882 	ld	hl,#_borderMid + 0
   026B E5                  883 	push	hl
                            884 ; genIpush
   026C 3E 01               885 	ld	a,#0x01
   026E F5                  886 	push	af
   026F 33                  887 	inc	sp
                            888 ; genIpush
   0270 3E 14               889 	ld	a,#0x14
   0272 F5                  890 	push	af
   0273 33                  891 	inc	sp
                            892 ; genIpush
                            893 ; AOP_HL for _i
   0274 21 00 00            894 	ld	hl,#_i + 0
   0277 7E                  895 	ld	a,(hl)
   0278 F5                  896 	push	af
   0279 33                  897 	inc	sp
                            898 ; genIpush
   027A 3E 00               899 	ld	a,#0x00
   027C F5                  900 	push	af
   027D 33                  901 	inc	sp
                            902 ; genCall
   027E CD 00 00            903 	call	_set_bkg_tiles
   0281 E8 06               904 	lda	sp,6(sp)
                            905 ;	rombank2.c 248
                            906 ; genIfx
                            907 ; Removed redundent or a,a
   0283 AF                  908 	xor	a,a
   0284 B1                  909 	or	a,c
   0285 CA AB 02            910 	jp	z,00118$
                            911 ;	rombank2.c 249
                            912 ; genAssign
                            913 ; AOP_SFR for _VBK_REG
   0288 3E 01               914 	ld	a,#0x01
   028A E0 00               915 	ldh	(_VBK_REG+0),a
                            916 ;	rombank2.c 250
                            917 ; genIpush
   028C 21 2A 1B            918 	ld	hl,#_colourBorder + 0
   028F E5                  919 	push	hl
                            920 ; genIpush
   0290 3E 01               921 	ld	a,#0x01
   0292 F5                  922 	push	af
   0293 33                  923 	inc	sp
                            924 ; genIpush
   0294 3E 14               925 	ld	a,#0x14
   0296 F5                  926 	push	af
   0297 33                  927 	inc	sp
                            928 ; genIpush
                            929 ; AOP_HL for _i
   0298 21 00 00            930 	ld	hl,#_i + 0
   029B 7E                  931 	ld	a,(hl)
   029C F5                  932 	push	af
   029D 33                  933 	inc	sp
                            934 ; genIpush
   029E 3E 00               935 	ld	a,#0x00
   02A0 F5                  936 	push	af
   02A1 33                  937 	inc	sp
                            938 ; genCall
   02A2 CD 00 00            939 	call	_set_bkg_tiles
   02A5 E8 06               940 	lda	sp,6(sp)
                            941 ;	rombank2.c 251
                            942 ; genAssign
                            943 ; AOP_SFR for _VBK_REG
   02A7 3E 00               944 	ld	a,#0x00
   02A9 E0 00               945 	ldh	(_VBK_REG+0),a
                            946 ; genLabel
   02AB                     947 00118$:
                            948 ;	rombank2.c 254
                            949 ; genCall
   02AB CD 00 00            950 	call	_wait_vbl_done
                            951 ;	rombank2.c 245
                            952 ; genPlus
                            953 ; AOP_HL for _i
                            954 ; genPlusIncr
   02AE 21 00 00            955 	ld	hl,#_i + 0
   02B1 34                  956 	inc	(hl)
                            957 ; genGoto
   02B2 C3 5F 02            958 	jp	00208$
                            959 ; genLabel
   02B5                     960 00211$:
                            961 ;	rombank2.c 257
                            962 ; genIpush
   02B5 21 3E 1B            963 	ld	hl,#_borderBottom + 0
   02B8 E5                  964 	push	hl
                            965 ; genIpush
   02B9 3E 01               966 	ld	a,#0x01
   02BB F5                  967 	push	af
   02BC 33                  968 	inc	sp
                            969 ; genIpush
   02BD 3E 14               970 	ld	a,#0x14
   02BF F5                  971 	push	af
   02C0 33                  972 	inc	sp
                            973 ; genIpush
   02C1 3E 0D               974 	ld	a,#0x0D
   02C3 F5                  975 	push	af
   02C4 33                  976 	inc	sp
                            977 ; genIpush
   02C5 3E 00               978 	ld	a,#0x00
   02C7 F5                  979 	push	af
   02C8 33                  980 	inc	sp
                            981 ; genCall
   02C9 CD 00 00            982 	call	_set_bkg_tiles
   02CC E8 06               983 	lda	sp,6(sp)
                            984 ;	rombank2.c 259
                            985 ; genIfx
                            986 ; Removed redundent or a,a
   02CE AF                  987 	xor	a,a
   02CF B1                  988 	or	a,c
   02D0 CA F4 02            989 	jp	z,00120$
                            990 ;	rombank2.c 260
                            991 ; genAssign
                            992 ; AOP_SFR for _VBK_REG
   02D3 3E 01               993 	ld	a,#0x01
   02D5 E0 00               994 	ldh	(_VBK_REG+0),a
                            995 ;	rombank2.c 263
                            996 ; genIpush
   02D7 21 2A 1B            997 	ld	hl,#_colourBorder + 0
   02DA E5                  998 	push	hl
                            999 ; genIpush
   02DB 3E 01              1000 	ld	a,#0x01
   02DD F5                 1001 	push	af
   02DE 33                 1002 	inc	sp
                           1003 ; genIpush
   02DF 3E 14              1004 	ld	a,#0x14
   02E1 F5                 1005 	push	af
   02E2 33                 1006 	inc	sp
                           1007 ; genIpush
   02E3 3E 0D              1008 	ld	a,#0x0D
   02E5 F5                 1009 	push	af
   02E6 33                 1010 	inc	sp
                           1011 ; genIpush
   02E7 3E 00              1012 	ld	a,#0x00
   02E9 F5                 1013 	push	af
   02EA 33                 1014 	inc	sp
                           1015 ; genCall
   02EB CD 00 00           1016 	call	_set_bkg_tiles
   02EE E8 06              1017 	lda	sp,6(sp)
                           1018 ;	rombank2.c 265
                           1019 ; genAssign
                           1020 ; AOP_SFR for _VBK_REG
   02F0 3E 00              1021 	ld	a,#0x00
   02F2 E0 00              1022 	ldh	(_VBK_REG+0),a
                           1023 ; genLabel
   02F4                    1024 00120$:
                           1025 ;	rombank2.c 268
                           1026 ; genCall
   02F4 CD 00 00           1027 	call	_wait_vbl_done
                           1028 ;	rombank2.c 271
                           1029 ; genIpush
   02F7 21 5F 09           1030 	ld	hl,#_skipSprites + 0
   02FA E5                 1031 	push	hl
                           1032 ; genIpush
   02FB 3E 08              1033 	ld	a,#0x08
   02FD F5                 1034 	push	af
   02FE 33                 1035 	inc	sp
                           1036 ; genIpush
   02FF 3E 00              1037 	ld	a,#0x00
   0301 F5                 1038 	push	af
   0302 33                 1039 	inc	sp
                           1040 ; genCall
   0303 CD 00 00           1041 	call	_set_sprite_data
   0306 E8 04              1042 	lda	sp,4(sp)
                           1043 ;	rombank2.c 275
                           1044 ; genOr
                           1045 ; AOP_SFR for _LCDC_REG
                           1046 ; Type res[4] = l[4]&r[1]
                           1047 ; Size res[1] = l[1]&r[1]
   0308 F0 00              1048 	ldh	a,(_LCDC_REG+0) ; x
   030A F6 02              1049 	or	a,#0x02
   030C E0 00              1050 	ldh	(_LCDC_REG+0),a
                           1051 ;	rombank2.c 277
                           1052 ; genAssign
                           1053 ; AOP_HL for _initBank
   030E 21 00 00           1054 	ld	hl,#_initBank + 0
   0311 36 00              1055 	ld	(hl),#0x00
                           1056 ;	rombank2.c 278
                           1057 ; genAssign
                           1058 ; AOP_HL for _l
   0313 21 00 00           1059 	ld	hl,#_l + 0
   0316 36 01              1060 	ld	(hl),#0x01
                           1061 ; genGoto
   0318 C3 1A 08           1062 	jp	00228$
                           1063 ; genLabel
   031B                    1064 00186$:
                           1065 ;	rombank2.c 284
                           1066 ; genCmpEq
                           1067 ; AOP_HL for _conversationIndex
   031B 21 00 00           1068 	ld	hl,#_conversationIndex + 0
   031E 7E                 1069 	ld	a,(hl) ; 2
   031F FE 4D              1070 	cp	a,#0x4D
                           1071 ; Rule 5
   0321 CA 09 04           1072 	jp	z,00151$
   0324                    1073 00314$:
                           1074 ;	rombank2.c 285
                           1075 ; genPlus
                           1076 ; AOP_HL for _conversationTime
                           1077 ; genPlusIncr
   0324 21 00 00           1078 	ld	hl,#_conversationTime + 0
   0327 34                 1079 	inc	(hl)
                           1080 ;	rombank2.c 287
                           1081 ; genCall
   0328 CD 00 00           1082 	call	_joypad
   032B 4B                 1083 	ld	c,e
                           1084 ; genAnd
   032C 79                 1085 	ld	a,c
   032D CB 67              1086 	bit	4,a
   032F CA 37 03           1087 	jp	z,00122$
                           1088 ;	rombank2.c 288
                           1089 ; genAssign
                           1090 ; AOP_HL for _conversationTime
   0332 21 00 00           1091 	ld	hl,#_conversationTime + 0
   0335 36 04              1092 	ld	(hl),#0x04
                           1093 ; genLabel
   0337                    1094 00122$:
                           1095 ;	rombank2.c 291
                           1096 ; genCmpEq
                           1097 ; AOP_HL for _conversationTime
   0337 21 00 00           1098 	ld	hl,#_conversationTime + 0
   033A 7E                 1099 	ld	a,(hl) ; 2
   033B FE 04              1100 	cp	a,#0x04
   033D C2 42 03           1101 	jp	nz,00315$
   0340 18 03              1102 	jr	00316$
   0342                    1103 00315$:
   0342 C3 02 04           1104 	jp	00132$
   0345                    1105 00316$:
                           1106 ;	rombank2.c 293
                           1107 ; genAssign
                           1108 ; AOP_HL for _conversationIndex
   0345 21 00 00           1109 	ld	hl,#_conversationIndex + 0
   0348 4E                 1110 	ld	c,(hl)
                           1111 ; genPlus
   0349 3E 00              1112 	ld	a,#<_currentConversation
   034B 81                 1113 	add	a,c
   034C 5F                 1114 	ld	e,a
   034D 3E 00              1115 	ld	a,#>_currentConversation
   034F CE 00              1116 	adc	a,#0x00
   0351 57                 1117 	ld	d,a
                           1118 ; genPointerGet
   0352 1A                 1119 	ld	a,(de)
   0353 4F                 1120 	ld	c,a
                           1121 ; genCmpEq
   0354 79                 1122 	ld	a,c
   0355 B7                 1123 	or	a,a
                           1124 ; Rule 5
   0356 CA A1 03           1125 	jp	z,00130$
   0359                    1126 00317$:
                           1127 ;	rombank2.c 295
                           1128 ; genCall
   0359 CD 00 00           1129 	call	_joypad
   035C 4B                 1130 	ld	c,e
                           1131 ; genAnd
   035D 79                 1132 	ld	a,c
   035E CB 67              1133 	bit	4,a
   0360 CA 69 03           1134 	jp	z,00127$
                           1135 ;	rombank2.c 296
                           1136 ; genCall
   0363 CD 00 00           1137 	call	_stopAllSounds
                           1138 ; genGoto
   0366 C3 A1 03           1139 	jp	00130$
                           1140 ; genLabel
   0369                    1141 00127$:
                           1142 ;	rombank2.c 298
                           1143 ; genCmpEq
                           1144 ; AOP_HL for _k
   0369 21 00 00           1145 	ld	hl,#_k + 0
   036C 7E                 1146 	ld	a,(hl) ; 2
   036D FE 01              1147 	cp	a,#0x01
                           1148 ; Rule 5
   036F CA 7E 03           1149 	jp	z,00123$
   0372                    1150 00318$:
                           1151 ; genCmpEq
                           1152 ; AOP_HL for _k
   0372 21 00 00           1153 	ld	hl,#_k + 0
   0375 7E                 1154 	ld	a,(hl) ; 2
   0376 FE 02              1155 	cp	a,#0x02
                           1156 ; Rule 5
   0378 CA 91 03           1157 	jp	z,00124$
   037B                    1158 00319$:
                           1159 ; genGoto
   037B C3 A1 03           1160 	jp	00130$
                           1161 ;	rombank2.c 300
                           1162 ; genLabel
   037E                    1163 00123$:
                           1164 ; genAssign
                           1165 ; AOP_SFR for _NR11_REG
   037E 3E 84              1166 	ld	a,#0x84
   0380 E0 00              1167 	ldh	(_NR11_REG+0),a
                           1168 ;	rombank2.c 301
                           1169 ; genAssign
                           1170 ; AOP_SFR for _NR12_REG
   0382 3E FF              1171 	ld	a,#0xFF
   0384 E0 00              1172 	ldh	(_NR12_REG+0),a
                           1173 ;	rombank2.c 302
                           1174 ; genAssign
                           1175 ; AOP_SFR for _NR13_REG
   0386 3E 00              1176 	ld	a,#0x00
   0388 E0 00              1177 	ldh	(_NR13_REG+0),a
                           1178 ;	rombank2.c 303
                           1179 ; genAssign
                           1180 ; AOP_SFR for _NR14_REG
   038A 3E 85              1181 	ld	a,#0x85
   038C E0 00              1182 	ldh	(_NR14_REG+0),a
                           1183 ;	rombank2.c 304
                           1184 ; genGoto
   038E C3 A1 03           1185 	jp	00130$
                           1186 ;	rombank2.c 306
                           1187 ; genLabel
   0391                    1188 00124$:
                           1189 ; genAssign
                           1190 ; AOP_SFR for _NR11_REG
   0391 3E 84              1191 	ld	a,#0x84
   0393 E0 00              1192 	ldh	(_NR11_REG+0),a
                           1193 ;	rombank2.c 307
                           1194 ; genAssign
                           1195 ; AOP_SFR for _NR12_REG
   0395 3E FF              1196 	ld	a,#0xFF
   0397 E0 00              1197 	ldh	(_NR12_REG+0),a
                           1198 ;	rombank2.c 308
                           1199 ; genAssign
                           1200 ; AOP_SFR for _NR13_REG
   0399 3E 00              1201 	ld	a,#0x00
   039B E0 00              1202 	ldh	(_NR13_REG+0),a
                           1203 ;	rombank2.c 309
                           1204 ; genAssign
                           1205 ; AOP_SFR for _NR14_REG
   039D 3E 84              1206 	ld	a,#0x84
   039F E0 00              1207 	ldh	(_NR14_REG+0),a
                           1208 ;	rombank2.c 311
                           1209 ; genLabel
   03A1                    1210 00130$:
                           1211 ;	rombank2.c 316
                           1212 ; genAssign
                           1213 ; AOP_HL for _conversationTime
   03A1 21 00 00           1214 	ld	hl,#_conversationTime + 0
   03A4 36 00              1215 	ld	(hl),#0x00
                           1216 ;	rombank2.c 318
                           1217 ; genIpush
   03A6 3E 0B              1218 	ld	a,#0x0B
   03A8 F5                 1219 	push	af
   03A9 33                 1220 	inc	sp
                           1221 ; genIpush
                           1222 ; AOP_HL for _conversationIndex
   03AA 21 00 00           1223 	ld	hl,#_conversationIndex + 0
   03AD 7E                 1224 	ld	a,(hl)
   03AE F5                 1225 	push	af
   03AF 33                 1226 	inc	sp
                           1227 ; genCall
   03B0 CD 00 00           1228 	call	__moduchar
   03B3 4B                 1229 	ld	c,e
   03B4 E8 02              1230 	lda	sp,2(sp)
                           1231 ; genPlus
                           1232 ; AOP_HL for _pX
                           1233 ; genPlusIncr
   03B6 79                 1234 	ld	a,c
   03B7 C6 08              1235 	add	a,#0x08
   03B9 21 00 00           1236 	ld	hl,#_pX + 0
   03BC 77                 1237 	ld	(hl),a
                           1238 ;	rombank2.c 319
                           1239 ; genIpush
   03BD 3E 0B              1240 	ld	a,#0x0B
   03BF F5                 1241 	push	af
   03C0 33                 1242 	inc	sp
                           1243 ; genIpush
                           1244 ; AOP_HL for _conversationIndex
   03C1 21 00 00           1245 	ld	hl,#_conversationIndex + 0
   03C4 7E                 1246 	ld	a,(hl)
   03C5 F5                 1247 	push	af
   03C6 33                 1248 	inc	sp
                           1249 ; genCall
   03C7 CD 00 00           1250 	call	__divuchar
   03CA 4B                 1251 	ld	c,e
   03CB E8 02              1252 	lda	sp,2(sp)
                           1253 ; genPlus
                           1254 ; AOP_HL for _pY
                           1255 ; genPlusIncr
   03CD 79                 1256 	ld	a,c
   03CE C6 05              1257 	add	a,#0x05
   03D0 21 00 00           1258 	ld	hl,#_pY + 0
   03D3 77                 1259 	ld	(hl),a
                           1260 ;	rombank2.c 320
                           1261 ; genAssign
                           1262 ; AOP_HL for _conversationIndex
   03D4 21 00 00           1263 	ld	hl,#_conversationIndex + 0
   03D7 4E                 1264 	ld	c,(hl)
                           1265 ; genPlus
   03D8 3E 00              1266 	ld	a,#<_currentConversation
   03DA 81                 1267 	add	a,c
   03DB 4F                 1268 	ld	c,a
   03DC 3E 00              1269 	ld	a,#>_currentConversation
   03DE CE 00              1270 	adc	a,#0x00
   03E0 47                 1271 	ld	b,a
                           1272 ; genIpush
   03E1 C5                 1273 	push	bc
                           1274 ; genIpush
   03E2 3E 01              1275 	ld	a,#0x01
   03E4 F5                 1276 	push	af
   03E5 33                 1277 	inc	sp
                           1278 ; genIpush
   03E6 3E 01              1279 	ld	a,#0x01
   03E8 F5                 1280 	push	af
   03E9 33                 1281 	inc	sp
                           1282 ; genIpush
                           1283 ; AOP_HL for _pY
   03EA 21 00 00           1284 	ld	hl,#_pY + 0
   03ED 7E                 1285 	ld	a,(hl)
   03EE F5                 1286 	push	af
   03EF 33                 1287 	inc	sp
                           1288 ; genIpush
                           1289 ; AOP_HL for _pX
   03F0 21 00 00           1290 	ld	hl,#_pX + 0
   03F3 7E                 1291 	ld	a,(hl)
   03F4 F5                 1292 	push	af
   03F5 33                 1293 	inc	sp
                           1294 ; genCall
   03F6 CD 00 00           1295 	call	_set_bkg_tiles
   03F9 E8 06              1296 	lda	sp,6(sp)
                           1297 ;	rombank2.c 321
                           1298 ; genPlus
                           1299 ; AOP_HL for _conversationIndex
                           1300 ; genPlusIncr
   03FB 21 00 00           1301 	ld	hl,#_conversationIndex + 0
   03FE 34                 1302 	inc	(hl)
                           1303 ; genGoto
   03FF C3 89 05           1304 	jp	00152$
                           1305 ; genLabel
   0402                    1306 00132$:
                           1307 ;	rombank2.c 323
                           1308 ; genAssign
                           1309 ; AOP_SFR for _NR12_REG
   0402 3E 00              1310 	ld	a,#0x00
   0404 E0 00              1311 	ldh	(_NR12_REG+0),a
                           1312 ; genGoto
   0406 C3 89 05           1313 	jp	00152$
                           1314 ; genLabel
   0409                    1315 00151$:
                           1316 ;	rombank2.c 328
                           1317 ; genCall
   0409 CD 00 00           1318 	call	_joypad
   040C 4B                 1319 	ld	c,e
                           1320 ; genAnd
   040D 79                 1321 	ld	a,c
   040E CB 67              1322 	bit	4,a
   0410 CA 85 05           1323 	jp	z,00149$
                           1324 ;	rombank2.c 329
                           1325 ; genCall
   0413 CD 00 00           1326 	call	_stopAllSounds
                           1327 ;	rombank2.c 331
                           1328 ; genCmpEq
                           1329 ; AOP_HL for _scene
   0416 21 00 00           1330 	ld	hl,#_scene + 0
   0419 7E                 1331 	ld	a,(hl) ; 2
   041A FE 02              1332 	cp	a,#0x02
                           1333 ; Rule 5
   041C CA 34 04           1334 	jp	z,00136$
   041F                    1335 00320$:
                           1336 ; genCmpEq
                           1337 ; AOP_HL for _scene
   041F 21 00 00           1338 	ld	hl,#_scene + 0
   0422 7E                 1339 	ld	a,(hl) ; 2
   0423 FE 03              1340 	cp	a,#0x03
                           1341 ; Rule 5
   0425 CA 80 04           1342 	jp	z,00139$
   0428                    1343 00321$:
                           1344 ; genCmpEq
                           1345 ; AOP_HL for _scene
   0428 21 00 00           1346 	ld	hl,#_scene + 0
   042B 7E                 1347 	ld	a,(hl) ; 2
   042C FE 04              1348 	cp	a,#0x04
                           1349 ; Rule 5
   042E CA C9 04           1350 	jp	z,00142$
   0431                    1351 00322$:
                           1352 ; genGoto
   0431 C3 2E 05           1353 	jp	00144$
                           1354 ;	rombank2.c 343
                           1355 ; genLabel
   0434                    1356 00136$:
                           1357 ;	rombank2.c 333
                           1358 ; genCmpEq
                           1359 ; AOP_HL for _conversationID
   0434 21 00 00           1360 	ld	hl,#_conversationID + 0
   0437 7E                 1361 	ld	a,(hl) ; 2
   0438 FE 04              1362 	cp	a,#0x04
   043A C2 3F 04           1363 	jp	nz,00323$
   043D 18 03              1364 	jr	00324$
   043F                    1365 00323$:
   043F C3 2E 05           1366 	jp	00144$
   0442                    1367 00324$:
                           1368 ;	rombank2.c 335
                           1369 ; genAssign
                           1370 ; AOP_HL for _i
   0442 21 00 00           1371 	ld	hl,#_i + 0
   0445 36 00              1372 	ld	(hl),#0x00
                           1373 ; genLabel
   0447                    1374 00212$:
                           1375 ; genCmpEq
                           1376 ; AOP_HL for _i
   0447 21 00 00           1377 	ld	hl,#_i + 0
   044A 7E                 1378 	ld	a,(hl) ; 2
   044B FE 0A              1379 	cp	a,#0x0A
                           1380 ; Rule 5
   044D CA 6A 04           1381 	jp	z,00215$
   0450                    1382 00325$:
                           1383 ;	rombank2.c 336
                           1384 ; genIpush
   0450 3E 00              1385 	ld	a,#0x00
   0452 F5                 1386 	push	af
   0453 33                 1387 	inc	sp
                           1388 ; genIpush
   0454 3E 00              1389 	ld	a,#0x00
   0456 F5                 1390 	push	af
   0457 33                 1391 	inc	sp
                           1392 ; genIpush
                           1393 ; AOP_HL for _i
   0458 21 00 00           1394 	ld	hl,#_i + 0
   045B 7E                 1395 	ld	a,(hl)
   045C F5                 1396 	push	af
   045D 33                 1397 	inc	sp
                           1398 ; genCall
   045E CD 00 00           1399 	call	_move_sprite
   0461 E8 03              1400 	lda	sp,3(sp)
                           1401 ;	rombank2.c 335
                           1402 ; genPlus
                           1403 ; AOP_HL for _i
                           1404 ; genPlusIncr
   0463 21 00 00           1405 	ld	hl,#_i + 0
   0466 34                 1406 	inc	(hl)
                           1407 ; genGoto
   0467 C3 47 04           1408 	jp	00212$
                           1409 ; genLabel
   046A                    1410 00215$:
                           1411 ;	rombank2.c 339
                           1412 ; genAssign
                           1413 ; AOP_HL for _level
   046A 21 00 00           1414 	ld	hl,#_level + 0
   046D 36 01              1415 	ld	(hl),#0x01
                           1416 ;	rombank2.c 340
                           1417 ; genIpush
   046F 3E 0A              1418 	ld	a,#0x0A
   0471 F5                 1419 	push	af
   0472 33                 1420 	inc	sp
                           1421 ; genCall
   0473 CD 00 00           1422 	call	_fadeOutBkg
   0476 E8 01              1423 	lda	sp,1(sp)
                           1424 ;	rombank2.c 341
                           1425 ; genAssign
                           1426 ; AOP_HL for _scene
   0478 21 00 00           1427 	ld	hl,#_scene + 0
   047B 36 05              1428 	ld	(hl),#0x05
                           1429 ;	rombank2.c 343
                           1430 ; genGoto
   047D C3 2E 05           1431 	jp	00144$
                           1432 ;	rombank2.c 357
                           1433 ; genLabel
   0480                    1434 00139$:
                           1435 ;	rombank2.c 346
                           1436 ; genCmpEq
                           1437 ; AOP_HL for _conversationID
   0480 21 00 00           1438 	ld	hl,#_conversationID + 0
   0483 7E                 1439 	ld	a,(hl) ; 2
   0484 FE 0C              1440 	cp	a,#0x0C
   0486 C2 8B 04           1441 	jp	nz,00326$
   0489 18 03              1442 	jr	00327$
   048B                    1443 00326$:
   048B C3 C9 04           1444 	jp	00142$
   048E                    1445 00327$:
                           1446 ;	rombank2.c 348
                           1447 ; genAssign
                           1448 ; AOP_HL for _i
   048E 21 00 00           1449 	ld	hl,#_i + 0
   0491 36 00              1450 	ld	(hl),#0x00
                           1451 ; genLabel
   0493                    1452 00216$:
                           1453 ; genCmpEq
                           1454 ; AOP_HL for _i
   0493 21 00 00           1455 	ld	hl,#_i + 0
   0496 7E                 1456 	ld	a,(hl) ; 2
   0497 FE 0A              1457 	cp	a,#0x0A
                           1458 ; Rule 5
   0499 CA B6 04           1459 	jp	z,00219$
   049C                    1460 00328$:
                           1461 ;	rombank2.c 349
                           1462 ; genIpush
   049C 3E 00              1463 	ld	a,#0x00
   049E F5                 1464 	push	af
   049F 33                 1465 	inc	sp
                           1466 ; genIpush
   04A0 3E 00              1467 	ld	a,#0x00
   04A2 F5                 1468 	push	af
   04A3 33                 1469 	inc	sp
                           1470 ; genIpush
                           1471 ; AOP_HL for _i
   04A4 21 00 00           1472 	ld	hl,#_i + 0
   04A7 7E                 1473 	ld	a,(hl)
   04A8 F5                 1474 	push	af
   04A9 33                 1475 	inc	sp
                           1476 ; genCall
   04AA CD 00 00           1477 	call	_move_sprite
   04AD E8 03              1478 	lda	sp,3(sp)
                           1479 ;	rombank2.c 348
                           1480 ; genPlus
                           1481 ; AOP_HL for _i
                           1482 ; genPlusIncr
   04AF 21 00 00           1483 	ld	hl,#_i + 0
   04B2 34                 1484 	inc	(hl)
                           1485 ; genGoto
   04B3 C3 93 04           1486 	jp	00216$
                           1487 ; genLabel
   04B6                    1488 00219$:
                           1489 ;	rombank2.c 352
                           1490 ; genAssign
                           1491 ; AOP_HL for _level
   04B6 21 00 00           1492 	ld	hl,#_level + 0
   04B9 36 03              1493 	ld	(hl),#0x03
                           1494 ;	rombank2.c 353
                           1495 ; genIpush
   04BB 3E 0A              1496 	ld	a,#0x0A
   04BD F5                 1497 	push	af
   04BE 33                 1498 	inc	sp
                           1499 ; genCall
   04BF CD 00 00           1500 	call	_fadeOutBkg
   04C2 E8 01              1501 	lda	sp,1(sp)
                           1502 ;	rombank2.c 354
                           1503 ; genAssign
                           1504 ; AOP_HL for _scene
   04C4 21 00 00           1505 	ld	hl,#_scene + 0
   04C7 36 0F              1506 	ld	(hl),#0x0F
                           1507 ;	rombank2.c 373
                           1508 ; genLabel
   04C9                    1509 00142$:
                           1510 ;	rombank2.c 358
                           1511 ; genCmpEq
                           1512 ; AOP_HL for _conversationID
   04C9 21 00 00           1513 	ld	hl,#_conversationID + 0
   04CC 7E                 1514 	ld	a,(hl) ; 2
   04CD FE 16              1515 	cp	a,#0x16
   04CF C2 D4 04           1516 	jp	nz,00329$
   04D2 18 03              1517 	jr	00330$
   04D4                    1518 00329$:
   04D4 C3 2E 05           1519 	jp	00144$
   04D7                    1520 00330$:
                           1521 ;	rombank2.c 360
                           1522 ; genAssign
                           1523 ; AOP_HL for _i
   04D7 21 00 00           1524 	ld	hl,#_i + 0
   04DA 36 00              1525 	ld	(hl),#0x00
                           1526 ; genLabel
   04DC                    1527 00220$:
                           1528 ; genCmpEq
                           1529 ; AOP_HL for _i
   04DC 21 00 00           1530 	ld	hl,#_i + 0
   04DF 7E                 1531 	ld	a,(hl) ; 2
   04E0 FE 0A              1532 	cp	a,#0x0A
                           1533 ; Rule 5
   04E2 CA FF 04           1534 	jp	z,00223$
   04E5                    1535 00331$:
                           1536 ;	rombank2.c 361
                           1537 ; genIpush
   04E5 3E 00              1538 	ld	a,#0x00
   04E7 F5                 1539 	push	af
   04E8 33                 1540 	inc	sp
                           1541 ; genIpush
   04E9 3E 00              1542 	ld	a,#0x00
   04EB F5                 1543 	push	af
   04EC 33                 1544 	inc	sp
                           1545 ; genIpush
                           1546 ; AOP_HL for _i
   04ED 21 00 00           1547 	ld	hl,#_i + 0
   04F0 7E                 1548 	ld	a,(hl)
   04F1 F5                 1549 	push	af
   04F2 33                 1550 	inc	sp
                           1551 ; genCall
   04F3 CD 00 00           1552 	call	_move_sprite
   04F6 E8 03              1553 	lda	sp,3(sp)
                           1554 ;	rombank2.c 360
                           1555 ; genPlus
                           1556 ; AOP_HL for _i
                           1557 ; genPlusIncr
   04F8 21 00 00           1558 	ld	hl,#_i + 0
   04FB 34                 1559 	inc	(hl)
                           1560 ; genGoto
   04FC C3 DC 04           1561 	jp	00220$
                           1562 ; genLabel
   04FF                    1563 00223$:
                           1564 ;	rombank2.c 364
                           1565 ; genAssign
                           1566 ; AOP_HL for _level
   04FF 21 00 00           1567 	ld	hl,#_level + 0
   0502 36 04              1568 	ld	(hl),#0x04
                           1569 ;	rombank2.c 365
                           1570 ; genIpush
   0504 3E 0A              1571 	ld	a,#0x0A
   0506 F5                 1572 	push	af
   0507 33                 1573 	inc	sp
                           1574 ; genCall
   0508 CD 00 00           1575 	call	_fadeOutBkg
   050B E8 01              1576 	lda	sp,1(sp)
                           1577 ;	rombank2.c 366
                           1578 ; genAssign
                           1579 ; AOP_HL for _scene
   050D 21 00 00           1580 	ld	hl,#_scene + 0
   0510 36 32              1581 	ld	(hl),#0x32
                           1582 ;	rombank2.c 367
                           1583 ; genAssign
                           1584 ; AOP_HL for _newBank
   0512 21 00 00           1585 	ld	hl,#_newBank + 0
   0515 36 03              1586 	ld	(hl),#0x03
                           1587 ;	rombank2.c 368
                           1588 ; genAssign
                           1589 ; AOP_HL for _initBank
   0517 21 00 00           1590 	ld	hl,#_initBank + 0
   051A 36 01              1591 	ld	(hl),#0x01
                           1592 ;	rombank2.c 369
                           1593 ; genIpush
   051C 3E 0A              1594 	ld	a,#0x0A
   051E F5                 1595 	push	af
   051F 33                 1596 	inc	sp
                           1597 ; genCall
   0520 CD 00 00           1598 	call	_fadeOutBkg
   0523 E8 01              1599 	lda	sp,1(sp)
                           1600 ;	rombank2.c 370
                           1601 ; genIpush
   0525 3E 0A              1602 	ld	a,#0x0A
   0527 F5                 1603 	push	af
   0528 33                 1604 	inc	sp
                           1605 ; genCall
   0529 CD 00 00           1606 	call	_fadeOutSprites
   052C E8 01              1607 	lda	sp,1(sp)
                           1608 ;	rombank2.c 377
                           1609 ; genLabel
   052E                    1610 00144$:
                           1611 ;	rombank2.c 380
                           1612 ; genCmpEq
                           1613 ; AOP_HL for _k
   052E 21 00 00           1614 	ld	hl,#_k + 0
   0531 7E                 1615 	ld	a,(hl) ; 2
   0532 FE 02              1616 	cp	a,#0x02
   0534 C2 39 05           1617 	jp	nz,00332$
   0537 18 03              1618 	jr	00333$
   0539                    1619 00332$:
   0539 C3 44 05           1620 	jp	00146$
   053C                    1621 00333$:
                           1622 ;	rombank2.c 381
                           1623 ; genAssign
                           1624 ; AOP_HL for _l
   053C 21 00 00           1625 	ld	hl,#_l + 0
   053F 36 01              1626 	ld	(hl),#0x01
                           1627 ; genGoto
   0541 C3 49 05           1628 	jp	00147$
                           1629 ; genLabel
   0544                    1630 00146$:
                           1631 ;	rombank2.c 383
                           1632 ; genAssign
                           1633 ; AOP_HL for _l
   0544 21 00 00           1634 	ld	hl,#_l + 0
   0547 36 02              1635 	ld	(hl),#0x02
                           1636 ; genLabel
   0549                    1637 00147$:
                           1638 ;	rombank2.c 386
                           1639 ; genAssign
                           1640 ; AOP_HL for _i
   0549 21 00 00           1641 	ld	hl,#_i + 0
   054C 36 04              1642 	ld	(hl),#0x04
                           1643 ; genLabel
   054E                    1644 00224$:
                           1645 ; genCmpEq
                           1646 ; AOP_HL for _i
   054E 21 00 00           1647 	ld	hl,#_i + 0
   0551 7E                 1648 	ld	a,(hl) ; 2
   0552 FE 0D              1649 	cp	a,#0x0D
                           1650 ; Rule 5
   0554 CA 79 05           1651 	jp	z,00227$
   0557                    1652 00334$:
                           1653 ;	rombank2.c 387
                           1654 ; genIpush
   0557 21 52 1B           1655 	ld	hl,#_borderMid + 0
   055A E5                 1656 	push	hl
                           1657 ; genIpush
   055B 3E 01              1658 	ld	a,#0x01
   055D F5                 1659 	push	af
   055E 33                 1660 	inc	sp
                           1661 ; genIpush
   055F 3E 14              1662 	ld	a,#0x14
   0561 F5                 1663 	push	af
   0562 33                 1664 	inc	sp
                           1665 ; genIpush
                           1666 ; AOP_HL for _i
   0563 21 00 00           1667 	ld	hl,#_i + 0
   0566 7E                 1668 	ld	a,(hl)
   0567 F5                 1669 	push	af
   0568 33                 1670 	inc	sp
                           1671 ; genIpush
   0569 3E 00              1672 	ld	a,#0x00
   056B F5                 1673 	push	af
   056C 33                 1674 	inc	sp
                           1675 ; genCall
   056D CD 00 00           1676 	call	_set_bkg_tiles
   0570 E8 06              1677 	lda	sp,6(sp)
                           1678 ;	rombank2.c 386
                           1679 ; genPlus
                           1680 ; AOP_HL for _i
                           1681 ; genPlusIncr
   0572 21 00 00           1682 	ld	hl,#_i + 0
   0575 34                 1683 	inc	(hl)
                           1684 ; genGoto
   0576 C3 4E 05           1685 	jp	00224$
                           1686 ; genLabel
   0579                    1687 00227$:
                           1688 ;	rombank2.c 390
                           1689 ; genPlus
                           1690 ; AOP_HL for _conversationID
                           1691 ; genPlusIncr
   0579 21 00 00           1692 	ld	hl,#_conversationID + 0
   057C 34                 1693 	inc	(hl)
                           1694 ;	rombank2.c 391
                           1695 ; genCall
   057D CD 1E 08           1696 	call	_nextConversation
                           1697 ;	rombank2.c 392
                           1698 ; genAssign
                           1699 ; AOP_HL for _conversationIndex
   0580 21 00 00           1700 	ld	hl,#_conversationIndex + 0
   0583 36 00              1701 	ld	(hl),#0x00
                           1702 ; genLabel
   0585                    1703 00149$:
                           1704 ;	rombank2.c 396
                           1705 ; genAssign
                           1706 ; AOP_SFR for _NR12_REG
   0585 3E 00              1707 	ld	a,#0x00
   0587 E0 00              1708 	ldh	(_NR12_REG+0),a
                           1709 ; genLabel
   0589                    1710 00152$:
                           1711 ;	rombank2.c 400
                           1712 ; genCmpEq
                           1713 ; AOP_HL for _l
   0589 21 00 00           1714 	ld	hl,#_l + 0
   058C 7E                 1715 	ld	a,(hl) ; 2
   058D FE 01              1716 	cp	a,#0x01
                           1717 ; Rule 5
   058F CA 9E 05           1718 	jp	z,00153$
   0592                    1719 00335$:
                           1720 ; genCmpEq
                           1721 ; AOP_HL for _l
   0592 21 00 00           1722 	ld	hl,#_l + 0
   0595 7E                 1723 	ld	a,(hl) ; 2
   0596 FE 02              1724 	cp	a,#0x02
                           1725 ; Rule 5
   0598 CA EE 05           1726 	jp	z,00156$
   059B                    1727 00336$:
                           1728 ; genGoto
   059B C3 3B 06           1729 	jp	00159$
                           1730 ;	rombank2.c 402
                           1731 ; genLabel
   059E                    1732 00153$:
                           1733 ; genAssign
                           1734 ; AOP_HL for _k
   059E 21 00 00           1735 	ld	hl,#_k + 0
   05A1 36 01              1736 	ld	(hl),#0x01
                           1737 ;	rombank2.c 403
                           1738 ; genIpush
   05A3 21 06 1A           1739 	ld	hl,#_queenBaseSprite + 0
   05A6 E5                 1740 	push	hl
                           1741 ; genIpush
   05A7 3E 09              1742 	ld	a,#0x09
   05A9 F5                 1743 	push	af
   05AA 33                 1744 	inc	sp
                           1745 ; genIpush
   05AB 3E 06              1746 	ld	a,#0x06
   05AD F5                 1747 	push	af
   05AE 33                 1748 	inc	sp
                           1749 ; genIpush
   05AF 3E 04              1750 	ld	a,#0x04
   05B1 F5                 1751 	push	af
   05B2 33                 1752 	inc	sp
                           1753 ; genIpush
   05B3 3E 01              1754 	ld	a,#0x01
   05B5 F5                 1755 	push	af
   05B6 33                 1756 	inc	sp
                           1757 ; genCall
   05B7 CD 00 00           1758 	call	_set_bkg_tiles
   05BA E8 06              1759 	lda	sp,6(sp)
                           1760 ;	rombank2.c 405
                           1761 ; genCmpEq
                           1762 ; AOP_HL for __cpu
   05BC 21 00 00           1763 	ld	hl,#__cpu + 0
   05BF 7E                 1764 	ld	a,(hl) ; 2
   05C0 FE 11              1765 	cp	a,#0x11
   05C2 C2 C7 05           1766 	jp	nz,00337$
   05C5 18 03              1767 	jr	00338$
   05C7                    1768 00337$:
   05C7 C3 3B 06           1769 	jp	00159$
   05CA                    1770 00338$:
                           1771 ;	rombank2.c 406
                           1772 ; genAssign
                           1773 ; AOP_SFR for _VBK_REG
   05CA 3E 01              1774 	ld	a,#0x01
   05CC E0 00              1775 	ldh	(_VBK_REG+0),a
                           1776 ;	rombank2.c 407
                           1777 ; genIpush
   05CE 21 58 1A           1778 	ld	hl,#_queenColours + 0
   05D1 E5                 1779 	push	hl
                           1780 ; genIpush
   05D2 3E 09              1781 	ld	a,#0x09
   05D4 F5                 1782 	push	af
   05D5 33                 1783 	inc	sp
                           1784 ; genIpush
   05D6 3E 06              1785 	ld	a,#0x06
   05D8 F5                 1786 	push	af
   05D9 33                 1787 	inc	sp
                           1788 ; genIpush
   05DA 3E 04              1789 	ld	a,#0x04
   05DC F5                 1790 	push	af
   05DD 33                 1791 	inc	sp
                           1792 ; genIpush
   05DE 3E 01              1793 	ld	a,#0x01
   05E0 F5                 1794 	push	af
   05E1 33                 1795 	inc	sp
                           1796 ; genCall
   05E2 CD 00 00           1797 	call	_set_bkg_tiles
   05E5 E8 06              1798 	lda	sp,6(sp)
                           1799 ;	rombank2.c 408
                           1800 ; genAssign
                           1801 ; AOP_SFR for _VBK_REG
   05E7 3E 00              1802 	ld	a,#0x00
   05E9 E0 00              1803 	ldh	(_VBK_REG+0),a
                           1804 ;	rombank2.c 411
                           1805 ; genGoto
   05EB C3 3B 06           1806 	jp	00159$
                           1807 ;	rombank2.c 415
                           1808 ; genLabel
   05EE                    1809 00156$:
                           1810 ; genAssign
                           1811 ; AOP_HL for _k
   05EE 21 00 00           1812 	ld	hl,#_k + 0
   05F1 36 02              1813 	ld	(hl),#0x02
                           1814 ;	rombank2.c 416
                           1815 ; genIpush
   05F3 21 8E 1A           1816 	ld	hl,#_princessBaseSprite + 0
   05F6 E5                 1817 	push	hl
                           1818 ; genIpush
   05F7 3E 09              1819 	ld	a,#0x09
   05F9 F5                 1820 	push	af
   05FA 33                 1821 	inc	sp
                           1822 ; genIpush
   05FB 3E 06              1823 	ld	a,#0x06
   05FD F5                 1824 	push	af
   05FE 33                 1825 	inc	sp
                           1826 ; genIpush
   05FF 3E 04              1827 	ld	a,#0x04
   0601 F5                 1828 	push	af
   0602 33                 1829 	inc	sp
                           1830 ; genIpush
   0603 3E 01              1831 	ld	a,#0x01
   0605 F5                 1832 	push	af
   0606 33                 1833 	inc	sp
                           1834 ; genCall
   0607 CD 00 00           1835 	call	_set_bkg_tiles
   060A E8 06              1836 	lda	sp,6(sp)
                           1837 ;	rombank2.c 418
                           1838 ; genCmpEq
                           1839 ; AOP_HL for __cpu
   060C 21 00 00           1840 	ld	hl,#__cpu + 0
   060F 7E                 1841 	ld	a,(hl) ; 2
   0610 FE 11              1842 	cp	a,#0x11
   0612 C2 17 06           1843 	jp	nz,00339$
   0615 18 03              1844 	jr	00340$
   0617                    1845 00339$:
   0617 C3 3B 06           1846 	jp	00159$
   061A                    1847 00340$:
                           1848 ;	rombank2.c 419
                           1849 ; genAssign
                           1850 ; AOP_SFR for _VBK_REG
   061A 3E 01              1851 	ld	a,#0x01
   061C E0 00              1852 	ldh	(_VBK_REG+0),a
                           1853 ;	rombank2.c 420
                           1854 ; genIpush
   061E 21 E0 1A           1855 	ld	hl,#_princessColours + 0
   0621 E5                 1856 	push	hl
                           1857 ; genIpush
   0622 3E 09              1858 	ld	a,#0x09
   0624 F5                 1859 	push	af
   0625 33                 1860 	inc	sp
                           1861 ; genIpush
   0626 3E 06              1862 	ld	a,#0x06
   0628 F5                 1863 	push	af
   0629 33                 1864 	inc	sp
                           1865 ; genIpush
   062A 3E 04              1866 	ld	a,#0x04
   062C F5                 1867 	push	af
   062D 33                 1868 	inc	sp
                           1869 ; genIpush
   062E 3E 01              1870 	ld	a,#0x01
   0630 F5                 1871 	push	af
   0631 33                 1872 	inc	sp
                           1873 ; genCall
   0632 CD 00 00           1874 	call	_set_bkg_tiles
   0635 E8 06              1875 	lda	sp,6(sp)
                           1876 ;	rombank2.c 421
                           1877 ; genAssign
                           1878 ; AOP_SFR for _VBK_REG
   0637 3E 00              1879 	ld	a,#0x00
   0639 E0 00              1880 	ldh	(_VBK_REG+0),a
                           1881 ;	rombank2.c 425
                           1882 ; genLabel
   063B                    1883 00159$:
                           1884 ;	rombank2.c 426
                           1885 ; genAssign
                           1886 ; AOP_HL for _l
   063B 21 00 00           1887 	ld	hl,#_l + 0
   063E 36 00              1888 	ld	(hl),#0x00
                           1889 ;	rombank2.c 429
                           1890 ; genPlus
                           1891 ; AOP_HL for _j
                           1892 ; genPlusIncr
   0640 21 00 00           1893 	ld	hl,#_j + 0
   0643 34                 1894 	inc	(hl)
                           1895 ;	rombank2.c 431
                           1896 ; genCmpEq
                           1897 ; AOP_HL for _k
   0644 21 00 00           1898 	ld	hl,#_k + 0
   0647 7E                 1899 	ld	a,(hl) ; 2
   0648 FE 01              1900 	cp	a,#0x01
                           1901 ; Rule 5
   064A CA 59 06           1902 	jp	z,00164$
   064D                    1903 00341$:
                           1904 ; genCmpEq
                           1905 ; AOP_HL for _k
   064D 21 00 00           1906 	ld	hl,#_k + 0
   0650 7E                 1907 	ld	a,(hl) ; 2
   0651 FE 02              1908 	cp	a,#0x02
                           1909 ; Rule 5
   0653 CA 32 07           1910 	jp	z,00176$
   0656                    1911 00342$:
                           1912 ; genGoto
   0656 C3 08 08           1913 	jp	00184$
                           1914 ;	rombank2.c 446
                           1915 ; genLabel
   0659                    1916 00164$:
                           1917 ;	rombank2.c 435
                           1918 ; genCmpEq
                           1919 ; AOP_HL for _j
   0659 21 00 00           1920 	ld	hl,#_j + 0
   065C 7E                 1921 	ld	a,(hl) ; 2
   065D FE 20              1922 	cp	a,#0x20
                           1923 ; Rule 5
   065F CA 6E 06           1924 	jp	z,00160$
   0662                    1925 00343$:
                           1926 ; genCmpEq
                           1927 ; AOP_HL for _j
   0662 21 00 00           1928 	ld	hl,#_j + 0
   0665 7E                 1929 	ld	a,(hl) ; 2
   0666 FE 28              1930 	cp	a,#0x28
                           1931 ; Rule 5
   0668 CA 8A 06           1932 	jp	z,00161$
   066B                    1933 00344$:
                           1934 ; genGoto
   066B C3 A3 06           1935 	jp	00163$
                           1936 ;	rombank2.c 437
                           1937 ; genLabel
   066E                    1938 00160$:
                           1939 ; genIpush
   066E 21 3C 1A           1940 	ld	hl,#_queenClosedEyes + 0
   0671 E5                 1941 	push	hl
                           1942 ; genIpush
   0672 3E 02              1943 	ld	a,#0x02
   0674 F5                 1944 	push	af
   0675 33                 1945 	inc	sp
                           1946 ; genIpush
   0676 3E 04              1947 	ld	a,#0x04
   0678 F5                 1948 	push	af
   0679 33                 1949 	inc	sp
                           1950 ; genIpush
   067A 3E 08              1951 	ld	a,#0x08
   067C F5                 1952 	push	af
   067D 33                 1953 	inc	sp
                           1954 ; genIpush
   067E 3E 02              1955 	ld	a,#0x02
   0680 F5                 1956 	push	af
   0681 33                 1957 	inc	sp
                           1958 ; genCall
   0682 CD 00 00           1959 	call	_set_bkg_tiles
   0685 E8 06              1960 	lda	sp,6(sp)
                           1961 ;	rombank2.c 438
                           1962 ; genGoto
   0687 C3 A3 06           1963 	jp	00163$
                           1964 ;	rombank2.c 441
                           1965 ; genLabel
   068A                    1966 00161$:
                           1967 ; genIpush
   068A 21 44 1A           1968 	ld	hl,#_queenOpenEyes + 0
   068D E5                 1969 	push	hl
                           1970 ; genIpush
   068E 3E 02              1971 	ld	a,#0x02
   0690 F5                 1972 	push	af
   0691 33                 1973 	inc	sp
                           1974 ; genIpush
   0692 3E 04              1975 	ld	a,#0x04
   0694 F5                 1976 	push	af
   0695 33                 1977 	inc	sp
                           1978 ; genIpush
   0696 3E 08              1979 	ld	a,#0x08
   0698 F5                 1980 	push	af
   0699 33                 1981 	inc	sp
                           1982 ; genIpush
   069A 3E 02              1983 	ld	a,#0x02
   069C F5                 1984 	push	af
   069D 33                 1985 	inc	sp
                           1986 ; genCall
   069E CD 00 00           1987 	call	_set_bkg_tiles
   06A1 E8 06              1988 	lda	sp,6(sp)
                           1989 ;	rombank2.c 446
                           1990 ; genLabel
   06A3                    1991 00163$:
                           1992 ;	rombank2.c 449
                           1993 ; genAssign
                           1994 ; AOP_HL for _conversationIndex
   06A3 21 00 00           1995 	ld	hl,#_conversationIndex + 0
   06A6 4E                 1996 	ld	c,(hl)
                           1997 ; genPlus
   06A7 3E 00              1998 	ld	a,#<_currentConversation
   06A9 81                 1999 	add	a,c
   06AA 5F                 2000 	ld	e,a
   06AB 3E 00              2001 	ld	a,#>_currentConversation
   06AD CE 00              2002 	adc	a,#0x00
   06AF 57                 2003 	ld	d,a
                           2004 ; genPointerGet
   06B0 1A                 2005 	ld	a,(de)
   06B1 4F                 2006 	ld	c,a
                           2007 ; genCmpEq
   06B2 79                 2008 	ld	a,c
   06B3 B7                 2009 	or	a,a
                           2010 ; Rule 5
   06B4 CA 16 07           2011 	jp	z,00169$
   06B7                    2012 00345$:
                           2013 ; genCmpEq
                           2014 ; AOP_HL for _conversationIndex
   06B7 21 00 00           2015 	ld	hl,#_conversationIndex + 0
   06BA 7E                 2016 	ld	a,(hl) ; 2
   06BB FE 4D              2017 	cp	a,#0x4D
                           2018 ; Rule 5
   06BD CA 16 07           2019 	jp	z,00169$
   06C0                    2020 00346$:
                           2021 ;	rombank2.c 451
                           2022 ; genIpush
   06C0 3E 14              2023 	ld	a,#0x14
   06C2 F5                 2024 	push	af
   06C3 33                 2025 	inc	sp
                           2026 ; genIpush
                           2027 ; AOP_HL for _j
   06C4 21 00 00           2028 	ld	hl,#_j + 0
   06C7 7E                 2029 	ld	a,(hl)
   06C8 F5                 2030 	push	af
   06C9 33                 2031 	inc	sp
                           2032 ; genCall
   06CA CD 00 00           2033 	call	__moduchar
   06CD 4B                 2034 	ld	c,e
   06CE E8 02              2035 	lda	sp,2(sp)
                           2036 ; genCmpEq
   06D0 79                 2037 	ld	a,c
   06D1 B7                 2038 	or	a,a
                           2039 ; Rule 5
   06D2 CA DE 06           2040 	jp	z,00165$
   06D5                    2041 00347$:
                           2042 ; genCmpEq
   06D5 79                 2043 	ld	a,c ; 2
   06D6 FE 0A              2044 	cp	a,#0x0A
                           2045 ; Rule 5
   06D8 CA FA 06           2046 	jp	z,00166$
   06DB                    2047 00348$:
                           2048 ; genGoto
   06DB C3 08 08           2049 	jp	00184$
                           2050 ;	rombank2.c 453
                           2051 ; genLabel
   06DE                    2052 00165$:
                           2053 ; genIpush
   06DE 21 50 1A           2054 	ld	hl,#_queenMouthOpen1 + 0
   06E1 E5                 2055 	push	hl
                           2056 ; genIpush
   06E2 3E 02              2057 	ld	a,#0x02
   06E4 F5                 2058 	push	af
   06E5 33                 2059 	inc	sp
                           2060 ; genIpush
   06E6 3E 02              2061 	ld	a,#0x02
   06E8 F5                 2062 	push	af
   06E9 33                 2063 	inc	sp
                           2064 ; genIpush
   06EA 3E 0A              2065 	ld	a,#0x0A
   06EC F5                 2066 	push	af
   06ED 33                 2067 	inc	sp
                           2068 ; genIpush
   06EE 3E 03              2069 	ld	a,#0x03
   06F0 F5                 2070 	push	af
   06F1 33                 2071 	inc	sp
                           2072 ; genCall
   06F2 CD 00 00           2073 	call	_set_bkg_tiles
   06F5 E8 06              2074 	lda	sp,6(sp)
                           2075 ;	rombank2.c 454
                           2076 ; genGoto
   06F7 C3 08 08           2077 	jp	00184$
                           2078 ;	rombank2.c 456
                           2079 ; genLabel
   06FA                    2080 00166$:
                           2081 ; genIpush
   06FA 21 54 1A           2082 	ld	hl,#_queenMouthOpen2 + 0
   06FD E5                 2083 	push	hl
                           2084 ; genIpush
   06FE 3E 02              2085 	ld	a,#0x02
   0700 F5                 2086 	push	af
   0701 33                 2087 	inc	sp
                           2088 ; genIpush
   0702 3E 02              2089 	ld	a,#0x02
   0704 F5                 2090 	push	af
   0705 33                 2091 	inc	sp
                           2092 ; genIpush
   0706 3E 0A              2093 	ld	a,#0x0A
   0708 F5                 2094 	push	af
   0709 33                 2095 	inc	sp
                           2096 ; genIpush
   070A 3E 03              2097 	ld	a,#0x03
   070C F5                 2098 	push	af
   070D 33                 2099 	inc	sp
                           2100 ; genCall
   070E CD 00 00           2101 	call	_set_bkg_tiles
   0711 E8 06              2102 	lda	sp,6(sp)
                           2103 ;	rombank2.c 458
                           2104 ; genGoto
   0713 C3 08 08           2105 	jp	00184$
                           2106 ; genLabel
   0716                    2107 00169$:
                           2108 ;	rombank2.c 461
                           2109 ; genIpush
   0716 21 4C 1A           2110 	ld	hl,#_queenMouthClosed + 0
   0719 E5                 2111 	push	hl
                           2112 ; genIpush
   071A 3E 02              2113 	ld	a,#0x02
   071C F5                 2114 	push	af
   071D 33                 2115 	inc	sp
                           2116 ; genIpush
   071E 3E 02              2117 	ld	a,#0x02
   0720 F5                 2118 	push	af
   0721 33                 2119 	inc	sp
                           2120 ; genIpush
   0722 3E 0A              2121 	ld	a,#0x0A
   0724 F5                 2122 	push	af
   0725 33                 2123 	inc	sp
                           2124 ; genIpush
   0726 3E 03              2125 	ld	a,#0x03
   0728 F5                 2126 	push	af
   0729 33                 2127 	inc	sp
                           2128 ; genCall
   072A CD 00 00           2129 	call	_set_bkg_tiles
   072D E8 06              2130 	lda	sp,6(sp)
                           2131 ;	rombank2.c 463
                           2132 ; genGoto
   072F C3 08 08           2133 	jp	00184$
                           2134 ;	rombank2.c 479
                           2135 ; genLabel
   0732                    2136 00176$:
                           2137 ;	rombank2.c 468
                           2138 ; genCmpEq
                           2139 ; AOP_HL for _j
   0732 21 00 00           2140 	ld	hl,#_j + 0
   0735 7E                 2141 	ld	a,(hl) ; 2
   0736 FE 20              2142 	cp	a,#0x20
                           2143 ; Rule 5
   0738 CA 47 07           2144 	jp	z,00172$
   073B                    2145 00349$:
                           2146 ; genCmpEq
                           2147 ; AOP_HL for _j
   073B 21 00 00           2148 	ld	hl,#_j + 0
   073E 7E                 2149 	ld	a,(hl) ; 2
   073F FE 28              2150 	cp	a,#0x28
                           2151 ; Rule 5
   0741 CA 63 07           2152 	jp	z,00173$
   0744                    2153 00350$:
                           2154 ; genGoto
   0744 C3 7C 07           2155 	jp	00175$
                           2156 ;	rombank2.c 470
                           2157 ; genLabel
   0747                    2158 00172$:
                           2159 ; genIpush
   0747 21 C4 1A           2160 	ld	hl,#_princessClosedEyes + 0
   074A E5                 2161 	push	hl
                           2162 ; genIpush
   074B 3E 02              2163 	ld	a,#0x02
   074D F5                 2164 	push	af
   074E 33                 2165 	inc	sp
                           2166 ; genIpush
   074F 3E 04              2167 	ld	a,#0x04
   0751 F5                 2168 	push	af
   0752 33                 2169 	inc	sp
                           2170 ; genIpush
   0753 3E 08              2171 	ld	a,#0x08
   0755 F5                 2172 	push	af
   0756 33                 2173 	inc	sp
                           2174 ; genIpush
   0757 3E 02              2175 	ld	a,#0x02
   0759 F5                 2176 	push	af
   075A 33                 2177 	inc	sp
                           2178 ; genCall
   075B CD 00 00           2179 	call	_set_bkg_tiles
   075E E8 06              2180 	lda	sp,6(sp)
                           2181 ;	rombank2.c 471
                           2182 ; genGoto
   0760 C3 7C 07           2183 	jp	00175$
                           2184 ;	rombank2.c 474
                           2185 ; genLabel
   0763                    2186 00173$:
                           2187 ; genIpush
   0763 21 CC 1A           2188 	ld	hl,#_princessOpenEyes + 0
   0766 E5                 2189 	push	hl
                           2190 ; genIpush
   0767 3E 02              2191 	ld	a,#0x02
   0769 F5                 2192 	push	af
   076A 33                 2193 	inc	sp
                           2194 ; genIpush
   076B 3E 04              2195 	ld	a,#0x04
   076D F5                 2196 	push	af
   076E 33                 2197 	inc	sp
                           2198 ; genIpush
   076F 3E 08              2199 	ld	a,#0x08
   0771 F5                 2200 	push	af
   0772 33                 2201 	inc	sp
                           2202 ; genIpush
   0773 3E 02              2203 	ld	a,#0x02
   0775 F5                 2204 	push	af
   0776 33                 2205 	inc	sp
                           2206 ; genCall
   0777 CD 00 00           2207 	call	_set_bkg_tiles
   077A E8 06              2208 	lda	sp,6(sp)
                           2209 ;	rombank2.c 479
                           2210 ; genLabel
   077C                    2211 00175$:
                           2212 ;	rombank2.c 482
                           2213 ; genAssign
                           2214 ; AOP_HL for _conversationIndex
   077C 21 00 00           2215 	ld	hl,#_conversationIndex + 0
   077F 4E                 2216 	ld	c,(hl)
                           2217 ; genPlus
   0780 3E 00              2218 	ld	a,#<_currentConversation
   0782 81                 2219 	add	a,c
   0783 5F                 2220 	ld	e,a
   0784 3E 00              2221 	ld	a,#>_currentConversation
   0786 CE 00              2222 	adc	a,#0x00
   0788 57                 2223 	ld	d,a
                           2224 ; genPointerGet
   0789 1A                 2225 	ld	a,(de)
   078A 4F                 2226 	ld	c,a
                           2227 ; genCmpEq
   078B 79                 2228 	ld	a,c
   078C B7                 2229 	or	a,a
                           2230 ; Rule 5
   078D CA EF 07           2231 	jp	z,00181$
   0790                    2232 00351$:
                           2233 ; genCmpEq
                           2234 ; AOP_HL for _conversationIndex
   0790 21 00 00           2235 	ld	hl,#_conversationIndex + 0
   0793 7E                 2236 	ld	a,(hl) ; 2
   0794 FE 4D              2237 	cp	a,#0x4D
                           2238 ; Rule 5
   0796 CA EF 07           2239 	jp	z,00181$
   0799                    2240 00352$:
                           2241 ;	rombank2.c 484
                           2242 ; genIpush
   0799 3E 14              2243 	ld	a,#0x14
   079B F5                 2244 	push	af
   079C 33                 2245 	inc	sp
                           2246 ; genIpush
                           2247 ; AOP_HL for _j
   079D 21 00 00           2248 	ld	hl,#_j + 0
   07A0 7E                 2249 	ld	a,(hl)
   07A1 F5                 2250 	push	af
   07A2 33                 2251 	inc	sp
                           2252 ; genCall
   07A3 CD 00 00           2253 	call	__moduchar
   07A6 4B                 2254 	ld	c,e
   07A7 E8 02              2255 	lda	sp,2(sp)
                           2256 ; genCmpEq
   07A9 79                 2257 	ld	a,c
   07AA B7                 2258 	or	a,a
                           2259 ; Rule 5
   07AB CA B7 07           2260 	jp	z,00177$
   07AE                    2261 00353$:
                           2262 ; genCmpEq
   07AE 79                 2263 	ld	a,c ; 2
   07AF FE 0A              2264 	cp	a,#0x0A
                           2265 ; Rule 5
   07B1 CA D3 07           2266 	jp	z,00178$
   07B4                    2267 00354$:
                           2268 ; genGoto
   07B4 C3 08 08           2269 	jp	00184$
                           2270 ;	rombank2.c 486
                           2271 ; genLabel
   07B7                    2272 00177$:
                           2273 ; genIpush
   07B7 21 D8 1A           2274 	ld	hl,#_princessMouthOpen1 + 0
   07BA E5                 2275 	push	hl
                           2276 ; genIpush
   07BB 3E 02              2277 	ld	a,#0x02
   07BD F5                 2278 	push	af
   07BE 33                 2279 	inc	sp
                           2280 ; genIpush
   07BF 3E 02              2281 	ld	a,#0x02
   07C1 F5                 2282 	push	af
   07C2 33                 2283 	inc	sp
                           2284 ; genIpush
   07C3 3E 0A              2285 	ld	a,#0x0A
   07C5 F5                 2286 	push	af
   07C6 33                 2287 	inc	sp
                           2288 ; genIpush
   07C7 3E 03              2289 	ld	a,#0x03
   07C9 F5                 2290 	push	af
   07CA 33                 2291 	inc	sp
                           2292 ; genCall
   07CB CD 00 00           2293 	call	_set_bkg_tiles
   07CE E8 06              2294 	lda	sp,6(sp)
                           2295 ;	rombank2.c 487
                           2296 ; genGoto
   07D0 C3 08 08           2297 	jp	00184$
                           2298 ;	rombank2.c 489
                           2299 ; genLabel
   07D3                    2300 00178$:
                           2301 ; genIpush
   07D3 21 DC 1A           2302 	ld	hl,#_princessMouthOpen2 + 0
   07D6 E5                 2303 	push	hl
                           2304 ; genIpush
   07D7 3E 02              2305 	ld	a,#0x02
   07D9 F5                 2306 	push	af
   07DA 33                 2307 	inc	sp
                           2308 ; genIpush
   07DB 3E 02              2309 	ld	a,#0x02
   07DD F5                 2310 	push	af
   07DE 33                 2311 	inc	sp
                           2312 ; genIpush
   07DF 3E 0A              2313 	ld	a,#0x0A
   07E1 F5                 2314 	push	af
   07E2 33                 2315 	inc	sp
                           2316 ; genIpush
   07E3 3E 03              2317 	ld	a,#0x03
   07E5 F5                 2318 	push	af
   07E6 33                 2319 	inc	sp
                           2320 ; genCall
   07E7 CD 00 00           2321 	call	_set_bkg_tiles
   07EA E8 06              2322 	lda	sp,6(sp)
                           2323 ;	rombank2.c 491
                           2324 ; genGoto
   07EC C3 08 08           2325 	jp	00184$
                           2326 ; genLabel
   07EF                    2327 00181$:
                           2328 ;	rombank2.c 494
                           2329 ; genIpush
   07EF 21 D4 1A           2330 	ld	hl,#_princessMouthClosed + 0
   07F2 E5                 2331 	push	hl
                           2332 ; genIpush
   07F3 3E 02              2333 	ld	a,#0x02
   07F5 F5                 2334 	push	af
   07F6 33                 2335 	inc	sp
                           2336 ; genIpush
   07F7 3E 02              2337 	ld	a,#0x02
   07F9 F5                 2338 	push	af
   07FA 33                 2339 	inc	sp
                           2340 ; genIpush
   07FB 3E 0A              2341 	ld	a,#0x0A
   07FD F5                 2342 	push	af
   07FE 33                 2343 	inc	sp
                           2344 ; genIpush
   07FF 3E 03              2345 	ld	a,#0x03
   0801 F5                 2346 	push	af
   0802 33                 2347 	inc	sp
                           2348 ; genCall
   0803 CD 00 00           2349 	call	_set_bkg_tiles
   0806 E8 06              2350 	lda	sp,6(sp)
                           2351 ;	rombank2.c 500
                           2352 ; genLabel
   0808                    2353 00184$:
                           2354 ;	rombank2.c 504
                           2355 ; genOr
                           2356 ; AOP_SFR for _LCDC_REG
                           2357 ; Type res[4] = l[4]&r[1]
                           2358 ; Size res[1] = l[1]&r[1]
   0808 F0 00              2359 	ldh	a,(_LCDC_REG+0) ; x
   080A F6 01              2360 	or	a,#0x01
   080C E0 00              2361 	ldh	(_LCDC_REG+0),a
                           2362 ;	rombank2.c 505
                           2363 ; genOr
                           2364 ; AOP_SFR for _LCDC_REG
                           2365 ; Type res[4] = l[4]&r[1]
                           2366 ; Size res[1] = l[1]&r[1]
   080E F0 00              2367 	ldh	a,(_LCDC_REG+0) ; x
   0810 F6 02              2368 	or	a,#0x02
   0812 E0 00              2369 	ldh	(_LCDC_REG+0),a
                           2370 ;	rombank2.c 506
                           2371 ; genAnd
                           2372 ; AOP_SFR for _LCDC_REG
   0814 F0 00              2373 	ldh	a,(_LCDC_REG+0) ; x
   0816 E6 DF              2374 	and	a,#0xDF
   0818 E0 00              2375 	ldh	(_LCDC_REG+0),a
                           2376 ; genLabel
   081A                    2377 00228$:
                           2378 ; genEndFunction
   081A E8 01              2379 	lda	sp,1(sp)
   081C C1                 2380 	pop bc
   081D C9                 2381 	ret
   081E                    2382 ___updateGame_end:
                           2383 ;	rombank2.c 512
                           2384 ; genLabel
                           2385 ; genFunction
                           2386 ;	---------------------------------
                           2387 ; Function nextConversation
                           2388 ; ---------------------------------
   081E                    2389 ___nextConversation_start:
   081E                    2390 _nextConversation:
   081E C5                 2391 	push	bc
                           2392 ;	rombank2.c 514
                           2393 ; genCmpEq
                           2394 ; AOP_HL for _conversationID
   081F 21 00 00           2395 	ld	hl,#_conversationID + 0
   0822 7E                 2396 	ld	a,(hl)
   0823 B7                 2397 	or	a,a
                           2398 ; Rule 5
   0824 CA 84 08           2399 	jp	z,00101$
   0827                    2400 00126$:
                           2401 ; genCmpEq
                           2402 ; AOP_HL for _conversationID
   0827 21 00 00           2403 	ld	hl,#_conversationID + 0
   082A 7E                 2404 	ld	a,(hl) ; 2
   082B FE 01              2405 	cp	a,#0x01
                           2406 ; Rule 5
   082D CA 98 08           2407 	jp	z,00102$
   0830                    2408 00127$:
                           2409 ; genCmpEq
                           2410 ; AOP_HL for _conversationID
   0830 21 00 00           2411 	ld	hl,#_conversationID + 0
   0833 7E                 2412 	ld	a,(hl) ; 2
   0834 FE 02              2413 	cp	a,#0x02
                           2414 ; Rule 5
   0836 CA AC 08           2415 	jp	z,00103$
   0839                    2416 00128$:
                           2417 ; genCmpEq
                           2418 ; AOP_HL for _conversationID
   0839 21 00 00           2419 	ld	hl,#_conversationID + 0
   083C 7E                 2420 	ld	a,(hl) ; 2
   083D FE 03              2421 	cp	a,#0x03
                           2422 ; Rule 5
   083F CA C0 08           2423 	jp	z,00104$
   0842                    2424 00129$:
                           2425 ; genCmpEq
                           2426 ; AOP_HL for _conversationID
   0842 21 00 00           2427 	ld	hl,#_conversationID + 0
   0845 7E                 2428 	ld	a,(hl) ; 2
   0846 FE 04              2429 	cp	a,#0x04
                           2430 ; Rule 5
   0848 CA D4 08           2431 	jp	z,00105$
   084B                    2432 00130$:
                           2433 ; genCmpEq
                           2434 ; AOP_HL for _conversationID
   084B 21 00 00           2435 	ld	hl,#_conversationID + 0
   084E 7E                 2436 	ld	a,(hl) ; 2
   084F FE 0A              2437 	cp	a,#0x0A
                           2438 ; Rule 5
   0851 CA E8 08           2439 	jp	z,00106$
   0854                    2440 00131$:
                           2441 ; genCmpEq
                           2442 ; AOP_HL for _conversationID
   0854 21 00 00           2443 	ld	hl,#_conversationID + 0
   0857 7E                 2444 	ld	a,(hl) ; 2
   0858 FE 0B              2445 	cp	a,#0x0B
                           2446 ; Rule 5
   085A CA FC 08           2447 	jp	z,00107$
   085D                    2448 00132$:
                           2449 ; genCmpEq
                           2450 ; AOP_HL for _conversationID
   085D 21 00 00           2451 	ld	hl,#_conversationID + 0
   0860 7E                 2452 	ld	a,(hl) ; 2
   0861 FE 0C              2453 	cp	a,#0x0C
                           2454 ; Rule 5
   0863 CA 10 09           2455 	jp	z,00108$
   0866                    2456 00133$:
                           2457 ; genCmpEq
                           2458 ; AOP_HL for _conversationID
   0866 21 00 00           2459 	ld	hl,#_conversationID + 0
   0869 7E                 2460 	ld	a,(hl) ; 2
   086A FE 14              2461 	cp	a,#0x14
                           2462 ; Rule 5
   086C CA 24 09           2463 	jp	z,00109$
   086F                    2464 00134$:
                           2465 ; genCmpEq
                           2466 ; AOP_HL for _conversationID
   086F 21 00 00           2467 	ld	hl,#_conversationID + 0
   0872 7E                 2468 	ld	a,(hl) ; 2
   0873 FE 15              2469 	cp	a,#0x15
                           2470 ; Rule 5
   0875 CA 38 09           2471 	jp	z,00110$
   0878                    2472 00135$:
                           2473 ; genCmpEq
                           2474 ; AOP_HL for _conversationID
   0878 21 00 00           2475 	ld	hl,#_conversationID + 0
   087B 7E                 2476 	ld	a,(hl) ; 2
   087C FE 16              2477 	cp	a,#0x16
                           2478 ; Rule 5
   087E CA 4C 09           2479 	jp	z,00111$
   0881                    2480 00136$:
                           2481 ; genGoto
   0881 C3 5D 09           2482 	jp	00113$
                           2483 ;	rombank2.c 516
                           2484 ; genLabel
   0884                    2485 00101$:
                           2486 ; genIpush
   0884 21 4D 00           2487 	ld	hl,#0x004D
   0887 E5                 2488 	push	hl
                           2489 ; genIpush
   0888 21 66 1B           2490 	ld	hl,#_conversation11 + 0
   088B E5                 2491 	push	hl
                           2492 ; genIpush
   088C 21 00 00           2493 	ld	hl,#_currentConversation + 0
   088F E5                 2494 	push	hl
                           2495 ; genCall
   0890 CD 00 00           2496 	call	_memcpy
   0893 E8 06              2497 	lda	sp,6(sp)
                           2498 ;	rombank2.c 517
                           2499 ; genGoto
   0895 C3 5D 09           2500 	jp	00113$
                           2501 ;	rombank2.c 520
                           2502 ; genLabel
   0898                    2503 00102$:
                           2504 ; genIpush
   0898 21 4D 00           2505 	ld	hl,#0x004D
   089B E5                 2506 	push	hl
                           2507 ; genIpush
   089C 21 B3 1B           2508 	ld	hl,#_conversation12 + 0
   089F E5                 2509 	push	hl
                           2510 ; genIpush
   08A0 21 00 00           2511 	ld	hl,#_currentConversation + 0
   08A3 E5                 2512 	push	hl
                           2513 ; genCall
   08A4 CD 00 00           2514 	call	_memcpy
   08A7 E8 06              2515 	lda	sp,6(sp)
                           2516 ;	rombank2.c 521
                           2517 ; genGoto
   08A9 C3 5D 09           2518 	jp	00113$
                           2519 ;	rombank2.c 524
                           2520 ; genLabel
   08AC                    2521 00103$:
                           2522 ; genIpush
   08AC 21 4D 00           2523 	ld	hl,#0x004D
   08AF E5                 2524 	push	hl
                           2525 ; genIpush
   08B0 21 00 1C           2526 	ld	hl,#_conversation13 + 0
   08B3 E5                 2527 	push	hl
                           2528 ; genIpush
   08B4 21 00 00           2529 	ld	hl,#_currentConversation + 0
   08B7 E5                 2530 	push	hl
                           2531 ; genCall
   08B8 CD 00 00           2532 	call	_memcpy
   08BB E8 06              2533 	lda	sp,6(sp)
                           2534 ;	rombank2.c 525
                           2535 ; genGoto
   08BD C3 5D 09           2536 	jp	00113$
                           2537 ;	rombank2.c 528
                           2538 ; genLabel
   08C0                    2539 00104$:
                           2540 ; genIpush
   08C0 21 4D 00           2541 	ld	hl,#0x004D
   08C3 E5                 2542 	push	hl
                           2543 ; genIpush
   08C4 21 4D 1C           2544 	ld	hl,#_conversation14 + 0
   08C7 E5                 2545 	push	hl
                           2546 ; genIpush
   08C8 21 00 00           2547 	ld	hl,#_currentConversation + 0
   08CB E5                 2548 	push	hl
                           2549 ; genCall
   08CC CD 00 00           2550 	call	_memcpy
   08CF E8 06              2551 	lda	sp,6(sp)
                           2552 ;	rombank2.c 529
                           2553 ; genGoto
   08D1 C3 5D 09           2554 	jp	00113$
                           2555 ;	rombank2.c 532
                           2556 ; genLabel
   08D4                    2557 00105$:
                           2558 ; genIpush
   08D4 21 4D 00           2559 	ld	hl,#0x004D
   08D7 E5                 2560 	push	hl
                           2561 ; genIpush
   08D8 21 9A 1C           2562 	ld	hl,#_conversation15 + 0
   08DB E5                 2563 	push	hl
                           2564 ; genIpush
   08DC 21 00 00           2565 	ld	hl,#_currentConversation + 0
   08DF E5                 2566 	push	hl
                           2567 ; genCall
   08E0 CD 00 00           2568 	call	_memcpy
   08E3 E8 06              2569 	lda	sp,6(sp)
                           2570 ;	rombank2.c 533
                           2571 ; genGoto
   08E5 C3 5D 09           2572 	jp	00113$
                           2573 ;	rombank2.c 536
                           2574 ; genLabel
   08E8                    2575 00106$:
                           2576 ; genIpush
   08E8 21 4D 00           2577 	ld	hl,#0x004D
   08EB E5                 2578 	push	hl
                           2579 ; genIpush
   08EC 21 E7 1C           2580 	ld	hl,#_conversation21 + 0
   08EF E5                 2581 	push	hl
                           2582 ; genIpush
   08F0 21 00 00           2583 	ld	hl,#_currentConversation + 0
   08F3 E5                 2584 	push	hl
                           2585 ; genCall
   08F4 CD 00 00           2586 	call	_memcpy
   08F7 E8 06              2587 	lda	sp,6(sp)
                           2588 ;	rombank2.c 537
                           2589 ; genGoto
   08F9 C3 5D 09           2590 	jp	00113$
                           2591 ;	rombank2.c 540
                           2592 ; genLabel
   08FC                    2593 00107$:
                           2594 ; genIpush
   08FC 21 4D 00           2595 	ld	hl,#0x004D
   08FF E5                 2596 	push	hl
                           2597 ; genIpush
   0900 21 34 1D           2598 	ld	hl,#_conversation22 + 0
   0903 E5                 2599 	push	hl
                           2600 ; genIpush
   0904 21 00 00           2601 	ld	hl,#_currentConversation + 0
   0907 E5                 2602 	push	hl
                           2603 ; genCall
   0908 CD 00 00           2604 	call	_memcpy
   090B E8 06              2605 	lda	sp,6(sp)
                           2606 ;	rombank2.c 541
                           2607 ; genGoto
   090D C3 5D 09           2608 	jp	00113$
                           2609 ;	rombank2.c 544
                           2610 ; genLabel
   0910                    2611 00108$:
                           2612 ; genIpush
   0910 21 4D 00           2613 	ld	hl,#0x004D
   0913 E5                 2614 	push	hl
                           2615 ; genIpush
   0914 21 81 1D           2616 	ld	hl,#_conversation23 + 0
   0917 E5                 2617 	push	hl
                           2618 ; genIpush
   0918 21 00 00           2619 	ld	hl,#_currentConversation + 0
   091B E5                 2620 	push	hl
                           2621 ; genCall
   091C CD 00 00           2622 	call	_memcpy
   091F E8 06              2623 	lda	sp,6(sp)
                           2624 ;	rombank2.c 545
                           2625 ; genGoto
   0921 C3 5D 09           2626 	jp	00113$
                           2627 ;	rombank2.c 548
                           2628 ; genLabel
   0924                    2629 00109$:
                           2630 ; genIpush
   0924 21 4D 00           2631 	ld	hl,#0x004D
   0927 E5                 2632 	push	hl
                           2633 ; genIpush
   0928 21 CE 1D           2634 	ld	hl,#_conversation31 + 0
   092B E5                 2635 	push	hl
                           2636 ; genIpush
   092C 21 00 00           2637 	ld	hl,#_currentConversation + 0
   092F E5                 2638 	push	hl
                           2639 ; genCall
   0930 CD 00 00           2640 	call	_memcpy
   0933 E8 06              2641 	lda	sp,6(sp)
                           2642 ;	rombank2.c 549
                           2643 ; genGoto
   0935 C3 5D 09           2644 	jp	00113$
                           2645 ;	rombank2.c 552
                           2646 ; genLabel
   0938                    2647 00110$:
                           2648 ; genIpush
   0938 21 4D 00           2649 	ld	hl,#0x004D
   093B E5                 2650 	push	hl
                           2651 ; genIpush
   093C 21 1B 1E           2652 	ld	hl,#_conversation32 + 0
   093F E5                 2653 	push	hl
                           2654 ; genIpush
   0940 21 00 00           2655 	ld	hl,#_currentConversation + 0
   0943 E5                 2656 	push	hl
                           2657 ; genCall
   0944 CD 00 00           2658 	call	_memcpy
   0947 E8 06              2659 	lda	sp,6(sp)
                           2660 ;	rombank2.c 553
                           2661 ; genGoto
   0949 C3 5D 09           2662 	jp	00113$
                           2663 ;	rombank2.c 556
                           2664 ; genLabel
   094C                    2665 00111$:
                           2666 ; genIpush
   094C 21 4D 00           2667 	ld	hl,#0x004D
   094F E5                 2668 	push	hl
                           2669 ; genIpush
   0950 21 68 1E           2670 	ld	hl,#_conversation33 + 0
   0953 E5                 2671 	push	hl
                           2672 ; genIpush
   0954 21 00 00           2673 	ld	hl,#_currentConversation + 0
   0957 E5                 2674 	push	hl
                           2675 ; genCall
   0958 CD 00 00           2676 	call	_memcpy
   095B E8 06              2677 	lda	sp,6(sp)
                           2678 ;	rombank2.c 559
                           2679 ; genLabel
   095D                    2680 00113$:
                           2681 ; genEndFunction
   095D C1                 2682 	pop	bc
   095E C9                 2683 	ret
   095F                    2684 ___nextConversation_end:
                           2685 	.area _CODE_2
   095F                    2686 _skipSprites:
   095F 00                 2687 	.db #0x00
   0960 00                 2688 	.db #0x00
   0961 77                 2689 	.db #0x77
   0962 77                 2690 	.db #0x77
   0963 55                 2691 	.db #0x55
   0964 55                 2692 	.db #0x55
   0965 55                 2693 	.db #0x55
   0966 55                 2694 	.db #0x55
   0967 66                 2695 	.db #0x66
   0968 66                 2696 	.db #0x66
   0969 45                 2697 	.db #0x45
   096A 45                 2698 	.db #0x45
   096B 45                 2699 	.db #0x45
   096C 45                 2700 	.db #0x45
   096D 00                 2701 	.db #0x00
   096E 00                 2702 	.db #0x00
   096F 00                 2703 	.db #0x00
   0970 00                 2704 	.db #0x00
   0971 77                 2705 	.db #0x77
   0972 77                 2706 	.db #0x77
   0973 44                 2707 	.db #0x44
   0974 44                 2708 	.db #0x44
   0975 44                 2709 	.db #0x44
   0976 44                 2710 	.db #0x44
   0977 77                 2711 	.db #0x77
   0978 77                 2712 	.db #0x77
   0979 41                 2713 	.db #0x41
   097A 41                 2714 	.db #0x41
   097B 77                 2715 	.db #0x77
   097C 77                 2716 	.db #0x77
   097D 00                 2717 	.db #0x00
   097E 00                 2718 	.db #0x00
   097F 00                 2719 	.db #0x00
   0980 00                 2720 	.db #0x00
   0981 70                 2721 	.db #0x70
   0982 70                 2722 	.db #0x70
   0983 40                 2723 	.db #0x40
   0984 40                 2724 	.db #0x40
   0985 40                 2725 	.db #0x40
   0986 40                 2726 	.db #0x40
   0987 70                 2727 	.db #0x70
   0988 70                 2728 	.db #0x70
   0989 10                 2729 	.db #0x10
   098A 10                 2730 	.db #0x10
   098B 70                 2731 	.db #0x70
   098C 70                 2732 	.db #0x70
   098D 00                 2733 	.db #0x00
   098E 00                 2734 	.db #0x00
   098F 3F                 2735 	.db #0x3F
   0990 3F                 2736 	.db #0x3F
   0991 40                 2737 	.db #0x40
   0992 40                 2738 	.db #0x40
   0993 5E                 2739 	.db #0x5E
   0994 5E                 2740 	.db #0x5E
   0995 52                 2741 	.db #0x52
   0996 52                 2742 	.db #0x52
   0997 5E                 2743 	.db #0x5E
   0998 5E                 2744 	.db #0x5E
   0999 52                 2745 	.db #0x52
   099A 52                 2746 	.db #0x52
   099B 40                 2747 	.db #0x40
   099C 40                 2748 	.db #0x40
   099D 3F                 2749 	.db #0x3F
   099E 3F                 2750 	.db #0x3F
   099F 00                 2751 	.db #0x00
   09A0 00                 2752 	.db #0x00
   09A1 87                 2753 	.db #0x87
   09A2 87                 2754 	.db #0x87
   09A3 82                 2755 	.db #0x82
   09A4 82                 2756 	.db #0x82
   09A5 82                 2757 	.db #0x82
   09A6 82                 2758 	.db #0x82
   09A7 82                 2759 	.db #0x82
   09A8 82                 2760 	.db #0x82
   09A9 82                 2761 	.db #0x82
   09AA 82                 2762 	.db #0x82
   09AB 82                 2763 	.db #0x82
   09AC 82                 2764 	.db #0x82
   09AD 00                 2765 	.db #0x00
   09AE 00                 2766 	.db #0x00
   09AF 00                 2767 	.db #0x00
   09B0 00                 2768 	.db #0x00
   09B1 70                 2769 	.db #0x70
   09B2 70                 2770 	.db #0x70
   09B3 50                 2771 	.db #0x50
   09B4 50                 2772 	.db #0x50
   09B5 50                 2773 	.db #0x50
   09B6 50                 2774 	.db #0x50
   09B7 50                 2775 	.db #0x50
   09B8 50                 2776 	.db #0x50
   09B9 50                 2777 	.db #0x50
   09BA 50                 2778 	.db #0x50
   09BB 70                 2779 	.db #0x70
   09BC 70                 2780 	.db #0x70
   09BD 00                 2781 	.db #0x00
   09BE 00                 2782 	.db #0x00
   09BF 00                 2783 	.db #0x00
   09C0 00                 2784 	.db #0x00
   09C1 EA                 2785 	.db #0xEA
   09C2 EA                 2786 	.db #0xEA
   09C3 8A                 2787 	.db #0x8A
   09C4 8A                 2788 	.db #0x8A
   09C5 8A                 2789 	.db #0x8A
   09C6 8A                 2790 	.db #0x8A
   09C7 EC                 2791 	.db #0xEC
   09C8 EC                 2792 	.db #0xEC
   09C9 2A                 2793 	.db #0x2A
   09CA 2A                 2794 	.db #0x2A
   09CB EA                 2795 	.db #0xEA
   09CC EA                 2796 	.db #0xEA
   09CD 00                 2797 	.db #0x00
   09CE 00                 2798 	.db #0x00
   09CF 00                 2799 	.db #0x00
   09D0 00                 2800 	.db #0x00
   09D1 EE                 2801 	.db #0xEE
   09D2 EE                 2802 	.db #0xEE
   09D3 4A                 2803 	.db #0x4A
   09D4 4A                 2804 	.db #0x4A
   09D5 4A                 2805 	.db #0x4A
   09D6 4A                 2806 	.db #0x4A
   09D7 4C                 2807 	.db #0x4C
   09D8 4C                 2808 	.db #0x4C
   09D9 48                 2809 	.db #0x48
   09DA 48                 2810 	.db #0x48
   09DB E8                 2811 	.db #0xE8
   09DC E8                 2812 	.db #0xE8
   09DD 00                 2813 	.db #0x00
   09DE 00                 2814 	.db #0x00
   09DF                    2815 _intermissionBkgData:
   09DF 00                 2816 	.db #0x00
   09E0 00                 2817 	.db #0x00
   09E1 00                 2818 	.db #0x00
   09E2 00                 2819 	.db #0x00
   09E3 00                 2820 	.db #0x00
   09E4 00                 2821 	.db #0x00
   09E5 00                 2822 	.db #0x00
   09E6 00                 2823 	.db #0x00
   09E7 00                 2824 	.db #0x00
   09E8 00                 2825 	.db #0x00
   09E9 00                 2826 	.db #0x00
   09EA 00                 2827 	.db #0x00
   09EB 00                 2828 	.db #0x00
   09EC 00                 2829 	.db #0x00
   09ED 00                 2830 	.db #0x00
   09EE 00                 2831 	.db #0x00
   09EF 00                 2832 	.db #0x00
   09F0 00                 2833 	.db #0x00
   09F1 18                 2834 	.db #0x18
   09F2 18                 2835 	.db #0x18
   09F3 3D                 2836 	.db #0x3D
   09F4 25                 2837 	.db #0x25
   09F5 6B                 2838 	.db #0x6B
   09F6 46                 2839 	.db #0x46
   09F7 73                 2840 	.db #0x73
   09F8 4E                 2841 	.db #0x4E
   09F9 27                 2842 	.db #0x27
   09FA 3C                 2843 	.db #0x3C
   09FB 1F                 2844 	.db #0x1F
   09FC 18                 2845 	.db #0x18
   09FD 3F                 2846 	.db #0x3F
   09FE 20                 2847 	.db #0x20
   09FF 00                 2848 	.db #0x00
   0A00 00                 2849 	.db #0x00
   0A01 18                 2850 	.db #0x18
   0A02 18                 2851 	.db #0x18
   0A03 BC                 2852 	.db #0xBC
   0A04 A4                 2853 	.db #0xA4
   0A05 D6                 2854 	.db #0xD6
   0A06 62                 2855 	.db #0x62
   0A07 CE                 2856 	.db #0xCE
   0A08 72                 2857 	.db #0x72
   0A09 E4                 2858 	.db #0xE4
   0A0A 3C                 2859 	.db #0x3C
   0A0B F8                 2860 	.db #0xF8
   0A0C 18                 2861 	.db #0x18
   0A0D FC                 2862 	.db #0xFC
   0A0E 04                 2863 	.db #0x04
   0A0F 3F                 2864 	.db #0x3F
   0A10 20                 2865 	.db #0x20
   0A11 1F                 2866 	.db #0x1F
   0A12 18                 2867 	.db #0x18
   0A13 27                 2868 	.db #0x27
   0A14 3C                 2869 	.db #0x3C
   0A15 73                 2870 	.db #0x73
   0A16 4E                 2871 	.db #0x4E
   0A17 6B                 2872 	.db #0x6B
   0A18 46                 2873 	.db #0x46
   0A19 3D                 2874 	.db #0x3D
   0A1A 25                 2875 	.db #0x25
   0A1B 18                 2876 	.db #0x18
   0A1C 18                 2877 	.db #0x18
   0A1D 00                 2878 	.db #0x00
   0A1E 00                 2879 	.db #0x00
   0A1F FC                 2880 	.db #0xFC
   0A20 04                 2881 	.db #0x04
   0A21 F8                 2882 	.db #0xF8
   0A22 18                 2883 	.db #0x18
   0A23 E4                 2884 	.db #0xE4
   0A24 3C                 2885 	.db #0x3C
   0A25 CE                 2886 	.db #0xCE
   0A26 72                 2887 	.db #0x72
   0A27 D6                 2888 	.db #0xD6
   0A28 62                 2889 	.db #0x62
   0A29 BC                 2890 	.db #0xBC
   0A2A A4                 2891 	.db #0xA4
   0A2B 18                 2892 	.db #0x18
   0A2C 18                 2893 	.db #0x18
   0A2D 00                 2894 	.db #0x00
   0A2E 00                 2895 	.db #0x00
   0A2F 00                 2896 	.db #0x00
   0A30 00                 2897 	.db #0x00
   0A31 00                 2898 	.db #0x00
   0A32 00                 2899 	.db #0x00
   0A33 FF                 2900 	.db #0xFF
   0A34 FF                 2901 	.db #0xFF
   0A35 FF                 2902 	.db #0xFF
   0A36 00                 2903 	.db #0x00
   0A37 00                 2904 	.db #0x00
   0A38 00                 2905 	.db #0x00
   0A39 FF                 2906 	.db #0xFF
   0A3A 00                 2907 	.db #0x00
   0A3B FF                 2908 	.db #0xFF
   0A3C 00                 2909 	.db #0x00
   0A3D FF                 2910 	.db #0xFF
   0A3E FF                 2911 	.db #0xFF
   0A3F EC                 2912 	.db #0xEC
   0A40 84                 2913 	.db #0x84
   0A41 EC                 2914 	.db #0xEC
   0A42 84                 2915 	.db #0x84
   0A43 EC                 2916 	.db #0xEC
   0A44 84                 2917 	.db #0x84
   0A45 EC                 2918 	.db #0xEC
   0A46 84                 2919 	.db #0x84
   0A47 EC                 2920 	.db #0xEC
   0A48 84                 2921 	.db #0x84
   0A49 EC                 2922 	.db #0xEC
   0A4A 84                 2923 	.db #0x84
   0A4B EC                 2924 	.db #0xEC
   0A4C 84                 2925 	.db #0x84
   0A4D EC                 2926 	.db #0xEC
   0A4E 84                 2927 	.db #0x84
   0A4F FF                 2928 	.db #0xFF
   0A50 FF                 2929 	.db #0xFF
   0A51 FF                 2930 	.db #0xFF
   0A52 00                 2931 	.db #0x00
   0A53 FF                 2932 	.db #0xFF
   0A54 00                 2933 	.db #0x00
   0A55 00                 2934 	.db #0x00
   0A56 00                 2935 	.db #0x00
   0A57 FF                 2936 	.db #0xFF
   0A58 00                 2937 	.db #0x00
   0A59 FF                 2938 	.db #0xFF
   0A5A FF                 2939 	.db #0xFF
   0A5B 00                 2940 	.db #0x00
   0A5C 00                 2941 	.db #0x00
   0A5D 00                 2942 	.db #0x00
   0A5E 00                 2943 	.db #0x00
   0A5F 37                 2944 	.db #0x37
   0A60 21                 2945 	.db #0x21
   0A61 37                 2946 	.db #0x37
   0A62 21                 2947 	.db #0x21
   0A63 37                 2948 	.db #0x37
   0A64 21                 2949 	.db #0x21
   0A65 37                 2950 	.db #0x37
   0A66 21                 2951 	.db #0x21
   0A67 37                 2952 	.db #0x37
   0A68 21                 2953 	.db #0x21
   0A69 37                 2954 	.db #0x37
   0A6A 21                 2955 	.db #0x21
   0A6B 37                 2956 	.db #0x37
   0A6C 21                 2957 	.db #0x21
   0A6D 37                 2958 	.db #0x37
   0A6E 21                 2959 	.db #0x21
   0A6F 00                 2960 	.db #0x00
   0A70 00                 2961 	.db #0x00
   0A71 38                 2962 	.db #0x38
   0A72 38                 2963 	.db #0x38
   0A73 6C                 2964 	.db #0x6C
   0A74 6C                 2965 	.db #0x6C
   0A75 C6                 2966 	.db #0xC6
   0A76 C6                 2967 	.db #0xC6
   0A77 C6                 2968 	.db #0xC6
   0A78 C6                 2969 	.db #0xC6
   0A79 FE                 2970 	.db #0xFE
   0A7A FE                 2971 	.db #0xFE
   0A7B C6                 2972 	.db #0xC6
   0A7C C6                 2973 	.db #0xC6
   0A7D C6                 2974 	.db #0xC6
   0A7E C6                 2975 	.db #0xC6
   0A7F 00                 2976 	.db #0x00
   0A80 00                 2977 	.db #0x00
   0A81 FC                 2978 	.db #0xFC
   0A82 FC                 2979 	.db #0xFC
   0A83 C6                 2980 	.db #0xC6
   0A84 C6                 2981 	.db #0xC6
   0A85 C6                 2982 	.db #0xC6
   0A86 C6                 2983 	.db #0xC6
   0A87 FC                 2984 	.db #0xFC
   0A88 FC                 2985 	.db #0xFC
   0A89 C6                 2986 	.db #0xC6
   0A8A C6                 2987 	.db #0xC6
   0A8B C6                 2988 	.db #0xC6
   0A8C C6                 2989 	.db #0xC6
   0A8D FC                 2990 	.db #0xFC
   0A8E FC                 2991 	.db #0xFC
   0A8F 00                 2992 	.db #0x00
   0A90 00                 2993 	.db #0x00
   0A91 3C                 2994 	.db #0x3C
   0A92 3C                 2995 	.db #0x3C
   0A93 66                 2996 	.db #0x66
   0A94 66                 2997 	.db #0x66
   0A95 C0                 2998 	.db #0xC0
   0A96 C0                 2999 	.db #0xC0
   0A97 C0                 3000 	.db #0xC0
   0A98 C0                 3001 	.db #0xC0
   0A99 C0                 3002 	.db #0xC0
   0A9A C0                 3003 	.db #0xC0
   0A9B 66                 3004 	.db #0x66
   0A9C 66                 3005 	.db #0x66
   0A9D 3C                 3006 	.db #0x3C
   0A9E 3C                 3007 	.db #0x3C
   0A9F 00                 3008 	.db #0x00
   0AA0 00                 3009 	.db #0x00
   0AA1 F8                 3010 	.db #0xF8
   0AA2 F8                 3011 	.db #0xF8
   0AA3 CC                 3012 	.db #0xCC
   0AA4 CC                 3013 	.db #0xCC
   0AA5 C6                 3014 	.db #0xC6
   0AA6 C6                 3015 	.db #0xC6
   0AA7 C6                 3016 	.db #0xC6
   0AA8 C6                 3017 	.db #0xC6
   0AA9 C6                 3018 	.db #0xC6
   0AAA C6                 3019 	.db #0xC6
   0AAB CC                 3020 	.db #0xCC
   0AAC CC                 3021 	.db #0xCC
   0AAD F8                 3022 	.db #0xF8
   0AAE F8                 3023 	.db #0xF8
   0AAF 00                 3024 	.db #0x00
   0AB0 00                 3025 	.db #0x00
   0AB1 FE                 3026 	.db #0xFE
   0AB2 FE                 3027 	.db #0xFE
   0AB3 C0                 3028 	.db #0xC0
   0AB4 C0                 3029 	.db #0xC0
   0AB5 C0                 3030 	.db #0xC0
   0AB6 C0                 3031 	.db #0xC0
   0AB7 FC                 3032 	.db #0xFC
   0AB8 FC                 3033 	.db #0xFC
   0AB9 C0                 3034 	.db #0xC0
   0ABA C0                 3035 	.db #0xC0
   0ABB C0                 3036 	.db #0xC0
   0ABC C0                 3037 	.db #0xC0
   0ABD FE                 3038 	.db #0xFE
   0ABE FE                 3039 	.db #0xFE
   0ABF 00                 3040 	.db #0x00
   0AC0 00                 3041 	.db #0x00
   0AC1 FE                 3042 	.db #0xFE
   0AC2 FE                 3043 	.db #0xFE
   0AC3 C0                 3044 	.db #0xC0
   0AC4 C0                 3045 	.db #0xC0
   0AC5 C0                 3046 	.db #0xC0
   0AC6 C0                 3047 	.db #0xC0
   0AC7 FC                 3048 	.db #0xFC
   0AC8 FC                 3049 	.db #0xFC
   0AC9 C0                 3050 	.db #0xC0
   0ACA C0                 3051 	.db #0xC0
   0ACB C0                 3052 	.db #0xC0
   0ACC C0                 3053 	.db #0xC0
   0ACD C0                 3054 	.db #0xC0
   0ACE C0                 3055 	.db #0xC0
   0ACF 00                 3056 	.db #0x00
   0AD0 00                 3057 	.db #0x00
   0AD1 3E                 3058 	.db #0x3E
   0AD2 3E                 3059 	.db #0x3E
   0AD3 60                 3060 	.db #0x60
   0AD4 60                 3061 	.db #0x60
   0AD5 C0                 3062 	.db #0xC0
   0AD6 C0                 3063 	.db #0xC0
   0AD7 CE                 3064 	.db #0xCE
   0AD8 CE                 3065 	.db #0xCE
   0AD9 C6                 3066 	.db #0xC6
   0ADA C6                 3067 	.db #0xC6
   0ADB 66                 3068 	.db #0x66
   0ADC 66                 3069 	.db #0x66
   0ADD 3E                 3070 	.db #0x3E
   0ADE 3E                 3071 	.db #0x3E
   0ADF 00                 3072 	.db #0x00
   0AE0 00                 3073 	.db #0x00
   0AE1 C6                 3074 	.db #0xC6
   0AE2 C6                 3075 	.db #0xC6
   0AE3 C6                 3076 	.db #0xC6
   0AE4 C6                 3077 	.db #0xC6
   0AE5 C6                 3078 	.db #0xC6
   0AE6 C6                 3079 	.db #0xC6
   0AE7 FE                 3080 	.db #0xFE
   0AE8 FE                 3081 	.db #0xFE
   0AE9 C6                 3082 	.db #0xC6
   0AEA C6                 3083 	.db #0xC6
   0AEB C6                 3084 	.db #0xC6
   0AEC C6                 3085 	.db #0xC6
   0AED C6                 3086 	.db #0xC6
   0AEE C6                 3087 	.db #0xC6
   0AEF 00                 3088 	.db #0x00
   0AF0 00                 3089 	.db #0x00
   0AF1 7E                 3090 	.db #0x7E
   0AF2 7E                 3091 	.db #0x7E
   0AF3 18                 3092 	.db #0x18
   0AF4 18                 3093 	.db #0x18
   0AF5 18                 3094 	.db #0x18
   0AF6 18                 3095 	.db #0x18
   0AF7 18                 3096 	.db #0x18
   0AF8 18                 3097 	.db #0x18
   0AF9 18                 3098 	.db #0x18
   0AFA 18                 3099 	.db #0x18
   0AFB 18                 3100 	.db #0x18
   0AFC 18                 3101 	.db #0x18
   0AFD 7E                 3102 	.db #0x7E
   0AFE 7E                 3103 	.db #0x7E
   0AFF 00                 3104 	.db #0x00
   0B00 00                 3105 	.db #0x00
   0B01 06                 3106 	.db #0x06
   0B02 06                 3107 	.db #0x06
   0B03 06                 3108 	.db #0x06
   0B04 06                 3109 	.db #0x06
   0B05 06                 3110 	.db #0x06
   0B06 06                 3111 	.db #0x06
   0B07 06                 3112 	.db #0x06
   0B08 06                 3113 	.db #0x06
   0B09 06                 3114 	.db #0x06
   0B0A 06                 3115 	.db #0x06
   0B0B C6                 3116 	.db #0xC6
   0B0C C6                 3117 	.db #0xC6
   0B0D 7C                 3118 	.db #0x7C
   0B0E 7C                 3119 	.db #0x7C
   0B0F 00                 3120 	.db #0x00
   0B10 00                 3121 	.db #0x00
   0B11 C6                 3122 	.db #0xC6
   0B12 C6                 3123 	.db #0xC6
   0B13 CC                 3124 	.db #0xCC
   0B14 CC                 3125 	.db #0xCC
   0B15 D8                 3126 	.db #0xD8
   0B16 D8                 3127 	.db #0xD8
   0B17 F0                 3128 	.db #0xF0
   0B18 F0                 3129 	.db #0xF0
   0B19 F8                 3130 	.db #0xF8
   0B1A F8                 3131 	.db #0xF8
   0B1B DC                 3132 	.db #0xDC
   0B1C DC                 3133 	.db #0xDC
   0B1D CE                 3134 	.db #0xCE
   0B1E CE                 3135 	.db #0xCE
   0B1F 00                 3136 	.db #0x00
   0B20 00                 3137 	.db #0x00
   0B21 C0                 3138 	.db #0xC0
   0B22 C0                 3139 	.db #0xC0
   0B23 C0                 3140 	.db #0xC0
   0B24 C0                 3141 	.db #0xC0
   0B25 C0                 3142 	.db #0xC0
   0B26 C0                 3143 	.db #0xC0
   0B27 C0                 3144 	.db #0xC0
   0B28 C0                 3145 	.db #0xC0
   0B29 C0                 3146 	.db #0xC0
   0B2A C0                 3147 	.db #0xC0
   0B2B C0                 3148 	.db #0xC0
   0B2C C0                 3149 	.db #0xC0
   0B2D FE                 3150 	.db #0xFE
   0B2E FE                 3151 	.db #0xFE
   0B2F 00                 3152 	.db #0x00
   0B30 00                 3153 	.db #0x00
   0B31 C6                 3154 	.db #0xC6
   0B32 C6                 3155 	.db #0xC6
   0B33 EE                 3156 	.db #0xEE
   0B34 EE                 3157 	.db #0xEE
   0B35 FE                 3158 	.db #0xFE
   0B36 FE                 3159 	.db #0xFE
   0B37 FE                 3160 	.db #0xFE
   0B38 FE                 3161 	.db #0xFE
   0B39 D6                 3162 	.db #0xD6
   0B3A D6                 3163 	.db #0xD6
   0B3B C6                 3164 	.db #0xC6
   0B3C C6                 3165 	.db #0xC6
   0B3D C6                 3166 	.db #0xC6
   0B3E C6                 3167 	.db #0xC6
   0B3F 00                 3168 	.db #0x00
   0B40 00                 3169 	.db #0x00
   0B41 C6                 3170 	.db #0xC6
   0B42 C6                 3171 	.db #0xC6
   0B43 E6                 3172 	.db #0xE6
   0B44 E6                 3173 	.db #0xE6
   0B45 F6                 3174 	.db #0xF6
   0B46 F6                 3175 	.db #0xF6
   0B47 FE                 3176 	.db #0xFE
   0B48 FE                 3177 	.db #0xFE
   0B49 DE                 3178 	.db #0xDE
   0B4A DE                 3179 	.db #0xDE
   0B4B CE                 3180 	.db #0xCE
   0B4C CE                 3181 	.db #0xCE
   0B4D C6                 3182 	.db #0xC6
   0B4E C6                 3183 	.db #0xC6
   0B4F 00                 3184 	.db #0x00
   0B50 00                 3185 	.db #0x00
   0B51 7C                 3186 	.db #0x7C
   0B52 7C                 3187 	.db #0x7C
   0B53 C6                 3188 	.db #0xC6
   0B54 C6                 3189 	.db #0xC6
   0B55 C6                 3190 	.db #0xC6
   0B56 C6                 3191 	.db #0xC6
   0B57 C6                 3192 	.db #0xC6
   0B58 C6                 3193 	.db #0xC6
   0B59 C6                 3194 	.db #0xC6
   0B5A C6                 3195 	.db #0xC6
   0B5B C6                 3196 	.db #0xC6
   0B5C C6                 3197 	.db #0xC6
   0B5D 7C                 3198 	.db #0x7C
   0B5E 7C                 3199 	.db #0x7C
   0B5F 00                 3200 	.db #0x00
   0B60 00                 3201 	.db #0x00
   0B61 FC                 3202 	.db #0xFC
   0B62 FC                 3203 	.db #0xFC
   0B63 C6                 3204 	.db #0xC6
   0B64 C6                 3205 	.db #0xC6
   0B65 C6                 3206 	.db #0xC6
   0B66 C6                 3207 	.db #0xC6
   0B67 C6                 3208 	.db #0xC6
   0B68 C6                 3209 	.db #0xC6
   0B69 FC                 3210 	.db #0xFC
   0B6A FC                 3211 	.db #0xFC
   0B6B C0                 3212 	.db #0xC0
   0B6C C0                 3213 	.db #0xC0
   0B6D C0                 3214 	.db #0xC0
   0B6E C0                 3215 	.db #0xC0
   0B6F 00                 3216 	.db #0x00
   0B70 00                 3217 	.db #0x00
   0B71 7C                 3218 	.db #0x7C
   0B72 7C                 3219 	.db #0x7C
   0B73 C6                 3220 	.db #0xC6
   0B74 C6                 3221 	.db #0xC6
   0B75 C6                 3222 	.db #0xC6
   0B76 C6                 3223 	.db #0xC6
   0B77 C6                 3224 	.db #0xC6
   0B78 C6                 3225 	.db #0xC6
   0B79 DE                 3226 	.db #0xDE
   0B7A DE                 3227 	.db #0xDE
   0B7B CC                 3228 	.db #0xCC
   0B7C CC                 3229 	.db #0xCC
   0B7D 7A                 3230 	.db #0x7A
   0B7E 7A                 3231 	.db #0x7A
   0B7F 00                 3232 	.db #0x00
   0B80 00                 3233 	.db #0x00
   0B81 FC                 3234 	.db #0xFC
   0B82 FC                 3235 	.db #0xFC
   0B83 C6                 3236 	.db #0xC6
   0B84 C6                 3237 	.db #0xC6
   0B85 C6                 3238 	.db #0xC6
   0B86 C6                 3239 	.db #0xC6
   0B87 CE                 3240 	.db #0xCE
   0B88 CE                 3241 	.db #0xCE
   0B89 F8                 3242 	.db #0xF8
   0B8A F8                 3243 	.db #0xF8
   0B8B DC                 3244 	.db #0xDC
   0B8C DC                 3245 	.db #0xDC
   0B8D CE                 3246 	.db #0xCE
   0B8E CE                 3247 	.db #0xCE
   0B8F 00                 3248 	.db #0x00
   0B90 00                 3249 	.db #0x00
   0B91 78                 3250 	.db #0x78
   0B92 78                 3251 	.db #0x78
   0B93 CC                 3252 	.db #0xCC
   0B94 CC                 3253 	.db #0xCC
   0B95 C0                 3254 	.db #0xC0
   0B96 C0                 3255 	.db #0xC0
   0B97 7C                 3256 	.db #0x7C
   0B98 7C                 3257 	.db #0x7C
   0B99 06                 3258 	.db #0x06
   0B9A 06                 3259 	.db #0x06
   0B9B C6                 3260 	.db #0xC6
   0B9C C6                 3261 	.db #0xC6
   0B9D 7C                 3262 	.db #0x7C
   0B9E 7C                 3263 	.db #0x7C
   0B9F 00                 3264 	.db #0x00
   0BA0 00                 3265 	.db #0x00
   0BA1 7E                 3266 	.db #0x7E
   0BA2 7E                 3267 	.db #0x7E
   0BA3 18                 3268 	.db #0x18
   0BA4 18                 3269 	.db #0x18
   0BA5 18                 3270 	.db #0x18
   0BA6 18                 3271 	.db #0x18
   0BA7 18                 3272 	.db #0x18
   0BA8 18                 3273 	.db #0x18
   0BA9 18                 3274 	.db #0x18
   0BAA 18                 3275 	.db #0x18
   0BAB 18                 3276 	.db #0x18
   0BAC 18                 3277 	.db #0x18
   0BAD 18                 3278 	.db #0x18
   0BAE 18                 3279 	.db #0x18
   0BAF 00                 3280 	.db #0x00
   0BB0 00                 3281 	.db #0x00
   0BB1 C6                 3282 	.db #0xC6
   0BB2 C6                 3283 	.db #0xC6
   0BB3 C6                 3284 	.db #0xC6
   0BB4 C6                 3285 	.db #0xC6
   0BB5 C6                 3286 	.db #0xC6
   0BB6 C6                 3287 	.db #0xC6
   0BB7 C6                 3288 	.db #0xC6
   0BB8 C6                 3289 	.db #0xC6
   0BB9 C6                 3290 	.db #0xC6
   0BBA C6                 3291 	.db #0xC6
   0BBB C6                 3292 	.db #0xC6
   0BBC C6                 3293 	.db #0xC6
   0BBD 7C                 3294 	.db #0x7C
   0BBE 7C                 3295 	.db #0x7C
   0BBF 00                 3296 	.db #0x00
   0BC0 00                 3297 	.db #0x00
   0BC1 C6                 3298 	.db #0xC6
   0BC2 C6                 3299 	.db #0xC6
   0BC3 C6                 3300 	.db #0xC6
   0BC4 C6                 3301 	.db #0xC6
   0BC5 C6                 3302 	.db #0xC6
   0BC6 C6                 3303 	.db #0xC6
   0BC7 C6                 3304 	.db #0xC6
   0BC8 C6                 3305 	.db #0xC6
   0BC9 6C                 3306 	.db #0x6C
   0BCA 6C                 3307 	.db #0x6C
   0BCB 38                 3308 	.db #0x38
   0BCC 38                 3309 	.db #0x38
   0BCD 10                 3310 	.db #0x10
   0BCE 10                 3311 	.db #0x10
   0BCF 00                 3312 	.db #0x00
   0BD0 00                 3313 	.db #0x00
   0BD1 C6                 3314 	.db #0xC6
   0BD2 C6                 3315 	.db #0xC6
   0BD3 C6                 3316 	.db #0xC6
   0BD4 C6                 3317 	.db #0xC6
   0BD5 D6                 3318 	.db #0xD6
   0BD6 D6                 3319 	.db #0xD6
   0BD7 FE                 3320 	.db #0xFE
   0BD8 FE                 3321 	.db #0xFE
   0BD9 FE                 3322 	.db #0xFE
   0BDA FE                 3323 	.db #0xFE
   0BDB 6C                 3324 	.db #0x6C
   0BDC 6C                 3325 	.db #0x6C
   0BDD 44                 3326 	.db #0x44
   0BDE 44                 3327 	.db #0x44
   0BDF 00                 3328 	.db #0x00
   0BE0 00                 3329 	.db #0x00
   0BE1 C6                 3330 	.db #0xC6
   0BE2 C6                 3331 	.db #0xC6
   0BE3 EE                 3332 	.db #0xEE
   0BE4 EE                 3333 	.db #0xEE
   0BE5 7C                 3334 	.db #0x7C
   0BE6 7C                 3335 	.db #0x7C
   0BE7 38                 3336 	.db #0x38
   0BE8 38                 3337 	.db #0x38
   0BE9 7C                 3338 	.db #0x7C
   0BEA 7C                 3339 	.db #0x7C
   0BEB EE                 3340 	.db #0xEE
   0BEC EE                 3341 	.db #0xEE
   0BED C6                 3342 	.db #0xC6
   0BEE C6                 3343 	.db #0xC6
   0BEF 00                 3344 	.db #0x00
   0BF0 00                 3345 	.db #0x00
   0BF1 66                 3346 	.db #0x66
   0BF2 66                 3347 	.db #0x66
   0BF3 66                 3348 	.db #0x66
   0BF4 66                 3349 	.db #0x66
   0BF5 66                 3350 	.db #0x66
   0BF6 66                 3351 	.db #0x66
   0BF7 3C                 3352 	.db #0x3C
   0BF8 3C                 3353 	.db #0x3C
   0BF9 18                 3354 	.db #0x18
   0BFA 18                 3355 	.db #0x18
   0BFB 18                 3356 	.db #0x18
   0BFC 18                 3357 	.db #0x18
   0BFD 18                 3358 	.db #0x18
   0BFE 18                 3359 	.db #0x18
   0BFF 00                 3360 	.db #0x00
   0C00 00                 3361 	.db #0x00
   0C01 FE                 3362 	.db #0xFE
   0C02 FE                 3363 	.db #0xFE
   0C03 0E                 3364 	.db #0x0E
   0C04 0E                 3365 	.db #0x0E
   0C05 1C                 3366 	.db #0x1C
   0C06 1C                 3367 	.db #0x1C
   0C07 38                 3368 	.db #0x38
   0C08 38                 3369 	.db #0x38
   0C09 70                 3370 	.db #0x70
   0C0A 70                 3371 	.db #0x70
   0C0B E0                 3372 	.db #0xE0
   0C0C E0                 3373 	.db #0xE0
   0C0D FE                 3374 	.db #0xFE
   0C0E FE                 3375 	.db #0xFE
   0C0F 00                 3376 	.db #0x00
   0C10 00                 3377 	.db #0x00
   0C11 00                 3378 	.db #0x00
   0C12 00                 3379 	.db #0x00
   0C13 00                 3380 	.db #0x00
   0C14 00                 3381 	.db #0x00
   0C15 00                 3382 	.db #0x00
   0C16 00                 3383 	.db #0x00
   0C17 00                 3384 	.db #0x00
   0C18 00                 3385 	.db #0x00
   0C19 00                 3386 	.db #0x00
   0C1A 00                 3387 	.db #0x00
   0C1B 18                 3388 	.db #0x18
   0C1C 18                 3389 	.db #0x18
   0C1D 18                 3390 	.db #0x18
   0C1E 18                 3391 	.db #0x18
   0C1F 00                 3392 	.db #0x00
   0C20 00                 3393 	.db #0x00
   0C21 18                 3394 	.db #0x18
   0C22 18                 3395 	.db #0x18
   0C23 3C                 3396 	.db #0x3C
   0C24 3C                 3397 	.db #0x3C
   0C25 3C                 3398 	.db #0x3C
   0C26 3C                 3399 	.db #0x3C
   0C27 3C                 3400 	.db #0x3C
   0C28 3C                 3401 	.db #0x3C
   0C29 18                 3402 	.db #0x18
   0C2A 18                 3403 	.db #0x18
   0C2B 00                 3404 	.db #0x00
   0C2C 00                 3405 	.db #0x00
   0C2D 18                 3406 	.db #0x18
   0C2E 18                 3407 	.db #0x18
   0C2F 00                 3408 	.db #0x00
   0C30 00                 3409 	.db #0x00
   0C31 7C                 3410 	.db #0x7C
   0C32 7C                 3411 	.db #0x7C
   0C33 C6                 3412 	.db #0xC6
   0C34 C6                 3413 	.db #0xC6
   0C35 06                 3414 	.db #0x06
   0C36 06                 3415 	.db #0x06
   0C37 1C                 3416 	.db #0x1C
   0C38 1C                 3417 	.db #0x1C
   0C39 38                 3418 	.db #0x38
   0C3A 38                 3419 	.db #0x38
   0C3B 00                 3420 	.db #0x00
   0C3C 00                 3421 	.db #0x00
   0C3D 38                 3422 	.db #0x38
   0C3E 38                 3423 	.db #0x38
   0C3F 00                 3424 	.db #0x00
   0C40 00                 3425 	.db #0x00
   0C41 38                 3426 	.db #0x38
   0C42 38                 3427 	.db #0x38
   0C43 4C                 3428 	.db #0x4C
   0C44 4C                 3429 	.db #0x4C
   0C45 C6                 3430 	.db #0xC6
   0C46 C6                 3431 	.db #0xC6
   0C47 C6                 3432 	.db #0xC6
   0C48 C6                 3433 	.db #0xC6
   0C49 C6                 3434 	.db #0xC6
   0C4A C6                 3435 	.db #0xC6
   0C4B 64                 3436 	.db #0x64
   0C4C 64                 3437 	.db #0x64
   0C4D 38                 3438 	.db #0x38
   0C4E 38                 3439 	.db #0x38
   0C4F 00                 3440 	.db #0x00
   0C50 00                 3441 	.db #0x00
   0C51 18                 3442 	.db #0x18
   0C52 18                 3443 	.db #0x18
   0C53 38                 3444 	.db #0x38
   0C54 38                 3445 	.db #0x38
   0C55 18                 3446 	.db #0x18
   0C56 18                 3447 	.db #0x18
   0C57 18                 3448 	.db #0x18
   0C58 18                 3449 	.db #0x18
   0C59 18                 3450 	.db #0x18
   0C5A 18                 3451 	.db #0x18
   0C5B 18                 3452 	.db #0x18
   0C5C 18                 3453 	.db #0x18
   0C5D 7E                 3454 	.db #0x7E
   0C5E 7E                 3455 	.db #0x7E
   0C5F 00                 3456 	.db #0x00
   0C60 00                 3457 	.db #0x00
   0C61 7C                 3458 	.db #0x7C
   0C62 7C                 3459 	.db #0x7C
   0C63 C6                 3460 	.db #0xC6
   0C64 C6                 3461 	.db #0xC6
   0C65 0E                 3462 	.db #0x0E
   0C66 0E                 3463 	.db #0x0E
   0C67 3C                 3464 	.db #0x3C
   0C68 3C                 3465 	.db #0x3C
   0C69 78                 3466 	.db #0x78
   0C6A 78                 3467 	.db #0x78
   0C6B E0                 3468 	.db #0xE0
   0C6C E0                 3469 	.db #0xE0
   0C6D FE                 3470 	.db #0xFE
   0C6E FE                 3471 	.db #0xFE
   0C6F 00                 3472 	.db #0x00
   0C70 00                 3473 	.db #0x00
   0C71 7E                 3474 	.db #0x7E
   0C72 7E                 3475 	.db #0x7E
   0C73 0C                 3476 	.db #0x0C
   0C74 0C                 3477 	.db #0x0C
   0C75 18                 3478 	.db #0x18
   0C76 18                 3479 	.db #0x18
   0C77 3C                 3480 	.db #0x3C
   0C78 3C                 3481 	.db #0x3C
   0C79 06                 3482 	.db #0x06
   0C7A 06                 3483 	.db #0x06
   0C7B C6                 3484 	.db #0xC6
   0C7C C6                 3485 	.db #0xC6
   0C7D 7C                 3486 	.db #0x7C
   0C7E 7C                 3487 	.db #0x7C
   0C7F 00                 3488 	.db #0x00
   0C80 00                 3489 	.db #0x00
   0C81 1C                 3490 	.db #0x1C
   0C82 1C                 3491 	.db #0x1C
   0C83 3C                 3492 	.db #0x3C
   0C84 3C                 3493 	.db #0x3C
   0C85 6C                 3494 	.db #0x6C
   0C86 6C                 3495 	.db #0x6C
   0C87 CC                 3496 	.db #0xCC
   0C88 CC                 3497 	.db #0xCC
   0C89 FE                 3498 	.db #0xFE
   0C8A FE                 3499 	.db #0xFE
   0C8B 0C                 3500 	.db #0x0C
   0C8C 0C                 3501 	.db #0x0C
   0C8D 0C                 3502 	.db #0x0C
   0C8E 0C                 3503 	.db #0x0C
   0C8F 00                 3504 	.db #0x00
   0C90 00                 3505 	.db #0x00
   0C91 FC                 3506 	.db #0xFC
   0C92 FC                 3507 	.db #0xFC
   0C93 C0                 3508 	.db #0xC0
   0C94 C0                 3509 	.db #0xC0
   0C95 FC                 3510 	.db #0xFC
   0C96 FC                 3511 	.db #0xFC
   0C97 06                 3512 	.db #0x06
   0C98 06                 3513 	.db #0x06
   0C99 06                 3514 	.db #0x06
   0C9A 06                 3515 	.db #0x06
   0C9B C6                 3516 	.db #0xC6
   0C9C C6                 3517 	.db #0xC6
   0C9D 7C                 3518 	.db #0x7C
   0C9E 7C                 3519 	.db #0x7C
   0C9F 00                 3520 	.db #0x00
   0CA0 00                 3521 	.db #0x00
   0CA1 3C                 3522 	.db #0x3C
   0CA2 3C                 3523 	.db #0x3C
   0CA3 60                 3524 	.db #0x60
   0CA4 60                 3525 	.db #0x60
   0CA5 C0                 3526 	.db #0xC0
   0CA6 C0                 3527 	.db #0xC0
   0CA7 FC                 3528 	.db #0xFC
   0CA8 FC                 3529 	.db #0xFC
   0CA9 C6                 3530 	.db #0xC6
   0CAA C6                 3531 	.db #0xC6
   0CAB C6                 3532 	.db #0xC6
   0CAC C6                 3533 	.db #0xC6
   0CAD 7C                 3534 	.db #0x7C
   0CAE 7C                 3535 	.db #0x7C
   0CAF 00                 3536 	.db #0x00
   0CB0 00                 3537 	.db #0x00
   0CB1 FE                 3538 	.db #0xFE
   0CB2 FE                 3539 	.db #0xFE
   0CB3 C6                 3540 	.db #0xC6
   0CB4 C6                 3541 	.db #0xC6
   0CB5 0C                 3542 	.db #0x0C
   0CB6 0C                 3543 	.db #0x0C
   0CB7 18                 3544 	.db #0x18
   0CB8 18                 3545 	.db #0x18
   0CB9 30                 3546 	.db #0x30
   0CBA 30                 3547 	.db #0x30
   0CBB 30                 3548 	.db #0x30
   0CBC 30                 3549 	.db #0x30
   0CBD 30                 3550 	.db #0x30
   0CBE 30                 3551 	.db #0x30
   0CBF 00                 3552 	.db #0x00
   0CC0 00                 3553 	.db #0x00
   0CC1 78                 3554 	.db #0x78
   0CC2 78                 3555 	.db #0x78
   0CC3 84                 3556 	.db #0x84
   0CC4 84                 3557 	.db #0x84
   0CC5 C4                 3558 	.db #0xC4
   0CC6 C4                 3559 	.db #0xC4
   0CC7 78                 3560 	.db #0x78
   0CC8 78                 3561 	.db #0x78
   0CC9 9E                 3562 	.db #0x9E
   0CCA 9E                 3563 	.db #0x9E
   0CCB 86                 3564 	.db #0x86
   0CCC 86                 3565 	.db #0x86
   0CCD 7C                 3566 	.db #0x7C
   0CCE 7C                 3567 	.db #0x7C
   0CCF 00                 3568 	.db #0x00
   0CD0 00                 3569 	.db #0x00
   0CD1 7C                 3570 	.db #0x7C
   0CD2 7C                 3571 	.db #0x7C
   0CD3 C6                 3572 	.db #0xC6
   0CD4 C6                 3573 	.db #0xC6
   0CD5 C6                 3574 	.db #0xC6
   0CD6 C6                 3575 	.db #0xC6
   0CD7 7E                 3576 	.db #0x7E
   0CD8 7E                 3577 	.db #0x7E
   0CD9 06                 3578 	.db #0x06
   0CDA 06                 3579 	.db #0x06
   0CDB 0C                 3580 	.db #0x0C
   0CDC 0C                 3581 	.db #0x0C
   0CDD 78                 3582 	.db #0x78
   0CDE 78                 3583 	.db #0x78
   0CDF 00                 3584 	.db #0x00
   0CE0 00                 3585 	.db #0x00
   0CE1 00                 3586 	.db #0x00
   0CE2 00                 3587 	.db #0x00
   0CE3 00                 3588 	.db #0x00
   0CE4 00                 3589 	.db #0x00
   0CE5 00                 3590 	.db #0x00
   0CE6 00                 3591 	.db #0x00
   0CE7 00                 3592 	.db #0x00
   0CE8 00                 3593 	.db #0x00
   0CE9 00                 3594 	.db #0x00
   0CEA 00                 3595 	.db #0x00
   0CEB 00                 3596 	.db #0x00
   0CEC 00                 3597 	.db #0x00
   0CED 00                 3598 	.db #0x00
   0CEE 00                 3599 	.db #0x00
   0CEF 00                 3600 	.db #0x00
   0CF0 00                 3601 	.db #0x00
   0CF1 00                 3602 	.db #0x00
   0CF2 00                 3603 	.db #0x00
   0CF3 00                 3604 	.db #0x00
   0CF4 00                 3605 	.db #0x00
   0CF5 00                 3606 	.db #0x00
   0CF6 00                 3607 	.db #0x00
   0CF7 00                 3608 	.db #0x00
   0CF8 00                 3609 	.db #0x00
   0CF9 38                 3610 	.db #0x38
   0CFA 38                 3611 	.db #0x38
   0CFB 7C                 3612 	.db #0x7C
   0CFC 44                 3613 	.db #0x44
   0CFD 7C                 3614 	.db #0x7C
   0CFE 44                 3615 	.db #0x44
   0CFF 00                 3616 	.db #0x00
   0D00 00                 3617 	.db #0x00
   0D01 00                 3618 	.db #0x00
   0D02 00                 3619 	.db #0x00
   0D03 00                 3620 	.db #0x00
   0D04 00                 3621 	.db #0x00
   0D05 00                 3622 	.db #0x00
   0D06 00                 3623 	.db #0x00
   0D07 38                 3624 	.db #0x38
   0D08 38                 3625 	.db #0x38
   0D09 44                 3626 	.db #0x44
   0D0A 7C                 3627 	.db #0x7C
   0D0B 44                 3628 	.db #0x44
   0D0C 7C                 3629 	.db #0x7C
   0D0D 3E                 3630 	.db #0x3E
   0D0E 22                 3631 	.db #0x22
   0D0F 00                 3632 	.db #0x00
   0D10 00                 3633 	.db #0x00
   0D11 00                 3634 	.db #0x00
   0D12 00                 3635 	.db #0x00
   0D13 00                 3636 	.db #0x00
   0D14 00                 3637 	.db #0x00
   0D15 00                 3638 	.db #0x00
   0D16 00                 3639 	.db #0x00
   0D17 1C                 3640 	.db #0x1C
   0D18 1C                 3641 	.db #0x1C
   0D19 22                 3642 	.db #0x22
   0D1A 3E                 3643 	.db #0x3E
   0D1B 22                 3644 	.db #0x22
   0D1C 3E                 3645 	.db #0x3E
   0D1D 7C                 3646 	.db #0x7C
   0D1E 44                 3647 	.db #0x44
   0D1F 00                 3648 	.db #0x00
   0D20 00                 3649 	.db #0x00
   0D21 00                 3650 	.db #0x00
   0D22 00                 3651 	.db #0x00
   0D23 00                 3652 	.db #0x00
   0D24 00                 3653 	.db #0x00
   0D25 00                 3654 	.db #0x00
   0D26 00                 3655 	.db #0x00
   0D27 00                 3656 	.db #0x00
   0D28 00                 3657 	.db #0x00
   0D29 1C                 3658 	.db #0x1C
   0D2A 1C                 3659 	.db #0x1C
   0D2B 3E                 3660 	.db #0x3E
   0D2C 22                 3661 	.db #0x22
   0D2D 3E                 3662 	.db #0x3E
   0D2E 22                 3663 	.db #0x22
   0D2F 00                 3664 	.db #0x00
   0D30 00                 3665 	.db #0x00
   0D31 00                 3666 	.db #0x00
   0D32 00                 3667 	.db #0x00
   0D33 00                 3668 	.db #0x00
   0D34 00                 3669 	.db #0x00
   0D35 00                 3670 	.db #0x00
   0D36 00                 3671 	.db #0x00
   0D37 00                 3672 	.db #0x00
   0D38 00                 3673 	.db #0x00
   0D39 00                 3674 	.db #0x00
   0D3A 00                 3675 	.db #0x00
   0D3B 00                 3676 	.db #0x00
   0D3C 00                 3677 	.db #0x00
   0D3D 00                 3678 	.db #0x00
   0D3E 00                 3679 	.db #0x00
   0D3F 00                 3680 	.db #0x00
   0D40 00                 3681 	.db #0x00
   0D41 00                 3682 	.db #0x00
   0D42 00                 3683 	.db #0x00
   0D43 00                 3684 	.db #0x00
   0D44 00                 3685 	.db #0x00
   0D45 00                 3686 	.db #0x00
   0D46 00                 3687 	.db #0x00
   0D47 00                 3688 	.db #0x00
   0D48 00                 3689 	.db #0x00
   0D49 00                 3690 	.db #0x00
   0D4A 00                 3691 	.db #0x00
   0D4B 00                 3692 	.db #0x00
   0D4C 00                 3693 	.db #0x00
   0D4D 00                 3694 	.db #0x00
   0D4E 00                 3695 	.db #0x00
   0D4F 38                 3696 	.db #0x38
   0D50 28                 3697 	.db #0x28
   0D51 3F                 3698 	.db #0x3F
   0D52 2F                 3699 	.db #0x2F
   0D53 38                 3700 	.db #0x38
   0D54 2F                 3701 	.db #0x2F
   0D55 38                 3702 	.db #0x38
   0D56 27                 3703 	.db #0x27
   0D57 3F                 3704 	.db #0x3F
   0D58 20                 3705 	.db #0x20
   0D59 3C                 3706 	.db #0x3C
   0D5A 20                 3707 	.db #0x20
   0D5B 3E                 3708 	.db #0x3E
   0D5C 20                 3709 	.db #0x20
   0D5D 3F                 3710 	.db #0x3F
   0D5E 38                 3711 	.db #0x38
   0D5F 7F                 3712 	.db #0x7F
   0D60 63                 3713 	.db #0x63
   0D61 88                 3714 	.db #0x88
   0D62 F7                 3715 	.db #0xF7
   0D63 08                 3716 	.db #0x08
   0D64 F7                 3717 	.db #0xF7
   0D65 08                 3718 	.db #0x08
   0D66 F7                 3719 	.db #0xF7
   0D67 88                 3720 	.db #0x88
   0D68 77                 3721 	.db #0x77
   0D69 FF                 3722 	.db #0xFF
   0D6A 00                 3723 	.db #0x00
   0D6B 1C                 3724 	.db #0x1C
   0D6C 00                 3725 	.db #0x00
   0D6D FF                 3726 	.db #0xFF
   0D6E 03                 3727 	.db #0x03
   0D6F FE                 3728 	.db #0xFE
   0D70 C6                 3729 	.db #0xC6
   0D71 11                 3730 	.db #0x11
   0D72 EF                 3731 	.db #0xEF
   0D73 10                 3732 	.db #0x10
   0D74 EF                 3733 	.db #0xEF
   0D75 10                 3734 	.db #0x10
   0D76 EF                 3735 	.db #0xEF
   0D77 11                 3736 	.db #0x11
   0D78 EE                 3737 	.db #0xEE
   0D79 FF                 3738 	.db #0xFF
   0D7A 00                 3739 	.db #0x00
   0D7B FC                 3740 	.db #0xFC
   0D7C C0                 3741 	.db #0xC0
   0D7D FF                 3742 	.db #0xFF
   0D7E C0                 3743 	.db #0xC0
   0D7F 1C                 3744 	.db #0x1C
   0D80 14                 3745 	.db #0x14
   0D81 FC                 3746 	.db #0xFC
   0D82 F4                 3747 	.db #0xF4
   0D83 1C                 3748 	.db #0x1C
   0D84 F4                 3749 	.db #0xF4
   0D85 1C                 3750 	.db #0x1C
   0D86 E4                 3751 	.db #0xE4
   0D87 FC                 3752 	.db #0xFC
   0D88 04                 3753 	.db #0x04
   0D89 9C                 3754 	.db #0x9C
   0D8A 04                 3755 	.db #0x04
   0D8B 3C                 3756 	.db #0x3C
   0D8C 04                 3757 	.db #0x04
   0D8D FC                 3758 	.db #0xFC
   0D8E 1C                 3759 	.db #0x1C
   0D8F 00                 3760 	.db #0x00
   0D90 00                 3761 	.db #0x00
   0D91 00                 3762 	.db #0x00
   0D92 00                 3763 	.db #0x00
   0D93 00                 3764 	.db #0x00
   0D94 00                 3765 	.db #0x00
   0D95 00                 3766 	.db #0x00
   0D96 00                 3767 	.db #0x00
   0D97 00                 3768 	.db #0x00
   0D98 00                 3769 	.db #0x00
   0D99 00                 3770 	.db #0x00
   0D9A 00                 3771 	.db #0x00
   0D9B 00                 3772 	.db #0x00
   0D9C 00                 3773 	.db #0x00
   0D9D 00                 3774 	.db #0x00
   0D9E 00                 3775 	.db #0x00
   0D9F 00                 3776 	.db #0x00
   0DA0 00                 3777 	.db #0x00
   0DA1 00                 3778 	.db #0x00
   0DA2 00                 3779 	.db #0x00
   0DA3 01                 3780 	.db #0x01
   0DA4 01                 3781 	.db #0x01
   0DA5 02                 3782 	.db #0x02
   0DA6 03                 3783 	.db #0x03
   0DA7 04                 3784 	.db #0x04
   0DA8 07                 3785 	.db #0x07
   0DA9 08                 3786 	.db #0x08
   0DAA 0F                 3787 	.db #0x0F
   0DAB 08                 3788 	.db #0x08
   0DAC 0F                 3789 	.db #0x0F
   0DAD 10                 3790 	.db #0x10
   0DAE 1F                 3791 	.db #0x1F
   0DAF 47                 3792 	.db #0x47
   0DB0 7F                 3793 	.db #0x7F
   0DB1 88                 3794 	.db #0x88
   0DB2 FF                 3795 	.db #0xFF
   0DB3 10                 3796 	.db #0x10
   0DB4 FF                 3797 	.db #0xFF
   0DB5 20                 3798 	.db #0x20
   0DB6 FF                 3799 	.db #0xFF
   0DB7 20                 3800 	.db #0x20
   0DB8 FF                 3801 	.db #0xFF
   0DB9 40                 3802 	.db #0x40
   0DBA FF                 3803 	.db #0xFF
   0DBB 40                 3804 	.db #0x40
   0DBC FF                 3805 	.db #0xFF
   0DBD 40                 3806 	.db #0x40
   0DBE FF                 3807 	.db #0xFF
   0DBF FF                 3808 	.db #0xFF
   0DC0 80                 3809 	.db #0x80
   0DC1 7F                 3810 	.db #0x7F
   0DC2 FF                 3811 	.db #0xFF
   0DC3 00                 3812 	.db #0x00
   0DC4 FF                 3813 	.db #0xFF
   0DC5 00                 3814 	.db #0x00
   0DC6 FF                 3815 	.db #0xFF
   0DC7 00                 3816 	.db #0x00
   0DC8 FF                 3817 	.db #0xFF
   0DC9 80                 3818 	.db #0x80
   0DCA FF                 3819 	.db #0xFF
   0DCB 80                 3820 	.db #0x80
   0DCC FF                 3821 	.db #0xFF
   0DCD 80                 3822 	.db #0x80
   0DCE FF                 3823 	.db #0xFF
   0DCF FF                 3824 	.db #0xFF
   0DD0 01                 3825 	.db #0x01
   0DD1 FE                 3826 	.db #0xFE
   0DD2 FF                 3827 	.db #0xFF
   0DD3 00                 3828 	.db #0x00
   0DD4 FF                 3829 	.db #0xFF
   0DD5 00                 3830 	.db #0x00
   0DD6 FF                 3831 	.db #0xFF
   0DD7 00                 3832 	.db #0x00
   0DD8 FF                 3833 	.db #0xFF
   0DD9 00                 3834 	.db #0x00
   0DDA FF                 3835 	.db #0xFF
   0DDB 00                 3836 	.db #0x00
   0DDC FF                 3837 	.db #0xFF
   0DDD 20                 3838 	.db #0x20
   0DDE FF                 3839 	.db #0xFF
   0DDF E2                 3840 	.db #0xE2
   0DE0 FE                 3841 	.db #0xFE
   0DE1 07                 3842 	.db #0x07
   0DE2 FF                 3843 	.db #0xFF
   0DE3 01                 3844 	.db #0x01
   0DE4 FF                 3845 	.db #0xFF
   0DE5 00                 3846 	.db #0x00
   0DE6 FF                 3847 	.db #0xFF
   0DE7 00                 3848 	.db #0x00
   0DE8 FF                 3849 	.db #0xFF
   0DE9 00                 3850 	.db #0x00
   0DEA FF                 3851 	.db #0xFF
   0DEB 00                 3852 	.db #0x00
   0DEC FF                 3853 	.db #0xFF
   0DED 00                 3854 	.db #0x00
   0DEE FF                 3855 	.db #0xFF
   0DEF 00                 3856 	.db #0x00
   0DF0 00                 3857 	.db #0x00
   0DF1 00                 3858 	.db #0x00
   0DF2 00                 3859 	.db #0x00
   0DF3 80                 3860 	.db #0x80
   0DF4 80                 3861 	.db #0x80
   0DF5 40                 3862 	.db #0x40
   0DF6 C0                 3863 	.db #0xC0
   0DF7 A0                 3864 	.db #0xA0
   0DF8 E0                 3865 	.db #0xE0
   0DF9 50                 3866 	.db #0x50
   0DFA F0                 3867 	.db #0xF0
   0DFB 50                 3868 	.db #0x50
   0DFC F0                 3869 	.db #0xF0
   0DFD 28                 3870 	.db #0x28
   0DFE F8                 3871 	.db #0xF8
   0DFF 20                 3872 	.db #0x20
   0E00 3F                 3873 	.db #0x3F
   0E01 20                 3874 	.db #0x20
   0E02 3F                 3875 	.db #0x3F
   0E03 20                 3876 	.db #0x20
   0E04 3F                 3877 	.db #0x3F
   0E05 40                 3878 	.db #0x40
   0E06 7F                 3879 	.db #0x7F
   0E07 40                 3880 	.db #0x40
   0E08 7F                 3881 	.db #0x7F
   0E09 41                 3882 	.db #0x41
   0E0A 7F                 3883 	.db #0x7F
   0E0B 81                 3884 	.db #0x81
   0E0C FF                 3885 	.db #0xFF
   0E0D 81                 3886 	.db #0x81
   0E0E FF                 3887 	.db #0xFF
   0E0F 80                 3888 	.db #0x80
   0E10 FF                 3889 	.db #0xFF
   0E11 80                 3890 	.db #0x80
   0E12 FF                 3891 	.db #0xFF
   0E13 80                 3892 	.db #0x80
   0E14 FF                 3893 	.db #0xFF
   0E15 80                 3894 	.db #0x80
   0E16 FF                 3895 	.db #0xFF
   0E17 82                 3896 	.db #0x82
   0E18 FF                 3897 	.db #0xFF
   0E19 06                 3898 	.db #0x06
   0E1A FF                 3899 	.db #0xFF
   0E1B 06                 3900 	.db #0x06
   0E1C FF                 3901 	.db #0xFF
   0E1D 0F                 3902 	.db #0x0F
   0E1E F9                 3903 	.db #0xF9
   0E1F 80                 3904 	.db #0x80
   0E20 FF                 3905 	.db #0xFF
   0E21 80                 3906 	.db #0x80
   0E22 FF                 3907 	.db #0xFF
   0E23 C0                 3908 	.db #0xC0
   0E24 FF                 3909 	.db #0xFF
   0E25 C0                 3910 	.db #0xC0
   0E26 FF                 3911 	.db #0xFF
   0E27 C0                 3912 	.db #0xC0
   0E28 FF                 3913 	.db #0xFF
   0E29 E0                 3914 	.db #0xE0
   0E2A FF                 3915 	.db #0xFF
   0E2B 60                 3916 	.db #0x60
   0E2C FF                 3917 	.db #0xFF
   0E2D 30                 3918 	.db #0x30
   0E2E FF                 3919 	.db #0xFF
   0E2F 20                 3920 	.db #0x20
   0E30 FF                 3921 	.db #0xFF
   0E31 60                 3922 	.db #0x60
   0E32 FF                 3923 	.db #0xFF
   0E33 60                 3924 	.db #0x60
   0E34 FF                 3925 	.db #0xFF
   0E35 70                 3926 	.db #0x70
   0E36 FF                 3927 	.db #0xFF
   0E37 30                 3928 	.db #0x30
   0E38 FF                 3929 	.db #0xFF
   0E39 30                 3930 	.db #0x30
   0E3A FF                 3931 	.db #0xFF
   0E3B 38                 3932 	.db #0x38
   0E3C FF                 3933 	.db #0xFF
   0E3D 38                 3934 	.db #0x38
   0E3E FF                 3935 	.db #0xFF
   0E3F 00                 3936 	.db #0x00
   0E40 FF                 3937 	.db #0xFF
   0E41 00                 3938 	.db #0x00
   0E42 FF                 3939 	.db #0xFF
   0E43 00                 3940 	.db #0x00
   0E44 FF                 3941 	.db #0xFF
   0E45 00                 3942 	.db #0x00
   0E46 FF                 3943 	.db #0xFF
   0E47 00                 3944 	.db #0x00
   0E48 FF                 3945 	.db #0xFF
   0E49 00                 3946 	.db #0x00
   0E4A FF                 3947 	.db #0xFF
   0E4B 00                 3948 	.db #0x00
   0E4C FF                 3949 	.db #0xFF
   0E4D 00                 3950 	.db #0x00
   0E4E FF                 3951 	.db #0xFF
   0E4F 24                 3952 	.db #0x24
   0E50 FC                 3953 	.db #0xFC
   0E51 24                 3954 	.db #0x24
   0E52 FC                 3955 	.db #0xFC
   0E53 14                 3956 	.db #0x14
   0E54 FC                 3957 	.db #0xFC
   0E55 12                 3958 	.db #0x12
   0E56 FE                 3959 	.db #0xFE
   0E57 12                 3960 	.db #0x12
   0E58 FE                 3961 	.db #0xFE
   0E59 0A                 3962 	.db #0x0A
   0E5A FE                 3963 	.db #0xFE
   0E5B 09                 3964 	.db #0x09
   0E5C FF                 3965 	.db #0xFF
   0E5D 09                 3966 	.db #0x09
   0E5E FF                 3967 	.db #0xFF
   0E5F 81                 3968 	.db #0x81
   0E60 FF                 3969 	.db #0xFF
   0E61 81                 3970 	.db #0x81
   0E62 FF                 3971 	.db #0xFF
   0E63 81                 3972 	.db #0x81
   0E64 FF                 3973 	.db #0xFF
   0E65 83                 3974 	.db #0x83
   0E66 FE                 3975 	.db #0xFE
   0E67 83                 3976 	.db #0x83
   0E68 FE                 3977 	.db #0xFE
   0E69 83                 3978 	.db #0x83
   0E6A FE                 3979 	.db #0xFE
   0E6B 83                 3980 	.db #0x83
   0E6C FE                 3981 	.db #0xFE
   0E6D 83                 3982 	.db #0x83
   0E6E FE                 3983 	.db #0xFE
   0E6F 0F                 3984 	.db #0x0F
   0E70 F8                 3985 	.db #0xF8
   0E71 9F                 3986 	.db #0x9F
   0E72 F0                 3987 	.db #0xF0
   0E73 9F                 3988 	.db #0x9F
   0E74 F0                 3989 	.db #0xF0
   0E75 9F                 3990 	.db #0x9F
   0E76 FF                 3991 	.db #0xFF
   0E77 9F                 3992 	.db #0x9F
   0E78 F0                 3993 	.db #0xF0
   0E79 9F                 3994 	.db #0x9F
   0E7A F0                 3995 	.db #0xF0
   0E7B BF                 3996 	.db #0xBF
   0E7C E0                 3997 	.db #0xE0
   0E7D BF                 3998 	.db #0xBF
   0E7E EF                 3999 	.db #0xEF
   0E7F B8                 4000 	.db #0xB8
   0E80 FF                 4001 	.db #0xFF
   0E81 9C                 4002 	.db #0x9C
   0E82 FF                 4003 	.db #0xFF
   0E83 CE                 4004 	.db #0xCE
   0E84 7F                 4005 	.db #0x7F
   0E85 E3                 4006 	.db #0xE3
   0E86 FF                 4007 	.db #0xFF
   0E87 F8                 4008 	.db #0xF8
   0E88 3F                 4009 	.db #0x3F
   0E89 FE                 4010 	.db #0xFE
   0E8A 0F                 4011 	.db #0x0F
   0E8B FF                 4012 	.db #0xFF
   0E8C 01                 4013 	.db #0x01
   0E8D FF                 4014 	.db #0xFF
   0E8E C0                 4015 	.db #0xC0
   0E8F 18                 4016 	.db #0x18
   0E90 FF                 4017 	.db #0xFF
   0E91 1C                 4018 	.db #0x1C
   0E92 F7                 4019 	.db #0xF7
   0E93 1C                 4020 	.db #0x1C
   0E94 F7                 4021 	.db #0xF7
   0E95 8E                 4022 	.db #0x8E
   0E96 FF                 4023 	.db #0xFF
   0E97 C6                 4024 	.db #0xC6
   0E98 FF                 4025 	.db #0xFF
   0E99 73                 4026 	.db #0x73
   0E9A FF                 4027 	.db #0xFF
   0E9B FF                 4028 	.db #0xFF
   0E9C 8E                 4029 	.db #0x8E
   0E9D FF                 4030 	.db #0xFF
   0E9E 03                 4031 	.db #0x03
   0E9F 00                 4032 	.db #0x00
   0EA0 FF                 4033 	.db #0xFF
   0EA1 00                 4034 	.db #0x00
   0EA2 FF                 4035 	.db #0xFF
   0EA3 00                 4036 	.db #0x00
   0EA4 FF                 4037 	.db #0xFF
   0EA5 00                 4038 	.db #0x00
   0EA6 FF                 4039 	.db #0xFF
   0EA7 00                 4040 	.db #0x00
   0EA8 FF                 4041 	.db #0xFF
   0EA9 00                 4042 	.db #0x00
   0EAA FF                 4043 	.db #0xFF
   0EAB 80                 4044 	.db #0x80
   0EAC FF                 4045 	.db #0xFF
   0EAD C0                 4046 	.db #0xC0
   0EAE FF                 4047 	.db #0xFF
   0EAF 05                 4048 	.db #0x05
   0EB0 FF                 4049 	.db #0xFF
   0EB1 05                 4050 	.db #0x05
   0EB2 FF                 4051 	.db #0xFF
   0EB3 05                 4052 	.db #0x05
   0EB4 FF                 4053 	.db #0xFF
   0EB5 05                 4054 	.db #0x05
   0EB6 FF                 4055 	.db #0xFF
   0EB7 05                 4056 	.db #0x05
   0EB8 FF                 4057 	.db #0xFF
   0EB9 05                 4058 	.db #0x05
   0EBA FF                 4059 	.db #0xFF
   0EBB 05                 4060 	.db #0x05
   0EBC FF                 4061 	.db #0xFF
   0EBD 01                 4062 	.db #0x01
   0EBE FF                 4063 	.db #0xFF
   0EBF 8B                 4064 	.db #0x8B
   0EC0 FE                 4065 	.db #0xFE
   0EC1 8B                 4066 	.db #0x8B
   0EC2 FE                 4067 	.db #0xFE
   0EC3 89                 4068 	.db #0x89
   0EC4 FF                 4069 	.db #0xFF
   0EC5 89                 4070 	.db #0x89
   0EC6 FF                 4071 	.db #0xFF
   0EC7 91                 4072 	.db #0x91
   0EC8 FF                 4073 	.db #0xFF
   0EC9 91                 4074 	.db #0x91
   0ECA FF                 4075 	.db #0xFF
   0ECB 91                 4076 	.db #0x91
   0ECC FF                 4077 	.db #0xFF
   0ECD 91                 4078 	.db #0x91
   0ECE FF                 4079 	.db #0xFF
   0ECF F3                 4080 	.db #0xF3
   0ED0 53                 4081 	.db #0x53
   0ED1 E3                 4082 	.db #0xE3
   0ED2 23                 4083 	.db #0x23
   0ED3 C3                 4084 	.db #0xC3
   0ED4 03                 4085 	.db #0x03
   0ED5 E3                 4086 	.db #0xE3
   0ED6 03                 4087 	.db #0x03
   0ED7 F3                 4088 	.db #0xF3
   0ED8 02                 4089 	.db #0x02
   0ED9 FF                 4090 	.db #0xFF
   0EDA 07                 4091 	.db #0x07
   0EDB FF                 4092 	.db #0xFF
   0EDC 00                 4093 	.db #0x00
   0EDD FF                 4094 	.db #0xFF
   0EDE 00                 4095 	.db #0x00
   0EDF FF                 4096 	.db #0xFF
   0EE0 E0                 4097 	.db #0xE0
   0EE1 DF                 4098 	.db #0xDF
   0EE2 50                 4099 	.db #0x50
   0EE3 CF                 4100 	.db #0xCF
   0EE4 40                 4101 	.db #0x40
   0EE5 CF                 4102 	.db #0xCF
   0EE6 C0                 4103 	.db #0xC0
   0EE7 DF                 4104 	.db #0xDF
   0EE8 C0                 4105 	.db #0xC0
   0EE9 FF                 4106 	.db #0xFF
   0EEA C0                 4107 	.db #0xC0
   0EEB FF                 4108 	.db #0xFF
   0EEC 00                 4109 	.db #0x00
   0EED FF                 4110 	.db #0xFF
   0EEE 00                 4111 	.db #0x00
   0EEF FD                 4112 	.db #0xFD
   0EF0 05                 4113 	.db #0x05
   0EF1 F9                 4114 	.db #0xF9
   0EF2 09                 4115 	.db #0x09
   0EF3 F1                 4116 	.db #0xF1
   0EF4 01                 4117 	.db #0x01
   0EF5 F1                 4118 	.db #0xF1
   0EF6 01                 4119 	.db #0x01
   0EF7 F9                 4120 	.db #0xF9
   0EF8 01                 4121 	.db #0x01
   0EF9 FF                 4122 	.db #0xFF
   0EFA 03                 4123 	.db #0x03
   0EFB FF                 4124 	.db #0xFF
   0EFC 00                 4125 	.db #0x00
   0EFD FF                 4126 	.db #0xFF
   0EFE 00                 4127 	.db #0x00
   0EFF E0                 4128 	.db #0xE0
   0F00 FF                 4129 	.db #0xFF
   0F01 FC                 4130 	.db #0xFC
   0F02 7F                 4131 	.db #0x7F
   0F03 E3                 4132 	.db #0xE3
   0F04 61                 4133 	.db #0x61
   0F05 E7                 4134 	.db #0xE7
   0F06 E0                 4135 	.db #0xE0
   0F07 2F                 4136 	.db #0x2F
   0F08 E0                 4137 	.db #0xE0
   0F09 FF                 4138 	.db #0xFF
   0F0A E0                 4139 	.db #0xE0
   0F0B FF                 4140 	.db #0xFF
   0F0C 00                 4141 	.db #0x00
   0F0D FF                 4142 	.db #0xFF
   0F0E 00                 4143 	.db #0x00
   0F0F 01                 4144 	.db #0x01
   0F10 FF                 4145 	.db #0xFF
   0F11 01                 4146 	.db #0x01
   0F12 FF                 4147 	.db #0xFF
   0F13 C1                 4148 	.db #0xC1
   0F14 FF                 4149 	.db #0xFF
   0F15 D9                 4150 	.db #0xD9
   0F16 7F                 4151 	.db #0x7F
   0F17 C9                 4152 	.db #0xC9
   0F18 7F                 4153 	.db #0x7F
   0F19 C9                 4154 	.db #0xC9
   0F1A 7F                 4155 	.db #0x7F
   0F1B C9                 4156 	.db #0xC9
   0F1C 7F                 4157 	.db #0x7F
   0F1D C9                 4158 	.db #0xC9
   0F1E 7F                 4159 	.db #0x7F
   0F1F 91                 4160 	.db #0x91
   0F20 FF                 4161 	.db #0xFF
   0F21 90                 4162 	.db #0x90
   0F22 FF                 4163 	.db #0xFF
   0F23 B0                 4164 	.db #0xB0
   0F24 FF                 4165 	.db #0xFF
   0F25 B0                 4166 	.db #0xB0
   0F26 FF                 4167 	.db #0xFF
   0F27 A8                 4168 	.db #0xA8
   0F28 FF                 4169 	.db #0xFF
   0F29 A8                 4170 	.db #0xA8
   0F2A FF                 4171 	.db #0xFF
   0F2B A4                 4172 	.db #0xA4
   0F2C FF                 4173 	.db #0xFF
   0F2D A4                 4174 	.db #0xA4
   0F2E FF                 4175 	.db #0xFF
   0F2F FF                 4176 	.db #0xFF
   0F30 00                 4177 	.db #0x00
   0F31 FF                 4178 	.db #0xFF
   0F32 80                 4179 	.db #0x80
   0F33 FF                 4180 	.db #0xFF
   0F34 80                 4181 	.db #0x80
   0F35 7F                 4182 	.db #0x7F
   0F36 C0                 4183 	.db #0xC0
   0F37 7F                 4184 	.db #0x7F
   0F38 C0                 4185 	.db #0xC0
   0F39 7F                 4186 	.db #0x7F
   0F3A C0                 4187 	.db #0xC0
   0F3B 3F                 4188 	.db #0x3F
   0F3C E0                 4189 	.db #0xE0
   0F3D 3F                 4190 	.db #0x3F
   0F3E E0                 4191 	.db #0xE0
   0F3F FF                 4192 	.db #0xFF
   0F40 00                 4193 	.db #0x00
   0F41 FF                 4194 	.db #0xFF
   0F42 00                 4195 	.db #0x00
   0F43 FF                 4196 	.db #0xFF
   0F44 00                 4197 	.db #0x00
   0F45 FF                 4198 	.db #0xFF
   0F46 01                 4199 	.db #0x01
   0F47 FF                 4200 	.db #0xFF
   0F48 00                 4201 	.db #0x00
   0F49 FF                 4202 	.db #0xFF
   0F4A 00                 4203 	.db #0x00
   0F4B FF                 4204 	.db #0xFF
   0F4C 00                 4205 	.db #0x00
   0F4D FF                 4206 	.db #0xFF
   0F4E 0F                 4207 	.db #0x0F
   0F4F FF                 4208 	.db #0xFF
   0F50 00                 4209 	.db #0x00
   0F51 FF                 4210 	.db #0xFF
   0F52 00                 4211 	.db #0x00
   0F53 FF                 4212 	.db #0xFF
   0F54 00                 4213 	.db #0x00
   0F55 FF                 4214 	.db #0xFF
   0F56 80                 4215 	.db #0x80
   0F57 FF                 4216 	.db #0xFF
   0F58 00                 4217 	.db #0x00
   0F59 FF                 4218 	.db #0xFF
   0F5A 00                 4219 	.db #0x00
   0F5B FF                 4220 	.db #0xFF
   0F5C 00                 4221 	.db #0x00
   0F5D FF                 4222 	.db #0xFF
   0F5E F0                 4223 	.db #0xF0
   0F5F FF                 4224 	.db #0xFF
   0F60 00                 4225 	.db #0x00
   0F61 FF                 4226 	.db #0xFF
   0F62 00                 4227 	.db #0x00
   0F63 FF                 4228 	.db #0xFF
   0F64 00                 4229 	.db #0x00
   0F65 FF                 4230 	.db #0xFF
   0F66 00                 4231 	.db #0x00
   0F67 FF                 4232 	.db #0xFF
   0F68 01                 4233 	.db #0x01
   0F69 FF                 4234 	.db #0xFF
   0F6A 01                 4235 	.db #0x01
   0F6B FE                 4236 	.db #0xFE
   0F6C 03                 4237 	.db #0x03
   0F6D FE                 4238 	.db #0xFE
   0F6E 03                 4239 	.db #0x03
   0F6F C9                 4240 	.db #0xC9
   0F70 7F                 4241 	.db #0x7F
   0F71 89                 4242 	.db #0x89
   0F72 FF                 4243 	.db #0xFF
   0F73 85                 4244 	.db #0x85
   0F74 FF                 4245 	.db #0xFF
   0F75 8D                 4246 	.db #0x8D
   0F76 FF                 4247 	.db #0xFF
   0F77 0D                 4248 	.db #0x0D
   0F78 FF                 4249 	.db #0xFF
   0F79 0D                 4250 	.db #0x0D
   0F7A FF                 4251 	.db #0xFF
   0F7B 0D                 4252 	.db #0x0D
   0F7C FF                 4253 	.db #0xFF
   0F7D 15                 4254 	.db #0x15
   0F7E FF                 4255 	.db #0xFF
   0F7F AA                 4256 	.db #0xAA
   0F80 FF                 4257 	.db #0xFF
   0F81 DD                 4258 	.db #0xDD
   0F82 FF                 4259 	.db #0xFF
   0F83 DD                 4260 	.db #0xDD
   0F84 FF                 4261 	.db #0xFF
   0F85 DE                 4262 	.db #0xDE
   0F86 FF                 4263 	.db #0xFF
   0F87 DB                 4264 	.db #0xDB
   0F88 FF                 4265 	.db #0xFF
   0F89 DB                 4266 	.db #0xDB
   0F8A FF                 4267 	.db #0xFF
   0F8B DB                 4268 	.db #0xDB
   0F8C FF                 4269 	.db #0xFF
   0F8D BA                 4270 	.db #0xBA
   0F8E FF                 4271 	.db #0xFF
   0F8F 1F                 4272 	.db #0x1F
   0F90 F0                 4273 	.db #0xF0
   0F91 1F                 4274 	.db #0x1F
   0F92 F0                 4275 	.db #0xF0
   0F93 0F                 4276 	.db #0x0F
   0F94 F8                 4277 	.db #0xF8
   0F95 87                 4278 	.db #0x87
   0F96 FC                 4279 	.db #0xFC
   0F97 67                 4280 	.db #0x67
   0F98 FE                 4281 	.db #0xFE
   0F99 9F                 4282 	.db #0x9F
   0F9A FF                 4283 	.db #0xFF
   0F9B E3                 4284 	.db #0xE3
   0F9C FF                 4285 	.db #0xFF
   0F9D FB                 4286 	.db #0xFB
   0F9E FE                 4287 	.db #0xFE
   0F9F FF                 4288 	.db #0xFF
   0FA0 00                 4289 	.db #0x00
   0FA1 FF                 4290 	.db #0xFF
   0FA2 00                 4291 	.db #0x00
   0FA3 FF                 4292 	.db #0xFF
   0FA4 00                 4293 	.db #0x00
   0FA5 FF                 4294 	.db #0xFF
   0FA6 00                 4295 	.db #0x00
   0FA7 FF                 4296 	.db #0xFF
   0FA8 00                 4297 	.db #0x00
   0FA9 FF                 4298 	.db #0xFF
   0FAA 00                 4299 	.db #0x00
   0FAB FF                 4300 	.db #0xFF
   0FAC C0                 4301 	.db #0xC0
   0FAD FF                 4302 	.db #0xFF
   0FAE 38                 4303 	.db #0x38
   0FAF FF                 4304 	.db #0xFF
   0FB0 00                 4305 	.db #0x00
   0FB1 FF                 4306 	.db #0xFF
   0FB2 00                 4307 	.db #0x00
   0FB3 FF                 4308 	.db #0xFF
   0FB4 00                 4309 	.db #0x00
   0FB5 FF                 4310 	.db #0xFF
   0FB6 00                 4311 	.db #0x00
   0FB7 FF                 4312 	.db #0xFF
   0FB8 00                 4313 	.db #0x00
   0FB9 FF                 4314 	.db #0xFF
   0FBA 00                 4315 	.db #0x00
   0FBB FF                 4316 	.db #0xFF
   0FBC 03                 4317 	.db #0x03
   0FBD FF                 4318 	.db #0xFF
   0FBE 1C                 4319 	.db #0x1C
   0FBF FC                 4320 	.db #0xFC
   0FC0 07                 4321 	.db #0x07
   0FC1 F8                 4322 	.db #0xF8
   0FC2 0F                 4323 	.db #0x0F
   0FC3 F0                 4324 	.db #0xF0
   0FC4 1F                 4325 	.db #0x1F
   0FC5 F0                 4326 	.db #0xF0
   0FC6 1F                 4327 	.db #0x1F
   0FC7 E3                 4328 	.db #0xE3
   0FC8 7F                 4329 	.db #0x7F
   0FC9 FD                 4330 	.db #0xFD
   0FCA FF                 4331 	.db #0xFF
   0FCB C7                 4332 	.db #0xC7
   0FCC 7F                 4333 	.db #0x7F
   0FCD DF                 4334 	.db #0xDF
   0FCE 7F                 4335 	.db #0x7F
   0FCF 15                 4336 	.db #0x15
   0FD0 FF                 4337 	.db #0xFF
   0FD1 3B                 4338 	.db #0x3B
   0FD2 FF                 4339 	.db #0xFF
   0FD3 7B                 4340 	.db #0x7B
   0FD4 FF                 4341 	.db #0xFF
   0FD5 FB                 4342 	.db #0xFB
   0FD6 FF                 4343 	.db #0xFF
   0FD7 DB                 4344 	.db #0xDB
   0FD8 FF                 4345 	.db #0xFF
   0FD9 DB                 4346 	.db #0xDB
   0FDA FF                 4347 	.db #0xFF
   0FDB DB                 4348 	.db #0xDB
   0FDC FF                 4349 	.db #0xFF
   0FDD 5D                 4350 	.db #0x5D
   0FDE FF                 4351 	.db #0xFF
   0FDF BA                 4352 	.db #0xBA
   0FE0 FF                 4353 	.db #0xFF
   0FE1 BA                 4354 	.db #0xBA
   0FE2 FF                 4355 	.db #0xFF
   0FE3 B6                 4356 	.db #0xB6
   0FE4 FF                 4357 	.db #0xFF
   0FE5 75                 4358 	.db #0x75
   0FE6 FF                 4359 	.db #0xFF
   0FE7 D5                 4360 	.db #0xD5
   0FE8 FF                 4361 	.db #0xFF
   0FE9 D5                 4362 	.db #0xD5
   0FEA FF                 4363 	.db #0xFF
   0FEB B5                 4364 	.db #0xB5
   0FEC FF                 4365 	.db #0xFF
   0FED FF                 4366 	.db #0xFF
   0FEE FF                 4367 	.db #0xFF
   0FEF BB                 4368 	.db #0xBB
   0FF0 FE                 4369 	.db #0xFE
   0FF1 BB                 4370 	.db #0xBB
   0FF2 FE                 4371 	.db #0xFE
   0FF3 B3                 4372 	.db #0xB3
   0FF4 F2                 4373 	.db #0xF2
   0FF5 A7                 4374 	.db #0xA7
   0FF6 E0                 4375 	.db #0xE0
   0FF7 A7                 4376 	.db #0xA7
   0FF8 E0                 4377 	.db #0xE0
   0FF9 A7                 4378 	.db #0xA7
   0FFA E0                 4379 	.db #0xE0
   0FFB A3                 4380 	.db #0xA3
   0FFC E0                 4381 	.db #0xE0
   0FFD C0                 4382 	.db #0xC0
   0FFE C0                 4383 	.db #0xC0
   0FFF FF                 4384 	.db #0xFF
   1000 07                 4385 	.db #0x07
   1001 FF                 4386 	.db #0xFF
   1002 00                 4387 	.db #0x00
   1003 FF                 4388 	.db #0xFF
   1004 00                 4389 	.db #0x00
   1005 FF                 4390 	.db #0xFF
   1006 00                 4391 	.db #0x00
   1007 FF                 4392 	.db #0xFF
   1008 00                 4393 	.db #0x00
   1009 FF                 4394 	.db #0xFF
   100A 00                 4395 	.db #0x00
   100B FF                 4396 	.db #0xFF
   100C 00                 4397 	.db #0x00
   100D FF                 4398 	.db #0xFF
   100E 00                 4399 	.db #0x00
   100F FF                 4400 	.db #0xFF
   1010 E0                 4401 	.db #0xE0
   1011 FF                 4402 	.db #0xFF
   1012 00                 4403 	.db #0x00
   1013 FF                 4404 	.db #0xFF
   1014 00                 4405 	.db #0x00
   1015 FF                 4406 	.db #0xFF
   1016 00                 4407 	.db #0x00
   1017 FF                 4408 	.db #0xFF
   1018 00                 4409 	.db #0x00
   1019 FF                 4410 	.db #0xFF
   101A 00                 4411 	.db #0x00
   101B FF                 4412 	.db #0xFF
   101C 00                 4413 	.db #0x00
   101D FF                 4414 	.db #0xFF
   101E 00                 4415 	.db #0x00
   101F DD                 4416 	.db #0xDD
   1020 7F                 4417 	.db #0x7F
   1021 DD                 4418 	.db #0xDD
   1022 7F                 4419 	.db #0x7F
   1023 CD                 4420 	.db #0xCD
   1024 0F                 4421 	.db #0x0F
   1025 E5                 4422 	.db #0xE5
   1026 07                 4423 	.db #0x07
   1027 E5                 4424 	.db #0xE5
   1028 07                 4425 	.db #0x07
   1029 E5                 4426 	.db #0xE5
   102A 07                 4427 	.db #0x07
   102B C5                 4428 	.db #0xC5
   102C 07                 4429 	.db #0x07
   102D 83                 4430 	.db #0x83
   102E 03                 4431 	.db #0x03
   102F 5D                 4432 	.db #0x5D
   1030 FF                 4433 	.db #0xFF
   1031 5D                 4434 	.db #0x5D
   1032 FF                 4435 	.db #0xFF
   1033 6D                 4436 	.db #0x6D
   1034 FF                 4437 	.db #0xFF
   1035 AE                 4438 	.db #0xAE
   1036 FF                 4439 	.db #0xFF
   1037 AB                 4440 	.db #0xAB
   1038 FF                 4441 	.db #0xFF
   1039 AB                 4442 	.db #0xAB
   103A FF                 4443 	.db #0xFF
   103B AD                 4444 	.db #0xAD
   103C FF                 4445 	.db #0xFF
   103D FF                 4446 	.db #0xFF
   103E FF                 4447 	.db #0xFF
   103F F0                 4448 	.db #0xF0
   1040 1F                 4449 	.db #0x1F
   1041 FF                 4450 	.db #0xFF
   1042 0F                 4451 	.db #0x0F
   1043 FF                 4452 	.db #0xFF
   1044 00                 4453 	.db #0x00
   1045 FF                 4454 	.db #0xFF
   1046 00                 4455 	.db #0x00
   1047 FF                 4456 	.db #0xFF
   1048 00                 4457 	.db #0x00
   1049 FF                 4458 	.db #0xFF
   104A 00                 4459 	.db #0x00
   104B FF                 4460 	.db #0xFF
   104C C0                 4461 	.db #0xC0
   104D FF                 4462 	.db #0xFF
   104E 38                 4463 	.db #0x38
   104F 1F                 4464 	.db #0x1F
   1050 F8                 4465 	.db #0xF8
   1051 FF                 4466 	.db #0xFF
   1052 F0                 4467 	.db #0xF0
   1053 FF                 4468 	.db #0xFF
   1054 00                 4469 	.db #0x00
   1055 FF                 4470 	.db #0xFF
   1056 00                 4471 	.db #0x00
   1057 FF                 4472 	.db #0xFF
   1058 00                 4473 	.db #0x00
   1059 FF                 4474 	.db #0xFF
   105A 00                 4475 	.db #0x00
   105B FF                 4476 	.db #0xFF
   105C 03                 4477 	.db #0x03
   105D FF                 4478 	.db #0xFF
   105E 1C                 4479 	.db #0x1C
   105F FF                 4480 	.db #0xFF
   1060 1F                 4481 	.db #0x1F
   1061 F0                 4482 	.db #0xF0
   1062 1F                 4483 	.db #0x1F
   1063 F8                 4484 	.db #0xF8
   1064 0F                 4485 	.db #0x0F
   1065 FF                 4486 	.db #0xFF
   1066 07                 4487 	.db #0x07
   1067 FF                 4488 	.db #0xFF
   1068 00                 4489 	.db #0x00
   1069 FF                 4490 	.db #0xFF
   106A 00                 4491 	.db #0x00
   106B FF                 4492 	.db #0xFF
   106C C0                 4493 	.db #0xC0
   106D FF                 4494 	.db #0xFF
   106E 38                 4495 	.db #0x38
   106F FF                 4496 	.db #0xFF
   1070 F8                 4497 	.db #0xF8
   1071 0F                 4498 	.db #0x0F
   1072 F8                 4499 	.db #0xF8
   1073 1F                 4500 	.db #0x1F
   1074 F0                 4501 	.db #0xF0
   1075 FF                 4502 	.db #0xFF
   1076 E0                 4503 	.db #0xE0
   1077 FF                 4504 	.db #0xFF
   1078 00                 4505 	.db #0x00
   1079 FF                 4506 	.db #0xFF
   107A 00                 4507 	.db #0x00
   107B FF                 4508 	.db #0xFF
   107C 03                 4509 	.db #0x03
   107D FF                 4510 	.db #0xFF
   107E 1C                 4511 	.db #0x1C
   107F 0F                 4512 	.db #0x0F
   1080 F8                 4513 	.db #0xF8
   1081 9F                 4514 	.db #0x9F
   1082 F0                 4515 	.db #0xF0
   1083 9F                 4516 	.db #0x9F
   1084 F0                 4517 	.db #0xF0
   1085 9F                 4518 	.db #0x9F
   1086 FF                 4519 	.db #0xFF
   1087 9F                 4520 	.db #0x9F
   1088 F0                 4521 	.db #0xF0
   1089 9F                 4522 	.db #0x9F
   108A F0                 4523 	.db #0xF0
   108B BF                 4524 	.db #0xBF
   108C E0                 4525 	.db #0xE0
   108D BF                 4526 	.db #0xBF
   108E E0                 4527 	.db #0xE0
   108F B8                 4528 	.db #0xB8
   1090 FF                 4529 	.db #0xFF
   1091 9C                 4530 	.db #0x9C
   1092 FF                 4531 	.db #0xFF
   1093 CE                 4532 	.db #0xCE
   1094 7F                 4533 	.db #0x7F
   1095 E3                 4534 	.db #0xE3
   1096 FF                 4535 	.db #0xFF
   1097 F8                 4536 	.db #0xF8
   1098 3F                 4537 	.db #0x3F
   1099 FE                 4538 	.db #0xFE
   109A 0F                 4539 	.db #0x0F
   109B FF                 4540 	.db #0xFF
   109C 01                 4541 	.db #0x01
   109D FF                 4542 	.db #0xFF
   109E 00                 4543 	.db #0x00
   109F 18                 4544 	.db #0x18
   10A0 FF                 4545 	.db #0xFF
   10A1 1C                 4546 	.db #0x1C
   10A2 F7                 4547 	.db #0xF7
   10A3 1C                 4548 	.db #0x1C
   10A4 F7                 4549 	.db #0xF7
   10A5 8E                 4550 	.db #0x8E
   10A6 FF                 4551 	.db #0xFF
   10A7 C6                 4552 	.db #0xC6
   10A8 FF                 4553 	.db #0xFF
   10A9 73                 4554 	.db #0x73
   10AA FF                 4555 	.db #0xFF
   10AB FF                 4556 	.db #0xFF
   10AC 8E                 4557 	.db #0x8E
   10AD FF                 4558 	.db #0xFF
   10AE 00                 4559 	.db #0x00
   10AF 00                 4560 	.db #0x00
   10B0 FF                 4561 	.db #0xFF
   10B1 00                 4562 	.db #0x00
   10B2 FF                 4563 	.db #0xFF
   10B3 00                 4564 	.db #0x00
   10B4 FF                 4565 	.db #0xFF
   10B5 00                 4566 	.db #0x00
   10B6 FF                 4567 	.db #0xFF
   10B7 00                 4568 	.db #0x00
   10B8 FF                 4569 	.db #0xFF
   10B9 00                 4570 	.db #0x00
   10BA FF                 4571 	.db #0xFF
   10BB 80                 4572 	.db #0x80
   10BC FF                 4573 	.db #0xFF
   10BD C0                 4574 	.db #0xC0
   10BE 7F                 4575 	.db #0x7F
   10BF FF                 4576 	.db #0xFF
   10C0 40                 4577 	.db #0x40
   10C1 FF                 4578 	.db #0xFF
   10C2 00                 4579 	.db #0x00
   10C3 FF                 4580 	.db #0xFF
   10C4 20                 4581 	.db #0x20
   10C5 FF                 4582 	.db #0xFF
   10C6 10                 4583 	.db #0x10
   10C7 FF                 4584 	.db #0xFF
   10C8 08                 4585 	.db #0x08
   10C9 FF                 4586 	.db #0xFF
   10CA 07                 4587 	.db #0x07
   10CB FF                 4588 	.db #0xFF
   10CC 00                 4589 	.db #0x00
   10CD FF                 4590 	.db #0xFF
   10CE 00                 4591 	.db #0x00
   10CF FF                 4592 	.db #0xFF
   10D0 00                 4593 	.db #0x00
   10D1 FF                 4594 	.db #0xFF
   10D2 00                 4595 	.db #0x00
   10D3 FF                 4596 	.db #0xFF
   10D4 00                 4597 	.db #0x00
   10D5 FF                 4598 	.db #0xFF
   10D6 10                 4599 	.db #0x10
   10D7 FF                 4600 	.db #0xFF
   10D8 20                 4601 	.db #0x20
   10D9 FF                 4602 	.db #0xFF
   10DA C0                 4603 	.db #0xC0
   10DB FF                 4604 	.db #0xFF
   10DC 00                 4605 	.db #0x00
   10DD FF                 4606 	.db #0xFF
   10DE 00                 4607 	.db #0x00
   10DF FF                 4608 	.db #0xFF
   10E0 00                 4609 	.db #0x00
   10E1 FF                 4610 	.db #0xFF
   10E2 00                 4611 	.db #0x00
   10E3 FF                 4612 	.db #0xFF
   10E4 00                 4613 	.db #0x00
   10E5 FF                 4614 	.db #0xFF
   10E6 08                 4615 	.db #0x08
   10E7 FF                 4616 	.db #0xFF
   10E8 04                 4617 	.db #0x04
   10E9 FF                 4618 	.db #0xFF
   10EA 03                 4619 	.db #0x03
   10EB FF                 4620 	.db #0xFF
   10EC 00                 4621 	.db #0x00
   10ED FF                 4622 	.db #0xFF
   10EE 00                 4623 	.db #0x00
   10EF E0                 4624 	.db #0xE0
   10F0 3F                 4625 	.db #0x3F
   10F1 FC                 4626 	.db #0xFC
   10F2 1F                 4627 	.db #0x1F
   10F3 FF                 4628 	.db #0xFF
   10F4 05                 4629 	.db #0x05
   10F5 FF                 4630 	.db #0xFF
   10F6 08                 4631 	.db #0x08
   10F7 FF                 4632 	.db #0xFF
   10F8 10                 4633 	.db #0x10
   10F9 FF                 4634 	.db #0xFF
   10FA E0                 4635 	.db #0xE0
   10FB FF                 4636 	.db #0xFF
   10FC 00                 4637 	.db #0x00
   10FD FF                 4638 	.db #0xFF
   10FE 00                 4639 	.db #0x00
   10FF 00                 4640 	.db #0x00
   1100 00                 4641 	.db #0x00
   1101 00                 4642 	.db #0x00
   1102 00                 4643 	.db #0x00
   1103 00                 4644 	.db #0x00
   1104 00                 4645 	.db #0x00
   1105 00                 4646 	.db #0x00
   1106 00                 4647 	.db #0x00
   1107 00                 4648 	.db #0x00
   1108 00                 4649 	.db #0x00
   1109 00                 4650 	.db #0x00
   110A 01                 4651 	.db #0x01
   110B 00                 4652 	.db #0x00
   110C 03                 4653 	.db #0x03
   110D 00                 4654 	.db #0x00
   110E 0F                 4655 	.db #0x0F
   110F 00                 4656 	.db #0x00
   1110 00                 4657 	.db #0x00
   1111 00                 4658 	.db #0x00
   1112 00                 4659 	.db #0x00
   1113 00                 4660 	.db #0x00
   1114 01                 4661 	.db #0x01
   1115 00                 4662 	.db #0x00
   1116 0F                 4663 	.db #0x0F
   1117 01                 4664 	.db #0x01
   1118 3E                 4665 	.db #0x3E
   1119 1F                 4666 	.db #0x1F
   111A E0                 4667 	.db #0xE0
   111B 3F                 4668 	.db #0x3F
   111C C0                 4669 	.db #0xC0
   111D FF                 4670 	.db #0xFF
   111E 00                 4671 	.db #0x00
   111F 00                 4672 	.db #0x00
   1120 00                 4673 	.db #0x00
   1121 00                 4674 	.db #0x00
   1122 00                 4675 	.db #0x00
   1123 00                 4676 	.db #0x00
   1124 FF                 4677 	.db #0xFF
   1125 7F                 4678 	.db #0x7F
   1126 80                 4679 	.db #0x80
   1127 FF                 4680 	.db #0xFF
   1128 00                 4681 	.db #0x00
   1129 FF                 4682 	.db #0xFF
   112A 00                 4683 	.db #0x00
   112B FF                 4684 	.db #0xFF
   112C 00                 4685 	.db #0x00
   112D FF                 4686 	.db #0xFF
   112E 00                 4687 	.db #0x00
   112F 00                 4688 	.db #0x00
   1130 00                 4689 	.db #0x00
   1131 00                 4690 	.db #0x00
   1132 00                 4691 	.db #0x00
   1133 00                 4692 	.db #0x00
   1134 FF                 4693 	.db #0xFF
   1135 FE                 4694 	.db #0xFE
   1136 01                 4695 	.db #0x01
   1137 FF                 4696 	.db #0xFF
   1138 00                 4697 	.db #0x00
   1139 FF                 4698 	.db #0xFF
   113A 00                 4699 	.db #0x00
   113B FF                 4700 	.db #0xFF
   113C 00                 4701 	.db #0x00
   113D FF                 4702 	.db #0xFF
   113E 00                 4703 	.db #0x00
   113F 00                 4704 	.db #0x00
   1140 00                 4705 	.db #0x00
   1141 00                 4706 	.db #0x00
   1142 00                 4707 	.db #0x00
   1143 00                 4708 	.db #0x00
   1144 80                 4709 	.db #0x80
   1145 00                 4710 	.db #0x00
   1146 F0                 4711 	.db #0xF0
   1147 80                 4712 	.db #0x80
   1148 7C                 4713 	.db #0x7C
   1149 F8                 4714 	.db #0xF8
   114A 07                 4715 	.db #0x07
   114B FE                 4716 	.db #0xFE
   114C 01                 4717 	.db #0x01
   114D FF                 4718 	.db #0xFF
   114E 00                 4719 	.db #0x00
   114F 00                 4720 	.db #0x00
   1150 00                 4721 	.db #0x00
   1151 00                 4722 	.db #0x00
   1152 00                 4723 	.db #0x00
   1153 00                 4724 	.db #0x00
   1154 00                 4725 	.db #0x00
   1155 00                 4726 	.db #0x00
   1156 00                 4727 	.db #0x00
   1157 00                 4728 	.db #0x00
   1158 00                 4729 	.db #0x00
   1159 00                 4730 	.db #0x00
   115A C0                 4731 	.db #0xC0
   115B 00                 4732 	.db #0x00
   115C E0                 4733 	.db #0xE0
   115D 80                 4734 	.db #0x80
   115E 78                 4735 	.db #0x78
   115F 01                 4736 	.db #0x01
   1160 1E                 4737 	.db #0x1E
   1161 03                 4738 	.db #0x03
   1162 3C                 4739 	.db #0x3C
   1163 0F                 4740 	.db #0x0F
   1164 F0                 4741 	.db #0xF0
   1165 1F                 4742 	.db #0x1F
   1166 E0                 4743 	.db #0xE0
   1167 3F                 4744 	.db #0x3F
   1168 C0                 4745 	.db #0xC0
   1169 7F                 4746 	.db #0x7F
   116A 80                 4747 	.db #0x80
   116B 7F                 4748 	.db #0x7F
   116C 80                 4749 	.db #0x80
   116D 7F                 4750 	.db #0x7F
   116E 80                 4751 	.db #0x80
   116F FF                 4752 	.db #0xFF
   1170 00                 4753 	.db #0x00
   1171 FF                 4754 	.db #0xFF
   1172 00                 4755 	.db #0x00
   1173 FF                 4756 	.db #0xFF
   1174 00                 4757 	.db #0x00
   1175 FF                 4758 	.db #0xFF
   1176 00                 4759 	.db #0x00
   1177 FF                 4760 	.db #0xFF
   1178 00                 4761 	.db #0x00
   1179 FF                 4762 	.db #0xFF
   117A 00                 4763 	.db #0x00
   117B FF                 4764 	.db #0xFF
   117C 00                 4765 	.db #0x00
   117D FF                 4766 	.db #0xFF
   117E 00                 4767 	.db #0x00
   117F FF                 4768 	.db #0xFF
   1180 00                 4769 	.db #0x00
   1181 FF                 4770 	.db #0xFF
   1182 00                 4771 	.db #0x00
   1183 FF                 4772 	.db #0xFF
   1184 00                 4773 	.db #0x00
   1185 FF                 4774 	.db #0xFF
   1186 00                 4775 	.db #0x00
   1187 FF                 4776 	.db #0xFF
   1188 00                 4777 	.db #0x00
   1189 FF                 4778 	.db #0xFF
   118A 00                 4779 	.db #0x00
   118B 7F                 4780 	.db #0x7F
   118C 80                 4781 	.db #0x80
   118D 7F                 4782 	.db #0x7F
   118E 80                 4783 	.db #0x80
   118F FF                 4784 	.db #0xFF
   1190 00                 4785 	.db #0x00
   1191 FF                 4786 	.db #0xFF
   1192 00                 4787 	.db #0x00
   1193 FF                 4788 	.db #0xFF
   1194 00                 4789 	.db #0x00
   1195 FF                 4790 	.db #0xFF
   1196 00                 4791 	.db #0x00
   1197 FF                 4792 	.db #0xFF
   1198 00                 4793 	.db #0x00
   1199 FF                 4794 	.db #0xFF
   119A 00                 4795 	.db #0x00
   119B FE                 4796 	.db #0xFE
   119C 00                 4797 	.db #0x00
   119D FE                 4798 	.db #0xFE
   119E 01                 4799 	.db #0x01
   119F FF                 4800 	.db #0xFF
   11A0 00                 4801 	.db #0x00
   11A1 FF                 4802 	.db #0xFF
   11A2 00                 4803 	.db #0x00
   11A3 FF                 4804 	.db #0xFF
   11A4 00                 4805 	.db #0x00
   11A5 FF                 4806 	.db #0xFF
   11A6 00                 4807 	.db #0x00
   11A7 FF                 4808 	.db #0xFF
   11A8 00                 4809 	.db #0x00
   11A9 FF                 4810 	.db #0xFF
   11AA 00                 4811 	.db #0x00
   11AB FF                 4812 	.db #0xFF
   11AC 00                 4813 	.db #0x00
   11AD FF                 4814 	.db #0xFF
   11AE 00                 4815 	.db #0x00
   11AF C0                 4816 	.db #0xC0
   11B0 3C                 4817 	.db #0x3C
   11B1 E0                 4818 	.db #0xE0
   11B2 1E                 4819 	.db #0x1E
   11B3 F8                 4820 	.db #0xF8
   11B4 07                 4821 	.db #0x07
   11B5 FC                 4822 	.db #0xFC
   11B6 03                 4823 	.db #0x03
   11B7 FE                 4824 	.db #0xFE
   11B8 01                 4825 	.db #0x01
   11B9 FF                 4826 	.db #0xFF
   11BA 00                 4827 	.db #0x00
   11BB FF                 4828 	.db #0xFF
   11BC 00                 4829 	.db #0x00
   11BD FF                 4830 	.db #0xFF
   11BE 00                 4831 	.db #0x00
   11BF FF                 4832 	.db #0xFF
   11C0 00                 4833 	.db #0x00
   11C1 FF                 4834 	.db #0xFF
   11C2 00                 4835 	.db #0x00
   11C3 FF                 4836 	.db #0xFF
   11C4 00                 4837 	.db #0x00
   11C5 FF                 4838 	.db #0xFF
   11C6 00                 4839 	.db #0x00
   11C7 FF                 4840 	.db #0xFF
   11C8 00                 4841 	.db #0x00
   11C9 FF                 4842 	.db #0xFF
   11CA 00                 4843 	.db #0x00
   11CB FF                 4844 	.db #0xFF
   11CC 00                 4845 	.db #0x00
   11CD FF                 4846 	.db #0xFF
   11CE 00                 4847 	.db #0x00
   11CF DE                 4848 	.db #0xDE
   11D0 20                 4849 	.db #0x20
   11D1 DE                 4850 	.db #0xDE
   11D2 20                 4851 	.db #0x20
   11D3 DC                 4852 	.db #0xDC
   11D4 21                 4853 	.db #0x21
   11D5 BC                 4854 	.db #0xBC
   11D6 01                 4855 	.db #0x01
   11D7 B8                 4856 	.db #0xB8
   11D8 01                 4857 	.db #0x01
   11D9 B8                 4858 	.db #0xB8
   11DA 01                 4859 	.db #0x01
   11DB 38                 4860 	.db #0x38
   11DC 01                 4861 	.db #0x01
   11DD 01                 4862 	.db #0x01
   11DE 7E                 4863 	.db #0x7E
   11DF 7F                 4864 	.db #0x7F
   11E0 80                 4865 	.db #0x80
   11E1 7F                 4866 	.db #0x7F
   11E2 80                 4867 	.db #0x80
   11E3 FF                 4868 	.db #0xFF
   11E4 00                 4869 	.db #0x00
   11E5 FF                 4870 	.db #0xFF
   11E6 00                 4871 	.db #0x00
   11E7 FF                 4872 	.db #0xFF
   11E8 00                 4873 	.db #0x00
   11E9 FF                 4874 	.db #0xFF
   11EA 00                 4875 	.db #0x00
   11EB FF                 4876 	.db #0xFF
   11EC 00                 4877 	.db #0x00
   11ED FF                 4878 	.db #0xFF
   11EE 00                 4879 	.db #0x00
   11EF FE                 4880 	.db #0xFE
   11F0 01                 4881 	.db #0x01
   11F1 FE                 4882 	.db #0xFE
   11F2 01                 4883 	.db #0x01
   11F3 FF                 4884 	.db #0xFF
   11F4 00                 4885 	.db #0x00
   11F5 FF                 4886 	.db #0xFF
   11F6 00                 4887 	.db #0x00
   11F7 FF                 4888 	.db #0xFF
   11F8 00                 4889 	.db #0x00
   11F9 FF                 4890 	.db #0xFF
   11FA 00                 4891 	.db #0x00
   11FB FF                 4892 	.db #0xFF
   11FC 00                 4893 	.db #0x00
   11FD FF                 4894 	.db #0xFF
   11FE 00                 4895 	.db #0x00
   11FF 79                 4896 	.db #0x79
   1200 04                 4897 	.db #0x04
   1201 79                 4898 	.db #0x79
   1202 04                 4899 	.db #0x04
   1203 39                 4900 	.db #0x39
   1204 84                 4901 	.db #0x84
   1205 3C                 4902 	.db #0x3C
   1206 82                 4903 	.db #0x82
   1207 1C                 4904 	.db #0x1C
   1208 82                 4905 	.db #0x82
   1209 1C                 4906 	.db #0x1C
   120A 82                 4907 	.db #0x82
   120B 1C                 4908 	.db #0x1C
   120C 82                 4909 	.db #0x82
   120D 80                 4910 	.db #0x80
   120E 7F                 4911 	.db #0x7F
   120F FF                 4912 	.db #0xFF
   1210 00                 4913 	.db #0x00
   1211 FF                 4914 	.db #0xFF
   1212 00                 4915 	.db #0x00
   1213 FF                 4916 	.db #0xFF
   1214 00                 4917 	.db #0x00
   1215 FF                 4918 	.db #0xFF
   1216 00                 4919 	.db #0x00
   1217 FF                 4920 	.db #0xFF
   1218 00                 4921 	.db #0x00
   1219 FF                 4922 	.db #0xFF
   121A 00                 4923 	.db #0x00
   121B 7F                 4924 	.db #0x7F
   121C 00                 4925 	.db #0x00
   121D 7F                 4926 	.db #0x7F
   121E 00                 4927 	.db #0x00
   121F FF                 4928 	.db #0xFF
   1220 00                 4929 	.db #0x00
   1221 FF                 4930 	.db #0xFF
   1222 00                 4931 	.db #0x00
   1223 FF                 4932 	.db #0xFF
   1224 00                 4933 	.db #0x00
   1225 FB                 4934 	.db #0xFB
   1226 00                 4935 	.db #0x00
   1227 79                 4936 	.db #0x79
   1228 82                 4937 	.db #0x82
   1229 B9                 4938 	.db #0xB9
   122A 42                 4939 	.db #0x42
   122B BD                 4940 	.db #0xBD
   122C 40                 4941 	.db #0x40
   122D 9D                 4942 	.db #0x9D
   122E 60                 4943 	.db #0x60
   122F 00                 4944 	.db #0x00
   1230 41                 4945 	.db #0x41
   1231 00                 4946 	.db #0x00
   1232 40                 4947 	.db #0x40
   1233 00                 4948 	.db #0x00
   1234 40                 4949 	.db #0x40
   1235 00                 4950 	.db #0x00
   1236 40                 4951 	.db #0x40
   1237 80                 4952 	.db #0x80
   1238 5C                 4953 	.db #0x5C
   1239 00                 4954 	.db #0x00
   123A 43                 4955 	.db #0x43
   123B 00                 4956 	.db #0x00
   123C 43                 4957 	.db #0x43
   123D 00                 4958 	.db #0x00
   123E 43                 4959 	.db #0x43
   123F 3F                 4960 	.db #0x3F
   1240 C0                 4961 	.db #0xC0
   1241 00                 4962 	.db #0x00
   1242 3F                 4963 	.db #0x3F
   1243 00                 4964 	.db #0x00
   1244 00                 4965 	.db #0x00
   1245 00                 4966 	.db #0x00
   1246 00                 4967 	.db #0x00
   1247 00                 4968 	.db #0x00
   1248 00                 4969 	.db #0x00
   1249 00                 4970 	.db #0x00
   124A 00                 4971 	.db #0x00
   124B 00                 4972 	.db #0x00
   124C E0                 4973 	.db #0xE0
   124D 00                 4974 	.db #0x00
   124E F8                 4975 	.db #0xF8
   124F FC                 4976 	.db #0xFC
   1250 03                 4977 	.db #0x03
   1251 00                 4978 	.db #0x00
   1252 FC                 4979 	.db #0xFC
   1253 00                 4980 	.db #0x00
   1254 00                 4981 	.db #0x00
   1255 00                 4982 	.db #0x00
   1256 00                 4983 	.db #0x00
   1257 00                 4984 	.db #0x00
   1258 00                 4985 	.db #0x00
   1259 00                 4986 	.db #0x00
   125A 00                 4987 	.db #0x00
   125B 00                 4988 	.db #0x00
   125C 07                 4989 	.db #0x07
   125D 00                 4990 	.db #0x00
   125E 1F                 4991 	.db #0x1F
   125F 00                 4992 	.db #0x00
   1260 81                 4993 	.db #0x81
   1261 00                 4994 	.db #0x00
   1262 01                 4995 	.db #0x01
   1263 00                 4996 	.db #0x00
   1264 01                 4997 	.db #0x01
   1265 00                 4998 	.db #0x00
   1266 01                 4999 	.db #0x01
   1267 00                 5000 	.db #0x00
   1268 39                 5001 	.db #0x39
   1269 00                 5002 	.db #0x00
   126A C1                 5003 	.db #0xC1
   126B 00                 5004 	.db #0x00
   126C C1                 5005 	.db #0xC1
   126D 00                 5006 	.db #0x00
   126E C1                 5007 	.db #0xC1
   126F 7F                 5008 	.db #0x7F
   1270 00                 5009 	.db #0x00
   1271 7F                 5010 	.db #0x7F
   1272 00                 5011 	.db #0x00
   1273 7F                 5012 	.db #0x7F
   1274 00                 5013 	.db #0x00
   1275 6F                 5014 	.db #0x6F
   1276 00                 5015 	.db #0x00
   1277 CF                 5016 	.db #0xCF
   1278 20                 5017 	.db #0x20
   1279 4E                 5018 	.db #0x4E
   127A 21                 5019 	.db #0x21
   127B 5E                 5020 	.db #0x5E
   127C 01                 5021 	.db #0x01
   127D 5C                 5022 	.db #0x5C
   127E 03                 5023 	.db #0x03
   127F BC                 5024 	.db #0xBC
   1280 41                 5025 	.db #0x41
   1281 7D                 5026 	.db #0x7D
   1282 80                 5027 	.db #0x80
   1283 FD                 5028 	.db #0xFD
   1284 00                 5029 	.db #0x00
   1285 FD                 5030 	.db #0xFD
   1286 02                 5031 	.db #0x02
   1287 FD                 5032 	.db #0xFD
   1288 02                 5033 	.db #0x02
   1289 E3                 5034 	.db #0xE3
   128A 1C                 5035 	.db #0x1C
   128B FF                 5036 	.db #0xFF
   128C 00                 5037 	.db #0x00
   128D 0F                 5038 	.db #0x0F
   128E F0                 5039 	.db #0xF0
   128F 00                 5040 	.db #0x00
   1290 43                 5041 	.db #0x43
   1291 80                 5042 	.db #0x80
   1292 43                 5043 	.db #0x43
   1293 80                 5044 	.db #0x80
   1294 43                 5045 	.db #0x43
   1295 80                 5046 	.db #0x80
   1296 41                 5047 	.db #0x41
   1297 80                 5048 	.db #0x80
   1298 41                 5049 	.db #0x41
   1299 80                 5050 	.db #0x80
   129A 41                 5051 	.db #0x41
   129B 80                 5052 	.db #0x80
   129C 40                 5053 	.db #0x40
   129D C0                 5054 	.db #0xC0
   129E 00                 5055 	.db #0x00
   129F 00                 5056 	.db #0x00
   12A0 F8                 5057 	.db #0xF8
   12A1 00                 5058 	.db #0x00
   12A2 F8                 5059 	.db #0xF8
   12A3 00                 5060 	.db #0x00
   12A4 F8                 5061 	.db #0xF8
   12A5 00                 5062 	.db #0x00
   12A6 F8                 5063 	.db #0xF8
   12A7 00                 5064 	.db #0x00
   12A8 F8                 5065 	.db #0xF8
   12A9 00                 5066 	.db #0x00
   12AA F0                 5067 	.db #0xF0
   12AB 00                 5068 	.db #0x00
   12AC 00                 5069 	.db #0x00
   12AD 00                 5070 	.db #0x00
   12AE 00                 5071 	.db #0x00
   12AF 00                 5072 	.db #0x00
   12B0 1F                 5073 	.db #0x1F
   12B1 00                 5074 	.db #0x00
   12B2 1F                 5075 	.db #0x1F
   12B3 00                 5076 	.db #0x00
   12B4 1F                 5077 	.db #0x1F
   12B5 00                 5078 	.db #0x00
   12B6 1F                 5079 	.db #0x1F
   12B7 00                 5080 	.db #0x00
   12B8 1F                 5081 	.db #0x1F
   12B9 00                 5082 	.db #0x00
   12BA 0F                 5083 	.db #0x0F
   12BB 00                 5084 	.db #0x00
   12BC 00                 5085 	.db #0x00
   12BD 00                 5086 	.db #0x00
   12BE 00                 5087 	.db #0x00
   12BF 00                 5088 	.db #0x00
   12C0 C1                 5089 	.db #0xC1
   12C1 00                 5090 	.db #0x00
   12C2 C1                 5091 	.db #0xC1
   12C3 00                 5092 	.db #0x00
   12C4 C1                 5093 	.db #0xC1
   12C5 00                 5094 	.db #0x00
   12C6 81                 5095 	.db #0x81
   12C7 00                 5096 	.db #0x00
   12C8 81                 5097 	.db #0x81
   12C9 00                 5098 	.db #0x00
   12CA 81                 5099 	.db #0x81
   12CB 00                 5100 	.db #0x00
   12CC 01                 5101 	.db #0x01
   12CD 01                 5102 	.db #0x01
   12CE 02                 5103 	.db #0x02
   12CF 1E                 5104 	.db #0x1E
   12D0 41                 5105 	.db #0x41
   12D1 DF                 5106 	.db #0xDF
   12D2 00                 5107 	.db #0x00
   12D3 DF                 5108 	.db #0xDF
   12D4 00                 5109 	.db #0x00
   12D5 DF                 5110 	.db #0xDF
   12D6 20                 5111 	.db #0x20
   12D7 DF                 5112 	.db #0xDF
   12D8 20                 5113 	.db #0x20
   12D9 E3                 5114 	.db #0xE3
   12DA 1C                 5115 	.db #0x1C
   12DB FF                 5116 	.db #0xFF
   12DC 00                 5117 	.db #0x00
   12DD F8                 5118 	.db #0xF8
   12DE 07                 5119 	.db #0x07
   12DF F7                 5120 	.db #0xF7
   12E0 08                 5121 	.db #0x08
   12E1 FB                 5122 	.db #0xFB
   12E2 04                 5123 	.db #0x04
   12E3 FB                 5124 	.db #0xFB
   12E4 04                 5125 	.db #0x04
   12E5 BD                 5126 	.db #0xBD
   12E6 02                 5127 	.db #0x02
   12E7 0D                 5128 	.db #0x0D
   12E8 12                 5129 	.db #0x12
   12E9 85                 5130 	.db #0x85
   12EA 4A                 5131 	.db #0x4A
   12EB 83                 5132 	.db #0x83
   12EC 3C                 5133 	.db #0x3C
   12ED FF                 5134 	.db #0xFF
   12EE 00                 5135 	.db #0x00
   12EF C0                 5136 	.db #0xC0
   12F0 00                 5137 	.db #0x00
   12F1 C0                 5138 	.db #0xC0
   12F2 20                 5139 	.db #0x20
   12F3 C0                 5140 	.db #0xC0
   12F4 20                 5141 	.db #0x20
   12F5 C0                 5142 	.db #0xC0
   12F6 20                 5143 	.db #0x20
   12F7 C0                 5144 	.db #0xC0
   12F8 20                 5145 	.db #0x20
   12F9 C0                 5146 	.db #0xC0
   12FA 10                 5147 	.db #0x10
   12FB D0                 5148 	.db #0xD0
   12FC 28                 5149 	.db #0x28
   12FD D0                 5150 	.db #0xD0
   12FE 2C                 5151 	.db #0x2C
   12FF 00                 5152 	.db #0x00
   1300 00                 5153 	.db #0x00
   1301 00                 5154 	.db #0x00
   1302 02                 5155 	.db #0x02
   1303 00                 5156 	.db #0x00
   1304 00                 5157 	.db #0x00
   1305 00                 5158 	.db #0x00
   1306 00                 5159 	.db #0x00
   1307 00                 5160 	.db #0x00
   1308 70                 5161 	.db #0x70
   1309 00                 5162 	.db #0x00
   130A 1F                 5163 	.db #0x1F
   130B 07                 5164 	.db #0x07
   130C 08                 5165 	.db #0x08
   130D 07                 5166 	.db #0x07
   130E 08                 5167 	.db #0x08
   130F 00                 5168 	.db #0x00
   1310 00                 5169 	.db #0x00
   1311 00                 5170 	.db #0x00
   1312 40                 5171 	.db #0x40
   1313 00                 5172 	.db #0x00
   1314 00                 5173 	.db #0x00
   1315 00                 5174 	.db #0x00
   1316 00                 5175 	.db #0x00
   1317 00                 5176 	.db #0x00
   1318 0E                 5177 	.db #0x0E
   1319 00                 5178 	.db #0x00
   131A F8                 5179 	.db #0xF8
   131B E0                 5180 	.db #0xE0
   131C 10                 5181 	.db #0x10
   131D E0                 5182 	.db #0xE0
   131E 10                 5183 	.db #0x10
   131F 01                 5184 	.db #0x01
   1320 02                 5185 	.db #0x02
   1321 03                 5186 	.db #0x03
   1322 04                 5187 	.db #0x04
   1323 01                 5188 	.db #0x01
   1324 04                 5189 	.db #0x04
   1325 01                 5190 	.db #0x01
   1326 04                 5191 	.db #0x04
   1327 01                 5192 	.db #0x01
   1328 04                 5193 	.db #0x04
   1329 03                 5194 	.db #0x03
   132A 08                 5195 	.db #0x08
   132B 09                 5196 	.db #0x09
   132C 14                 5197 	.db #0x14
   132D 09                 5198 	.db #0x09
   132E 34                 5199 	.db #0x34
   132F F7                 5200 	.db #0xF7
   1330 08                 5201 	.db #0x08
   1331 EF                 5202 	.db #0xEF
   1332 10                 5203 	.db #0x10
   1333 EF                 5204 	.db #0xEF
   1334 10                 5205 	.db #0x10
   1335 DE                 5206 	.db #0xDE
   1336 20                 5207 	.db #0x20
   1337 D8                 5208 	.db #0xD8
   1338 24                 5209 	.db #0x24
   1339 D0                 5210 	.db #0xD0
   133A 29                 5211 	.db #0x29
   133B E0                 5212 	.db #0xE0
   133C 1E                 5213 	.db #0x1E
   133D FF                 5214 	.db #0xFF
   133E 00                 5215 	.db #0x00
   133F FF                 5216 	.db #0xFF
   1340 00                 5217 	.db #0x00
   1341 FF                 5218 	.db #0xFF
   1342 00                 5219 	.db #0x00
   1343 1C                 5220 	.db #0x1C
   1344 63                 5221 	.db #0x63
   1345 01                 5222 	.db #0x01
   1346 0E                 5223 	.db #0x0E
   1347 07                 5224 	.db #0x07
   1348 38                 5225 	.db #0x38
   1349 1F                 5226 	.db #0x1F
   134A 60                 5227 	.db #0x60
   134B 3F                 5228 	.db #0x3F
   134C 40                 5229 	.db #0x40
   134D 38                 5230 	.db #0x38
   134E 47                 5231 	.db #0x47
   134F F0                 5232 	.db #0xF0
   1350 0E                 5233 	.db #0x0E
   1351 B0                 5234 	.db #0xB0
   1352 0F                 5235 	.db #0x0F
   1353 F8                 5236 	.db #0xF8
   1354 07                 5237 	.db #0x07
   1355 F8                 5238 	.db #0xF8
   1356 07                 5239 	.db #0x07
   1357 F0                 5240 	.db #0xF0
   1358 07                 5241 	.db #0x07
   1359 30                 5242 	.db #0x30
   135A 43                 5243 	.db #0x43
   135B B8                 5244 	.db #0xB8
   135C 03                 5245 	.db #0x03
   135D FC                 5246 	.db #0xFC
   135E 01                 5247 	.db #0x01
   135F 00                 5248 	.db #0x00
   1360 07                 5249 	.db #0x07
   1361 00                 5250 	.db #0x00
   1362 00                 5251 	.db #0x00
   1363 00                 5252 	.db #0x00
   1364 E0                 5253 	.db #0xE0
   1365 00                 5254 	.db #0x00
   1366 90                 5255 	.db #0x90
   1367 00                 5256 	.db #0x00
   1368 0C                 5257 	.db #0x0C
   1369 00                 5258 	.db #0x00
   136A 03                 5259 	.db #0x03
   136B 00                 5260 	.db #0x00
   136C 00                 5261 	.db #0x00
   136D 00                 5262 	.db #0x00
   136E 00                 5263 	.db #0x00
   136F 00                 5264 	.db #0x00
   1370 E0                 5265 	.db #0xE0
   1371 00                 5266 	.db #0x00
   1372 00                 5267 	.db #0x00
   1373 00                 5268 	.db #0x00
   1374 07                 5269 	.db #0x07
   1375 00                 5270 	.db #0x00
   1376 09                 5271 	.db #0x09
   1377 00                 5272 	.db #0x00
   1378 30                 5273 	.db #0x30
   1379 00                 5274 	.db #0x00
   137A C0                 5275 	.db #0xC0
   137B 00                 5276 	.db #0x00
   137C 00                 5277 	.db #0x00
   137D 00                 5278 	.db #0x00
   137E 00                 5279 	.db #0x00
   137F 0D                 5280 	.db #0x0D
   1380 70                 5281 	.db #0x70
   1381 0C                 5282 	.db #0x0C
   1382 F0                 5283 	.db #0xF0
   1383 1F                 5284 	.db #0x1F
   1384 E0                 5285 	.db #0xE0
   1385 1F                 5286 	.db #0x1F
   1386 E0                 5287 	.db #0xE0
   1387 0F                 5288 	.db #0x0F
   1388 E0                 5289 	.db #0xE0
   1389 0E                 5290 	.db #0x0E
   138A C1                 5291 	.db #0xC1
   138B 1E                 5292 	.db #0x1E
   138C C0                 5293 	.db #0xC0
   138D 3D                 5294 	.db #0x3D
   138E 82                 5295 	.db #0x82
   138F FF                 5296 	.db #0xFF
   1390 00                 5297 	.db #0x00
   1391 FF                 5298 	.db #0xFF
   1392 00                 5299 	.db #0x00
   1393 9C                 5300 	.db #0x9C
   1394 63                 5301 	.db #0x63
   1395 C0                 5302 	.db #0xC0
   1396 38                 5303 	.db #0x38
   1397 F0                 5304 	.db #0xF0
   1398 0E                 5305 	.db #0x0E
   1399 7C                 5306 	.db #0x7C
   139A 03                 5307 	.db #0x03
   139B FE                 5308 	.db #0xFE
   139C 01                 5309 	.db #0x01
   139D 8E                 5310 	.db #0x8E
   139E 71                 5311 	.db #0x71
   139F 38                 5312 	.db #0x38
   13A0 44                 5313 	.db #0x44
   13A1 78                 5314 	.db #0x78
   13A2 84                 5315 	.db #0x84
   13A3 7C                 5316 	.db #0x7C
   13A4 82                 5317 	.db #0x82
   13A5 3E                 5318 	.db #0x3E
   13A6 41                 5319 	.db #0x41
   13A7 3F                 5320 	.db #0x3F
   13A8 40                 5321 	.db #0x40
   13A9 07                 5322 	.db #0x07
   13AA 18                 5323 	.db #0x18
   13AB 03                 5324 	.db #0x03
   13AC 04                 5325 	.db #0x04
   13AD 00                 5326 	.db #0x00
   13AE 1F                 5327 	.db #0x1F
   13AF FC                 5328 	.db #0xFC
   13B0 01                 5329 	.db #0x01
   13B1 7C                 5330 	.db #0x7C
   13B2 81                 5331 	.db #0x81
   13B3 3C                 5332 	.db #0x3C
   13B4 41                 5333 	.db #0x41
   13B5 3C                 5334 	.db #0x3C
   13B6 C1                 5335 	.db #0xC1
   13B7 FE                 5336 	.db #0xFE
   13B8 00                 5337 	.db #0x00
   13B9 FC                 5338 	.db #0xFC
   13BA 00                 5339 	.db #0x00
   13BB E0                 5340 	.db #0xE0
   13BC 18                 5341 	.db #0x18
   13BD 00                 5342 	.db #0x00
   13BE C0                 5343 	.db #0xC0
   13BF 00                 5344 	.db #0x00
   13C0 80                 5345 	.db #0x80
   13C1 80                 5346 	.db #0x80
   13C2 40                 5347 	.db #0x40
   13C3 C0                 5348 	.db #0xC0
   13C4 20                 5349 	.db #0x20
   13C5 E0                 5350 	.db #0xE0
   13C6 18                 5351 	.db #0x18
   13C7 38                 5352 	.db #0x38
   13C8 C7                 5353 	.db #0xC7
   13C9 02                 5354 	.db #0x02
   13CA 3C                 5355 	.db #0x3C
   13CB 00                 5356 	.db #0x00
   13CC 03                 5357 	.db #0x03
   13CD 00                 5358 	.db #0x00
   13CE 00                 5359 	.db #0x00
   13CF 00                 5360 	.db #0x00
   13D0 01                 5361 	.db #0x01
   13D1 01                 5362 	.db #0x01
   13D2 02                 5363 	.db #0x02
   13D3 03                 5364 	.db #0x03
   13D4 04                 5365 	.db #0x04
   13D5 07                 5366 	.db #0x07
   13D6 18                 5367 	.db #0x18
   13D7 1C                 5368 	.db #0x1C
   13D8 E3                 5369 	.db #0xE3
   13D9 40                 5370 	.db #0x40
   13DA 3C                 5371 	.db #0x3C
   13DB 00                 5372 	.db #0x00
   13DC C0                 5373 	.db #0xC0
   13DD 00                 5374 	.db #0x00
   13DE 00                 5375 	.db #0x00
   13DF 3D                 5376 	.db #0x3D
   13E0 82                 5377 	.db #0x82
   13E1 3D                 5378 	.db #0x3D
   13E2 82                 5379 	.db #0x82
   13E3 3C                 5380 	.db #0x3C
   13E4 83                 5381 	.db #0x83
   13E5 3E                 5382 	.db #0x3E
   13E6 81                 5383 	.db #0x81
   13E7 7F                 5384 	.db #0x7F
   13E8 00                 5385 	.db #0x00
   13E9 1F                 5386 	.db #0x1F
   13EA 20                 5387 	.db #0x20
   13EB 07                 5388 	.db #0x07
   13EC 18                 5389 	.db #0x18
   13ED 00                 5390 	.db #0x00
   13EE 07                 5391 	.db #0x07
   13EF 8E                 5392 	.db #0x8E
   13F0 11                 5393 	.db #0x11
   13F1 0F                 5394 	.db #0x0F
   13F2 90                 5395 	.db #0x90
   13F3 1F                 5396 	.db #0x1F
   13F4 20                 5397 	.db #0x20
   13F5 3E                 5398 	.db #0x3E
   13F6 C1                 5399 	.db #0xC1
   13F7 FE                 5400 	.db #0xFE
   13F8 01                 5401 	.db #0x01
   13F9 F0                 5402 	.db #0xF0
   13FA 0C                 5403 	.db #0x0C
   13FB E0                 5404 	.db #0xE0
   13FC 10                 5405 	.db #0x10
   13FD 00                 5406 	.db #0x00
   13FE FC                 5407 	.db #0xFC
   13FF 00                 5408 	.db #0x00
   1400 41                 5409 	.db #0x41
   1401 00                 5410 	.db #0x00
   1402 40                 5411 	.db #0x40
   1403 00                 5412 	.db #0x00
   1404 40                 5413 	.db #0x40
   1405 00                 5414 	.db #0x00
   1406 40                 5415 	.db #0x40
   1407 80                 5416 	.db #0x80
   1408 40                 5417 	.db #0x40
   1409 00                 5418 	.db #0x00
   140A 40                 5419 	.db #0x40
   140B 00                 5420 	.db #0x00
   140C 40                 5421 	.db #0x40
   140D 00                 5422 	.db #0x00
   140E 40                 5423 	.db #0x40
   140F 3F                 5424 	.db #0x3F
   1410 C0                 5425 	.db #0xC0
   1411 00                 5426 	.db #0x00
   1412 3F                 5427 	.db #0x3F
   1413 00                 5428 	.db #0x00
   1414 00                 5429 	.db #0x00
   1415 00                 5430 	.db #0x00
   1416 00                 5431 	.db #0x00
   1417 00                 5432 	.db #0x00
   1418 00                 5433 	.db #0x00
   1419 00                 5434 	.db #0x00
   141A 00                 5435 	.db #0x00
   141B 00                 5436 	.db #0x00
   141C 00                 5437 	.db #0x00
   141D 00                 5438 	.db #0x00
   141E 00                 5439 	.db #0x00
   141F FC                 5440 	.db #0xFC
   1420 03                 5441 	.db #0x03
   1421 00                 5442 	.db #0x00
   1422 FC                 5443 	.db #0xFC
   1423 00                 5444 	.db #0x00
   1424 00                 5445 	.db #0x00
   1425 00                 5446 	.db #0x00
   1426 00                 5447 	.db #0x00
   1427 00                 5448 	.db #0x00
   1428 00                 5449 	.db #0x00
   1429 00                 5450 	.db #0x00
   142A 00                 5451 	.db #0x00
   142B 00                 5452 	.db #0x00
   142C 00                 5453 	.db #0x00
   142D 00                 5454 	.db #0x00
   142E 00                 5455 	.db #0x00
   142F 00                 5456 	.db #0x00
   1430 81                 5457 	.db #0x81
   1431 00                 5458 	.db #0x00
   1432 01                 5459 	.db #0x01
   1433 00                 5460 	.db #0x00
   1434 01                 5461 	.db #0x01
   1435 00                 5462 	.db #0x00
   1436 01                 5463 	.db #0x01
   1437 00                 5464 	.db #0x00
   1438 01                 5465 	.db #0x01
   1439 00                 5466 	.db #0x00
   143A 01                 5467 	.db #0x01
   143B 00                 5468 	.db #0x00
   143C 01                 5469 	.db #0x01
   143D 00                 5470 	.db #0x00
   143E 01                 5471 	.db #0x01
   143F 00                 5472 	.db #0x00
   1440 40                 5473 	.db #0x40
   1441 80                 5474 	.db #0x80
   1442 40                 5475 	.db #0x40
   1443 80                 5476 	.db #0x80
   1444 44                 5477 	.db #0x44
   1445 80                 5478 	.db #0x80
   1446 43                 5479 	.db #0x43
   1447 80                 5480 	.db #0x80
   1448 40                 5481 	.db #0x40
   1449 80                 5482 	.db #0x80
   144A 40                 5483 	.db #0x40
   144B 80                 5484 	.db #0x80
   144C 40                 5485 	.db #0x40
   144D C0                 5486 	.db #0xC0
   144E 00                 5487 	.db #0x00
   144F 00                 5488 	.db #0x00
   1450 00                 5489 	.db #0x00
   1451 00                 5490 	.db #0x00
   1452 00                 5491 	.db #0x00
   1453 00                 5492 	.db #0x00
   1454 08                 5493 	.db #0x08
   1455 00                 5494 	.db #0x00
   1456 F0                 5495 	.db #0xF0
   1457 00                 5496 	.db #0x00
   1458 00                 5497 	.db #0x00
   1459 00                 5498 	.db #0x00
   145A 00                 5499 	.db #0x00
   145B 00                 5500 	.db #0x00
   145C 00                 5501 	.db #0x00
   145D 00                 5502 	.db #0x00
   145E 00                 5503 	.db #0x00
   145F 00                 5504 	.db #0x00
   1460 00                 5505 	.db #0x00
   1461 00                 5506 	.db #0x00
   1462 00                 5507 	.db #0x00
   1463 00                 5508 	.db #0x00
   1464 10                 5509 	.db #0x10
   1465 00                 5510 	.db #0x00
   1466 0F                 5511 	.db #0x0F
   1467 00                 5512 	.db #0x00
   1468 00                 5513 	.db #0x00
   1469 00                 5514 	.db #0x00
   146A 00                 5515 	.db #0x00
   146B 00                 5516 	.db #0x00
   146C 00                 5517 	.db #0x00
   146D 00                 5518 	.db #0x00
   146E 00                 5519 	.db #0x00
   146F 00                 5520 	.db #0x00
   1470 01                 5521 	.db #0x01
   1471 00                 5522 	.db #0x00
   1472 01                 5523 	.db #0x01
   1473 00                 5524 	.db #0x00
   1474 21                 5525 	.db #0x21
   1475 00                 5526 	.db #0x00
   1476 C1                 5527 	.db #0xC1
   1477 00                 5528 	.db #0x00
   1478 01                 5529 	.db #0x01
   1479 00                 5530 	.db #0x00
   147A 01                 5531 	.db #0x01
   147B 00                 5532 	.db #0x00
   147C 01                 5533 	.db #0x01
   147D 01                 5534 	.db #0x01
   147E 02                 5535 	.db #0x02
   147F 00                 5536 	.db #0x00
   1480 00                 5537 	.db #0x00
   1481 00                 5538 	.db #0x00
   1482 02                 5539 	.db #0x02
   1483 00                 5540 	.db #0x00
   1484 00                 5541 	.db #0x00
   1485 00                 5542 	.db #0x00
   1486 00                 5543 	.db #0x00
   1487 00                 5544 	.db #0x00
   1488 60                 5545 	.db #0x60
   1489 00                 5546 	.db #0x00
   148A 1F                 5547 	.db #0x1F
   148B 00                 5548 	.db #0x00
   148C 00                 5549 	.db #0x00
   148D 00                 5550 	.db #0x00
   148E 00                 5551 	.db #0x00
   148F 00                 5552 	.db #0x00
   1490 00                 5553 	.db #0x00
   1491 00                 5554 	.db #0x00
   1492 40                 5555 	.db #0x40
   1493 00                 5556 	.db #0x00
   1494 00                 5557 	.db #0x00
   1495 00                 5558 	.db #0x00
   1496 00                 5559 	.db #0x00
   1497 00                 5560 	.db #0x00
   1498 00                 5561 	.db #0x00
   1499 00                 5562 	.db #0x00
   149A F8                 5563 	.db #0xF8
   149B 00                 5564 	.db #0x00
   149C 00                 5565 	.db #0x00
   149D 00                 5566 	.db #0x00
   149E 00                 5567 	.db #0x00
   149F 00                 5568 	.db #0x00
   14A0 00                 5569 	.db #0x00
   14A1 00                 5570 	.db #0x00
   14A2 00                 5571 	.db #0x00
   14A3 00                 5572 	.db #0x00
   14A4 E0                 5573 	.db #0xE0
   14A5 00                 5574 	.db #0x00
   14A6 90                 5575 	.db #0x90
   14A7 00                 5576 	.db #0x00
   14A8 0C                 5577 	.db #0x0C
   14A9 00                 5578 	.db #0x00
   14AA 03                 5579 	.db #0x03
   14AB 00                 5580 	.db #0x00
   14AC 00                 5581 	.db #0x00
   14AD 00                 5582 	.db #0x00
   14AE 00                 5583 	.db #0x00
   14AF 00                 5584 	.db #0x00
   14B0 00                 5585 	.db #0x00
   14B1 00                 5586 	.db #0x00
   14B2 00                 5587 	.db #0x00
   14B3 00                 5588 	.db #0x00
   14B4 07                 5589 	.db #0x07
   14B5 00                 5590 	.db #0x00
   14B6 09                 5591 	.db #0x09
   14B7 00                 5592 	.db #0x00
   14B8 30                 5593 	.db #0x30
   14B9 00                 5594 	.db #0x00
   14BA C0                 5595 	.db #0xC0
   14BB 00                 5596 	.db #0x00
   14BC 00                 5597 	.db #0x00
   14BD 00                 5598 	.db #0x00
   14BE 00                 5599 	.db #0x00
   14BF 00                 5600 	.db #0x00
   14C0 00                 5601 	.db #0x00
   14C1 00                 5602 	.db #0x00
   14C2 02                 5603 	.db #0x02
   14C3 00                 5604 	.db #0x00
   14C4 00                 5605 	.db #0x00
   14C5 00                 5606 	.db #0x00
   14C6 00                 5607 	.db #0x00
   14C7 00                 5608 	.db #0x00
   14C8 00                 5609 	.db #0x00
   14C9 00                 5610 	.db #0x00
   14CA 0F                 5611 	.db #0x0F
   14CB 00                 5612 	.db #0x00
   14CC 1F                 5613 	.db #0x1F
   14CD 0F                 5614 	.db #0x0F
   14CE 10                 5615 	.db #0x10
   14CF 00                 5616 	.db #0x00
   14D0 00                 5617 	.db #0x00
   14D1 00                 5618 	.db #0x00
   14D2 40                 5619 	.db #0x40
   14D3 00                 5620 	.db #0x00
   14D4 00                 5621 	.db #0x00
   14D5 00                 5622 	.db #0x00
   14D6 00                 5623 	.db #0x00
   14D7 00                 5624 	.db #0x00
   14D8 00                 5625 	.db #0x00
   14D9 00                 5626 	.db #0x00
   14DA F0                 5627 	.db #0xF0
   14DB 00                 5628 	.db #0x00
   14DC F8                 5629 	.db #0xF8
   14DD F0                 5630 	.db #0xF0
   14DE 08                 5631 	.db #0x08
   14DF 07                 5632 	.db #0x07
   14E0 08                 5633 	.db #0x08
   14E1 00                 5634 	.db #0x00
   14E2 07                 5635 	.db #0x07
   14E3 00                 5636 	.db #0x00
   14E4 E0                 5637 	.db #0xE0
   14E5 00                 5638 	.db #0x00
   14E6 90                 5639 	.db #0x90
   14E7 00                 5640 	.db #0x00
   14E8 0C                 5641 	.db #0x0C
   14E9 00                 5642 	.db #0x00
   14EA 03                 5643 	.db #0x03
   14EB 00                 5644 	.db #0x00
   14EC 00                 5645 	.db #0x00
   14ED 00                 5646 	.db #0x00
   14EE 00                 5647 	.db #0x00
   14EF E0                 5648 	.db #0xE0
   14F0 10                 5649 	.db #0x10
   14F1 00                 5650 	.db #0x00
   14F2 E0                 5651 	.db #0xE0
   14F3 00                 5652 	.db #0x00
   14F4 07                 5653 	.db #0x07
   14F5 00                 5654 	.db #0x00
   14F6 09                 5655 	.db #0x09
   14F7 00                 5656 	.db #0x00
   14F8 30                 5657 	.db #0x30
   14F9 00                 5658 	.db #0x00
   14FA C0                 5659 	.db #0xC0
   14FB 00                 5660 	.db #0x00
   14FC 00                 5661 	.db #0x00
   14FD 00                 5662 	.db #0x00
   14FE 00                 5663 	.db #0x00
   14FF 00                 5664 	.db #0x00
   1500 00                 5665 	.db #0x00
   1501 00                 5666 	.db #0x00
   1502 00                 5667 	.db #0x00
   1503 00                 5668 	.db #0x00
   1504 00                 5669 	.db #0x00
   1505 00                 5670 	.db #0x00
   1506 00                 5671 	.db #0x00
   1507 00                 5672 	.db #0x00
   1508 00                 5673 	.db #0x00
   1509 00                 5674 	.db #0x00
   150A 00                 5675 	.db #0x00
   150B 1C                 5676 	.db #0x1C
   150C 1C                 5677 	.db #0x1C
   150D 1E                 5678 	.db #0x1E
   150E 02                 5679 	.db #0x02
   150F 00                 5680 	.db #0x00
   1510 00                 5681 	.db #0x00
   1511 00                 5682 	.db #0x00
   1512 00                 5683 	.db #0x00
   1513 00                 5684 	.db #0x00
   1514 00                 5685 	.db #0x00
   1515 00                 5686 	.db #0x00
   1516 00                 5687 	.db #0x00
   1517 1C                 5688 	.db #0x1C
   1518 1C                 5689 	.db #0x1C
   1519 22                 5690 	.db #0x22
   151A 3E                 5691 	.db #0x3E
   151B 22                 5692 	.db #0x22
   151C 3E                 5693 	.db #0x3E
   151D 1F                 5694 	.db #0x1F
   151E 11                 5695 	.db #0x11
   151F 00                 5696 	.db #0x00
   1520 00                 5697 	.db #0x00
   1521 00                 5698 	.db #0x00
   1522 00                 5699 	.db #0x00
   1523 00                 5700 	.db #0x00
   1524 00                 5701 	.db #0x00
   1525 0D                 5702 	.db #0x0D
   1526 0D                 5703 	.db #0x0D
   1527 11                 5704 	.db #0x11
   1528 1F                 5705 	.db #0x1F
   1529 10                 5706 	.db #0x10
   152A 1E                 5707 	.db #0x1E
   152B 3F                 5708 	.db #0x3F
   152C 23                 5709 	.db #0x23
   152D 7F                 5710 	.db #0x7F
   152E 63                 5711 	.db #0x63
   152F 00                 5712 	.db #0x00
   1530 00                 5713 	.db #0x00
   1531 00                 5714 	.db #0x00
   1532 00                 5715 	.db #0x00
   1533 02                 5716 	.db #0x02
   1534 02                 5717 	.db #0x02
   1535 0F                 5718 	.db #0x0F
   1536 0D                 5719 	.db #0x0D
   1537 1F                 5720 	.db #0x1F
   1538 11                 5721 	.db #0x11
   1539 1E                 5722 	.db #0x1E
   153A 12                 5723 	.db #0x12
   153B 0E                 5724 	.db #0x0E
   153C 0A                 5725 	.db #0x0A
   153D FE                 5726 	.db #0xFE
   153E FA                 5727 	.db #0xFA
   153F 3E                 5728 	.db #0x3E
   1540 22                 5729 	.db #0x22
   1541 3C                 5730 	.db #0x3C
   1542 34                 5731 	.db #0x34
   1543 1F                 5732 	.db #0x1F
   1544 17                 5733 	.db #0x17
   1545 1E                 5734 	.db #0x1E
   1546 1B                 5735 	.db #0x1B
   1547 0E                 5736 	.db #0x0E
   1548 09                 5737 	.db #0x09
   1549 0F                 5738 	.db #0x0F
   154A 08                 5739 	.db #0x08
   154B 0F                 5740 	.db #0x0F
   154C 08                 5741 	.db #0x08
   154D 0F                 5742 	.db #0x0F
   154E 08                 5743 	.db #0x08
   154F 3F                 5744 	.db #0x3F
   1550 31                 5745 	.db #0x31
   1551 04                 5746 	.db #0x04
   1552 3B                 5747 	.db #0x3B
   1553 C4                 5748 	.db #0xC4
   1554 FB                 5749 	.db #0xFB
   1555 02                 5750 	.db #0x02
   1556 FD                 5751 	.db #0xFD
   1557 22                 5752 	.db #0x22
   1558 DD                 5753 	.db #0xDD
   1559 FF                 5754 	.db #0xFF
   155A 00                 5755 	.db #0x00
   155B 27                 5756 	.db #0x27
   155C 00                 5757 	.db #0x00
   155D 9F                 5758 	.db #0x9F
   155E 00                 5759 	.db #0x00
   155F 88                 5760 	.db #0x88
   1560 F7                 5761 	.db #0xF7
   1561 08                 5762 	.db #0x08
   1562 F7                 5763 	.db #0xF7
   1563 04                 5764 	.db #0x04
   1564 FB                 5765 	.db #0xFB
   1565 04                 5766 	.db #0x04
   1566 FB                 5767 	.db #0xFB
   1567 7F                 5768 	.db #0x7F
   1568 80                 5769 	.db #0x80
   1569 BF                 5770 	.db #0xBF
   156A 30                 5771 	.db #0x30
   156B 7F                 5772 	.db #0x7F
   156C 70                 5773 	.db #0x70
   156D FF                 5774 	.db #0xFF
   156E 80                 5775 	.db #0x80
   156F 0E                 5776 	.db #0x0E
   1570 FA                 5777 	.db #0xFA
   1571 0F                 5778 	.db #0x0F
   1572 F1                 5779 	.db #0xF1
   1573 7F                 5780 	.db #0x7F
   1574 81                 5781 	.db #0x81
   1575 E7                 5782 	.db #0xE7
   1576 01                 5783 	.db #0x01
   1577 0F                 5784 	.db #0x0F
   1578 01                 5785 	.db #0x01
   1579 FF                 5786 	.db #0xFF
   157A 06                 5787 	.db #0x06
   157B FF                 5788 	.db #0xFF
   157C 78                 5789 	.db #0x78
   157D FF                 5790 	.db #0xFF
   157E 80                 5791 	.db #0x80
   157F 07                 5792 	.db #0x07
   1580 1E                 5793 	.db #0x1E
   1581 03                 5794 	.db #0x03
   1582 3D                 5795 	.db #0x3D
   1583 0F                 5796 	.db #0x0F
   1584 F0                 5797 	.db #0xF0
   1585 1F                 5798 	.db #0x1F
   1586 E0                 5799 	.db #0xE0
   1587 3F                 5800 	.db #0x3F
   1588 C0                 5801 	.db #0xC0
   1589 7F                 5802 	.db #0x7F
   158A 80                 5803 	.db #0x80
   158B 7F                 5804 	.db #0x7F
   158C 80                 5805 	.db #0x80
   158D 7F                 5806 	.db #0x7F
   158E 80                 5807 	.db #0x80
   158F FF                 5808 	.db #0xFF
   1590 00                 5809 	.db #0x00
   1591 FF                 5810 	.db #0xFF
   1592 EF                 5811 	.db #0xEF
   1593 FF                 5812 	.db #0xFF
   1594 00                 5813 	.db #0x00
   1595 FF                 5814 	.db #0xFF
   1596 00                 5815 	.db #0x00
   1597 FF                 5816 	.db #0xFF
   1598 00                 5817 	.db #0x00
   1599 FF                 5818 	.db #0xFF
   159A 00                 5819 	.db #0x00
   159B FF                 5820 	.db #0xFF
   159C 00                 5821 	.db #0x00
   159D FF                 5822 	.db #0xFF
   159E 00                 5823 	.db #0x00
   159F FF                 5824 	.db #0xFF
   15A0 7F                 5825 	.db #0x7F
   15A1 FF                 5826 	.db #0xFF
   15A2 C0                 5827 	.db #0xC0
   15A3 FF                 5828 	.db #0xFF
   15A4 00                 5829 	.db #0x00
   15A5 FF                 5830 	.db #0xFF
   15A6 00                 5831 	.db #0x00
   15A7 FF                 5832 	.db #0xFF
   15A8 00                 5833 	.db #0x00
   15A9 FF                 5834 	.db #0xFF
   15AA 00                 5835 	.db #0x00
   15AB 7F                 5836 	.db #0x7F
   15AC 80                 5837 	.db #0x80
   15AD 7F                 5838 	.db #0x7F
   15AE 80                 5839 	.db #0x80
   15AF FF                 5840 	.db #0xFF
   15B0 00                 5841 	.db #0x00
   15B1 FF                 5842 	.db #0xFF
   15B2 00                 5843 	.db #0x00
   15B3 FF                 5844 	.db #0xFF
   15B4 00                 5845 	.db #0x00
   15B5 FF                 5846 	.db #0xFF
   15B6 00                 5847 	.db #0x00
   15B7 FF                 5848 	.db #0xFF
   15B8 00                 5849 	.db #0x00
   15B9 FF                 5850 	.db #0xFF
   15BA 00                 5851 	.db #0x00
   15BB FE                 5852 	.db #0xFE
   15BC 00                 5853 	.db #0x00
   15BD FE                 5854 	.db #0xFE
   15BE 01                 5855 	.db #0x01
   15BF FF                 5856 	.db #0xFF
   15C0 FF                 5857 	.db #0xFF
   15C1 FF                 5858 	.db #0xFF
   15C2 FF                 5859 	.db #0xFF
   15C3 FF                 5860 	.db #0xFF
   15C4 FF                 5861 	.db #0xFF
   15C5 FF                 5862 	.db #0xFF
   15C6 FF                 5863 	.db #0xFF
   15C7 FF                 5864 	.db #0xFF
   15C8 FF                 5865 	.db #0xFF
   15C9 FF                 5866 	.db #0xFF
   15CA FF                 5867 	.db #0xFF
   15CB FF                 5868 	.db #0xFF
   15CC FF                 5869 	.db #0xFF
   15CD FF                 5870 	.db #0xFF
   15CE FF                 5871 	.db #0xFF
   15CF 00                 5872 	.db #0x00
   15D0 FF                 5873 	.db #0xFF
   15D1 FF                 5874 	.db #0xFF
   15D2 FF                 5875 	.db #0xFF
   15D3 FF                 5876 	.db #0xFF
   15D4 FF                 5877 	.db #0xFF
   15D5 00                 5878 	.db #0x00
   15D6 FF                 5879 	.db #0xFF
   15D7 00                 5880 	.db #0x00
   15D8 FF                 5881 	.db #0xFF
   15D9 FF                 5882 	.db #0xFF
   15DA FF                 5883 	.db #0xFF
   15DB 00                 5884 	.db #0x00
   15DC FF                 5885 	.db #0xFF
   15DD 00                 5886 	.db #0x00
   15DE FF                 5887 	.db #0xFF
   15DF 01                 5888 	.db #0x01
   15E0 00                 5889 	.db #0x00
   15E1 03                 5890 	.db #0x03
   15E2 00                 5891 	.db #0x00
   15E3 07                 5892 	.db #0x07
   15E4 00                 5893 	.db #0x00
   15E5 0F                 5894 	.db #0x0F
   15E6 00                 5895 	.db #0x00
   15E7 1F                 5896 	.db #0x1F
   15E8 00                 5897 	.db #0x00
   15E9 3F                 5898 	.db #0x3F
   15EA 00                 5899 	.db #0x00
   15EB 7F                 5900 	.db #0x7F
   15EC 00                 5901 	.db #0x00
   15ED FF                 5902 	.db #0xFF
   15EE 00                 5903 	.db #0x00
   15EF 80                 5904 	.db #0x80
   15F0 00                 5905 	.db #0x00
   15F1 C0                 5906 	.db #0xC0
   15F2 00                 5907 	.db #0x00
   15F3 E0                 5908 	.db #0xE0
   15F4 00                 5909 	.db #0x00
   15F5 F0                 5910 	.db #0xF0
   15F6 00                 5911 	.db #0x00
   15F7 F8                 5912 	.db #0xF8
   15F8 00                 5913 	.db #0x00
   15F9 FC                 5914 	.db #0xFC
   15FA 00                 5915 	.db #0x00
   15FB FE                 5916 	.db #0xFE
   15FC 00                 5917 	.db #0x00
   15FD FF                 5918 	.db #0xFF
   15FE 00                 5919 	.db #0x00
   15FF 00                 5920 	.db #0x00
   1600 00                 5921 	.db #0x00
   1601 01                 5922 	.db #0x01
   1602 00                 5923 	.db #0x00
   1603 03                 5924 	.db #0x03
   1604 00                 5925 	.db #0x00
   1605 07                 5926 	.db #0x07
   1606 00                 5927 	.db #0x00
   1607 0F                 5928 	.db #0x0F
   1608 00                 5929 	.db #0x00
   1609 1F                 5930 	.db #0x1F
   160A 00                 5931 	.db #0x00
   160B 3F                 5932 	.db #0x3F
   160C 00                 5933 	.db #0x00
   160D FF                 5934 	.db #0xFF
   160E 00                 5935 	.db #0x00
   160F C0                 5936 	.db #0xC0
   1610 00                 5937 	.db #0x00
   1611 E0                 5938 	.db #0xE0
   1612 00                 5939 	.db #0x00
   1613 F0                 5940 	.db #0xF0
   1614 00                 5941 	.db #0x00
   1615 F8                 5942 	.db #0xF8
   1616 00                 5943 	.db #0x00
   1617 FC                 5944 	.db #0xFC
   1618 00                 5945 	.db #0x00
   1619 FE                 5946 	.db #0xFE
   161A 00                 5947 	.db #0x00
   161B FF                 5948 	.db #0xFF
   161C 00                 5949 	.db #0x00
   161D FF                 5950 	.db #0xFF
   161E 00                 5951 	.db #0x00
   161F 00                 5952 	.db #0x00
   1620 00                 5953 	.db #0x00
   1621 00                 5954 	.db #0x00
   1622 00                 5955 	.db #0x00
   1623 01                 5956 	.db #0x01
   1624 00                 5957 	.db #0x00
   1625 03                 5958 	.db #0x03
   1626 00                 5959 	.db #0x00
   1627 07                 5960 	.db #0x07
   1628 00                 5961 	.db #0x00
   1629 0F                 5962 	.db #0x0F
   162A 00                 5963 	.db #0x00
   162B 9F                 5964 	.db #0x9F
   162C 00                 5965 	.db #0x00
   162D FF                 5966 	.db #0xFF
   162E 00                 5967 	.db #0x00
   162F 60                 5968 	.db #0x60
   1630 00                 5969 	.db #0x00
   1631 F0                 5970 	.db #0xF0
   1632 00                 5971 	.db #0x00
   1633 F8                 5972 	.db #0xF8
   1634 00                 5973 	.db #0x00
   1635 FC                 5974 	.db #0xFC
   1636 00                 5975 	.db #0x00
   1637 FE                 5976 	.db #0xFE
   1638 00                 5977 	.db #0x00
   1639 FF                 5978 	.db #0xFF
   163A 00                 5979 	.db #0x00
   163B FF                 5980 	.db #0xFF
   163C 00                 5981 	.db #0x00
   163D FF                 5982 	.db #0xFF
   163E 00                 5983 	.db #0x00
   163F 00                 5984 	.db #0x00
   1640 00                 5985 	.db #0x00
   1641 00                 5986 	.db #0x00
   1642 00                 5987 	.db #0x00
   1643 00                 5988 	.db #0x00
   1644 00                 5989 	.db #0x00
   1645 01                 5990 	.db #0x01
   1646 00                 5991 	.db #0x00
   1647 03                 5992 	.db #0x03
   1648 00                 5993 	.db #0x00
   1649 87                 5994 	.db #0x87
   164A 00                 5995 	.db #0x00
   164B CF                 5996 	.db #0xCF
   164C 00                 5997 	.db #0x00
   164D FF                 5998 	.db #0xFF
   164E 00                 5999 	.db #0x00
   164F 30                 6000 	.db #0x30
   1650 00                 6001 	.db #0x00
   1651 78                 6002 	.db #0x78
   1652 00                 6003 	.db #0x00
   1653 FC                 6004 	.db #0xFC
   1654 00                 6005 	.db #0x00
   1655 FE                 6006 	.db #0xFE
   1656 00                 6007 	.db #0x00
   1657 FF                 6008 	.db #0xFF
   1658 00                 6009 	.db #0x00
   1659 FF                 6010 	.db #0xFF
   165A 00                 6011 	.db #0x00
   165B FF                 6012 	.db #0xFF
   165C 00                 6013 	.db #0x00
   165D FF                 6014 	.db #0xFF
   165E 00                 6015 	.db #0x00
   165F 00                 6016 	.db #0x00
   1660 00                 6017 	.db #0x00
   1661 00                 6018 	.db #0x00
   1662 00                 6019 	.db #0x00
   1663 00                 6020 	.db #0x00
   1664 00                 6021 	.db #0x00
   1665 00                 6022 	.db #0x00
   1666 00                 6023 	.db #0x00
   1667 81                 6024 	.db #0x81
   1668 00                 6025 	.db #0x00
   1669 C3                 6026 	.db #0xC3
   166A 00                 6027 	.db #0x00
   166B E7                 6028 	.db #0xE7
   166C 00                 6029 	.db #0x00
   166D FF                 6030 	.db #0xFF
   166E 00                 6031 	.db #0x00
   166F 18                 6032 	.db #0x18
   1670 00                 6033 	.db #0x00
   1671 3C                 6034 	.db #0x3C
   1672 00                 6035 	.db #0x00
   1673 7E                 6036 	.db #0x7E
   1674 00                 6037 	.db #0x00
   1675 FF                 6038 	.db #0xFF
   1676 00                 6039 	.db #0x00
   1677 FF                 6040 	.db #0xFF
   1678 00                 6041 	.db #0x00
   1679 FF                 6042 	.db #0xFF
   167A 00                 6043 	.db #0x00
   167B FF                 6044 	.db #0xFF
   167C 00                 6045 	.db #0x00
   167D FF                 6046 	.db #0xFF
   167E 00                 6047 	.db #0x00
   167F 00                 6048 	.db #0x00
   1680 00                 6049 	.db #0x00
   1681 00                 6050 	.db #0x00
   1682 00                 6051 	.db #0x00
   1683 00                 6052 	.db #0x00
   1684 00                 6053 	.db #0x00
   1685 80                 6054 	.db #0x80
   1686 00                 6055 	.db #0x00
   1687 C0                 6056 	.db #0xC0
   1688 00                 6057 	.db #0x00
   1689 E1                 6058 	.db #0xE1
   168A 00                 6059 	.db #0x00
   168B F3                 6060 	.db #0xF3
   168C 00                 6061 	.db #0x00
   168D FF                 6062 	.db #0xFF
   168E 00                 6063 	.db #0x00
   168F 0C                 6064 	.db #0x0C
   1690 00                 6065 	.db #0x00
   1691 1E                 6066 	.db #0x1E
   1692 00                 6067 	.db #0x00
   1693 3F                 6068 	.db #0x3F
   1694 00                 6069 	.db #0x00
   1695 7F                 6070 	.db #0x7F
   1696 00                 6071 	.db #0x00
   1697 FF                 6072 	.db #0xFF
   1698 00                 6073 	.db #0x00
   1699 FF                 6074 	.db #0xFF
   169A 00                 6075 	.db #0x00
   169B FF                 6076 	.db #0xFF
   169C 00                 6077 	.db #0x00
   169D FF                 6078 	.db #0xFF
   169E 00                 6079 	.db #0x00
   169F 00                 6080 	.db #0x00
   16A0 00                 6081 	.db #0x00
   16A1 00                 6082 	.db #0x00
   16A2 00                 6083 	.db #0x00
   16A3 80                 6084 	.db #0x80
   16A4 00                 6085 	.db #0x00
   16A5 C0                 6086 	.db #0xC0
   16A6 00                 6087 	.db #0x00
   16A7 E0                 6088 	.db #0xE0
   16A8 00                 6089 	.db #0x00
   16A9 F0                 6090 	.db #0xF0
   16AA 00                 6091 	.db #0x00
   16AB F9                 6092 	.db #0xF9
   16AC 00                 6093 	.db #0x00
   16AD FF                 6094 	.db #0xFF
   16AE 00                 6095 	.db #0x00
   16AF 06                 6096 	.db #0x06
   16B0 00                 6097 	.db #0x00
   16B1 0F                 6098 	.db #0x0F
   16B2 00                 6099 	.db #0x00
   16B3 1F                 6100 	.db #0x1F
   16B4 00                 6101 	.db #0x00
   16B5 3F                 6102 	.db #0x3F
   16B6 00                 6103 	.db #0x00
   16B7 7F                 6104 	.db #0x7F
   16B8 00                 6105 	.db #0x00
   16B9 FF                 6106 	.db #0xFF
   16BA 00                 6107 	.db #0x00
   16BB FF                 6108 	.db #0xFF
   16BC 00                 6109 	.db #0x00
   16BD FF                 6110 	.db #0xFF
   16BE 00                 6111 	.db #0x00
   16BF 00                 6112 	.db #0x00
   16C0 00                 6113 	.db #0x00
   16C1 80                 6114 	.db #0x80
   16C2 00                 6115 	.db #0x00
   16C3 C0                 6116 	.db #0xC0
   16C4 00                 6117 	.db #0x00
   16C5 E0                 6118 	.db #0xE0
   16C6 00                 6119 	.db #0x00
   16C7 F0                 6120 	.db #0xF0
   16C8 00                 6121 	.db #0x00
   16C9 F8                 6122 	.db #0xF8
   16CA 00                 6123 	.db #0x00
   16CB FC                 6124 	.db #0xFC
   16CC 00                 6125 	.db #0x00
   16CD FF                 6126 	.db #0xFF
   16CE 00                 6127 	.db #0x00
   16CF 03                 6128 	.db #0x03
   16D0 00                 6129 	.db #0x00
   16D1 07                 6130 	.db #0x07
   16D2 00                 6131 	.db #0x00
   16D3 0F                 6132 	.db #0x0F
   16D4 00                 6133 	.db #0x00
   16D5 1F                 6134 	.db #0x1F
   16D6 00                 6135 	.db #0x00
   16D7 3F                 6136 	.db #0x3F
   16D8 00                 6137 	.db #0x00
   16D9 7F                 6138 	.db #0x7F
   16DA 00                 6139 	.db #0x00
   16DB FF                 6140 	.db #0xFF
   16DC 00                 6141 	.db #0x00
   16DD FF                 6142 	.db #0xFF
   16DE 00                 6143 	.db #0x00
   16DF FF                 6144 	.db #0xFF
   16E0 00                 6145 	.db #0x00
   16E1 7F                 6146 	.db #0x7F
   16E2 00                 6147 	.db #0x00
   16E3 3F                 6148 	.db #0x3F
   16E4 00                 6149 	.db #0x00
   16E5 1F                 6150 	.db #0x1F
   16E6 00                 6151 	.db #0x00
   16E7 0F                 6152 	.db #0x0F
   16E8 00                 6153 	.db #0x00
   16E9 07                 6154 	.db #0x07
   16EA 00                 6155 	.db #0x00
   16EB 03                 6156 	.db #0x03
   16EC 00                 6157 	.db #0x00
   16ED 01                 6158 	.db #0x01
   16EE 00                 6159 	.db #0x00
   16EF FF                 6160 	.db #0xFF
   16F0 00                 6161 	.db #0x00
   16F1 FE                 6162 	.db #0xFE
   16F2 00                 6163 	.db #0x00
   16F3 FC                 6164 	.db #0xFC
   16F4 00                 6165 	.db #0x00
   16F5 F8                 6166 	.db #0xF8
   16F6 00                 6167 	.db #0x00
   16F7 F0                 6168 	.db #0xF0
   16F8 00                 6169 	.db #0x00
   16F9 E0                 6170 	.db #0xE0
   16FA 00                 6171 	.db #0x00
   16FB C0                 6172 	.db #0xC0
   16FC 00                 6173 	.db #0x00
   16FD 80                 6174 	.db #0x80
   16FE 00                 6175 	.db #0x00
   16FF FF                 6176 	.db #0xFF
   1700 00                 6177 	.db #0x00
   1701 3F                 6178 	.db #0x3F
   1702 00                 6179 	.db #0x00
   1703 1F                 6180 	.db #0x1F
   1704 00                 6181 	.db #0x00
   1705 0F                 6182 	.db #0x0F
   1706 00                 6183 	.db #0x00
   1707 07                 6184 	.db #0x07
   1708 00                 6185 	.db #0x00
   1709 03                 6186 	.db #0x03
   170A 00                 6187 	.db #0x00
   170B 01                 6188 	.db #0x01
   170C 00                 6189 	.db #0x00
   170D 00                 6190 	.db #0x00
   170E 00                 6191 	.db #0x00
   170F FF                 6192 	.db #0xFF
   1710 00                 6193 	.db #0x00
   1711 FF                 6194 	.db #0xFF
   1712 00                 6195 	.db #0x00
   1713 FE                 6196 	.db #0xFE
   1714 00                 6197 	.db #0x00
   1715 FC                 6198 	.db #0xFC
   1716 00                 6199 	.db #0x00
   1717 F8                 6200 	.db #0xF8
   1718 00                 6201 	.db #0x00
   1719 F0                 6202 	.db #0xF0
   171A 00                 6203 	.db #0x00
   171B E0                 6204 	.db #0xE0
   171C 00                 6205 	.db #0x00
   171D C0                 6206 	.db #0xC0
   171E 00                 6207 	.db #0x00
   171F FF                 6208 	.db #0xFF
   1720 00                 6209 	.db #0x00
   1721 9F                 6210 	.db #0x9F
   1722 00                 6211 	.db #0x00
   1723 0F                 6212 	.db #0x0F
   1724 00                 6213 	.db #0x00
   1725 07                 6214 	.db #0x07
   1726 00                 6215 	.db #0x00
   1727 03                 6216 	.db #0x03
   1728 00                 6217 	.db #0x00
   1729 01                 6218 	.db #0x01
   172A 00                 6219 	.db #0x00
   172B 00                 6220 	.db #0x00
   172C 00                 6221 	.db #0x00
   172D 00                 6222 	.db #0x00
   172E 00                 6223 	.db #0x00
   172F FF                 6224 	.db #0xFF
   1730 00                 6225 	.db #0x00
   1731 FF                 6226 	.db #0xFF
   1732 00                 6227 	.db #0x00
   1733 FF                 6228 	.db #0xFF
   1734 00                 6229 	.db #0x00
   1735 FE                 6230 	.db #0xFE
   1736 00                 6231 	.db #0x00
   1737 FC                 6232 	.db #0xFC
   1738 00                 6233 	.db #0x00
   1739 F8                 6234 	.db #0xF8
   173A 00                 6235 	.db #0x00
   173B F0                 6236 	.db #0xF0
   173C 00                 6237 	.db #0x00
   173D 60                 6238 	.db #0x60
   173E 00                 6239 	.db #0x00
   173F FF                 6240 	.db #0xFF
   1740 00                 6241 	.db #0x00
   1741 CF                 6242 	.db #0xCF
   1742 00                 6243 	.db #0x00
   1743 87                 6244 	.db #0x87
   1744 00                 6245 	.db #0x00
   1745 03                 6246 	.db #0x03
   1746 00                 6247 	.db #0x00
   1747 01                 6248 	.db #0x01
   1748 00                 6249 	.db #0x00
   1749 00                 6250 	.db #0x00
   174A 00                 6251 	.db #0x00
   174B 00                 6252 	.db #0x00
   174C 00                 6253 	.db #0x00
   174D 00                 6254 	.db #0x00
   174E 00                 6255 	.db #0x00
   174F FF                 6256 	.db #0xFF
   1750 00                 6257 	.db #0x00
   1751 FF                 6258 	.db #0xFF
   1752 00                 6259 	.db #0x00
   1753 FF                 6260 	.db #0xFF
   1754 00                 6261 	.db #0x00
   1755 FF                 6262 	.db #0xFF
   1756 00                 6263 	.db #0x00
   1757 FE                 6264 	.db #0xFE
   1758 00                 6265 	.db #0x00
   1759 FC                 6266 	.db #0xFC
   175A 00                 6267 	.db #0x00
   175B 78                 6268 	.db #0x78
   175C 00                 6269 	.db #0x00
   175D 30                 6270 	.db #0x30
   175E 00                 6271 	.db #0x00
   175F FF                 6272 	.db #0xFF
   1760 00                 6273 	.db #0x00
   1761 E7                 6274 	.db #0xE7
   1762 00                 6275 	.db #0x00
   1763 C3                 6276 	.db #0xC3
   1764 00                 6277 	.db #0x00
   1765 81                 6278 	.db #0x81
   1766 00                 6279 	.db #0x00
   1767 00                 6280 	.db #0x00
   1768 00                 6281 	.db #0x00
   1769 00                 6282 	.db #0x00
   176A 00                 6283 	.db #0x00
   176B 00                 6284 	.db #0x00
   176C 00                 6285 	.db #0x00
   176D 00                 6286 	.db #0x00
   176E 00                 6287 	.db #0x00
   176F FF                 6288 	.db #0xFF
   1770 00                 6289 	.db #0x00
   1771 FF                 6290 	.db #0xFF
   1772 00                 6291 	.db #0x00
   1773 FF                 6292 	.db #0xFF
   1774 00                 6293 	.db #0x00
   1775 FF                 6294 	.db #0xFF
   1776 00                 6295 	.db #0x00
   1777 FF                 6296 	.db #0xFF
   1778 00                 6297 	.db #0x00
   1779 7E                 6298 	.db #0x7E
   177A 00                 6299 	.db #0x00
   177B 3C                 6300 	.db #0x3C
   177C 00                 6301 	.db #0x00
   177D 18                 6302 	.db #0x18
   177E 00                 6303 	.db #0x00
   177F FF                 6304 	.db #0xFF
   1780 00                 6305 	.db #0x00
   1781 F3                 6306 	.db #0xF3
   1782 00                 6307 	.db #0x00
   1783 E1                 6308 	.db #0xE1
   1784 00                 6309 	.db #0x00
   1785 C0                 6310 	.db #0xC0
   1786 00                 6311 	.db #0x00
   1787 80                 6312 	.db #0x80
   1788 00                 6313 	.db #0x00
   1789 00                 6314 	.db #0x00
   178A 00                 6315 	.db #0x00
   178B 00                 6316 	.db #0x00
   178C 00                 6317 	.db #0x00
   178D 00                 6318 	.db #0x00
   178E 00                 6319 	.db #0x00
   178F FF                 6320 	.db #0xFF
   1790 00                 6321 	.db #0x00
   1791 FF                 6322 	.db #0xFF
   1792 00                 6323 	.db #0x00
   1793 FF                 6324 	.db #0xFF
   1794 00                 6325 	.db #0x00
   1795 FF                 6326 	.db #0xFF
   1796 00                 6327 	.db #0x00
   1797 7F                 6328 	.db #0x7F
   1798 00                 6329 	.db #0x00
   1799 3F                 6330 	.db #0x3F
   179A 00                 6331 	.db #0x00
   179B 1E                 6332 	.db #0x1E
   179C 00                 6333 	.db #0x00
   179D 0C                 6334 	.db #0x0C
   179E 00                 6335 	.db #0x00
   179F FF                 6336 	.db #0xFF
   17A0 00                 6337 	.db #0x00
   17A1 F9                 6338 	.db #0xF9
   17A2 00                 6339 	.db #0x00
   17A3 F0                 6340 	.db #0xF0
   17A4 00                 6341 	.db #0x00
   17A5 E0                 6342 	.db #0xE0
   17A6 00                 6343 	.db #0x00
   17A7 C0                 6344 	.db #0xC0
   17A8 00                 6345 	.db #0x00
   17A9 80                 6346 	.db #0x80
   17AA 00                 6347 	.db #0x00
   17AB 00                 6348 	.db #0x00
   17AC 00                 6349 	.db #0x00
   17AD 00                 6350 	.db #0x00
   17AE 00                 6351 	.db #0x00
   17AF FF                 6352 	.db #0xFF
   17B0 00                 6353 	.db #0x00
   17B1 FF                 6354 	.db #0xFF
   17B2 00                 6355 	.db #0x00
   17B3 FF                 6356 	.db #0xFF
   17B4 00                 6357 	.db #0x00
   17B5 7F                 6358 	.db #0x7F
   17B6 00                 6359 	.db #0x00
   17B7 3F                 6360 	.db #0x3F
   17B8 00                 6361 	.db #0x00
   17B9 1F                 6362 	.db #0x1F
   17BA 00                 6363 	.db #0x00
   17BB 0F                 6364 	.db #0x0F
   17BC 00                 6365 	.db #0x00
   17BD 06                 6366 	.db #0x06
   17BE 00                 6367 	.db #0x00
   17BF FF                 6368 	.db #0xFF
   17C0 00                 6369 	.db #0x00
   17C1 FC                 6370 	.db #0xFC
   17C2 00                 6371 	.db #0x00
   17C3 F8                 6372 	.db #0xF8
   17C4 00                 6373 	.db #0x00
   17C5 F0                 6374 	.db #0xF0
   17C6 00                 6375 	.db #0x00
   17C7 E0                 6376 	.db #0xE0
   17C8 00                 6377 	.db #0x00
   17C9 C0                 6378 	.db #0xC0
   17CA 00                 6379 	.db #0x00
   17CB 80                 6380 	.db #0x80
   17CC 00                 6381 	.db #0x00
   17CD 00                 6382 	.db #0x00
   17CE 00                 6383 	.db #0x00
   17CF FF                 6384 	.db #0xFF
   17D0 00                 6385 	.db #0x00
   17D1 FF                 6386 	.db #0xFF
   17D2 00                 6387 	.db #0x00
   17D3 7F                 6388 	.db #0x7F
   17D4 00                 6389 	.db #0x00
   17D5 3F                 6390 	.db #0x3F
   17D6 00                 6391 	.db #0x00
   17D7 1F                 6392 	.db #0x1F
   17D8 00                 6393 	.db #0x00
   17D9 0F                 6394 	.db #0x0F
   17DA 00                 6395 	.db #0x00
   17DB 07                 6396 	.db #0x07
   17DC 00                 6397 	.db #0x00
   17DD 03                 6398 	.db #0x03
   17DE 00                 6399 	.db #0x00
   17DF 80                 6400 	.db #0x80
   17E0 00                 6401 	.db #0x00
   17E1 C0                 6402 	.db #0xC0
   17E2 00                 6403 	.db #0x00
   17E3 E0                 6404 	.db #0xE0
   17E4 00                 6405 	.db #0x00
   17E5 F0                 6406 	.db #0xF0
   17E6 00                 6407 	.db #0x00
   17E7 F8                 6408 	.db #0xF8
   17E8 00                 6409 	.db #0x00
   17E9 FC                 6410 	.db #0xFC
   17EA 00                 6411 	.db #0x00
   17EB FE                 6412 	.db #0xFE
   17EC 00                 6413 	.db #0x00
   17ED FF                 6414 	.db #0xFF
   17EE 00                 6415 	.db #0x00
   17EF 01                 6416 	.db #0x01
   17F0 00                 6417 	.db #0x00
   17F1 03                 6418 	.db #0x03
   17F2 00                 6419 	.db #0x00
   17F3 07                 6420 	.db #0x07
   17F4 00                 6421 	.db #0x00
   17F5 0F                 6422 	.db #0x0F
   17F6 00                 6423 	.db #0x00
   17F7 1F                 6424 	.db #0x1F
   17F8 00                 6425 	.db #0x00
   17F9 3F                 6426 	.db #0x3F
   17FA 00                 6427 	.db #0x00
   17FB 7F                 6428 	.db #0x7F
   17FC 00                 6429 	.db #0x00
   17FD FF                 6430 	.db #0xFF
   17FE 00                 6431 	.db #0x00
   17FF C0                 6432 	.db #0xC0
   1800 00                 6433 	.db #0x00
   1801 E0                 6434 	.db #0xE0
   1802 00                 6435 	.db #0x00
   1803 F0                 6436 	.db #0xF0
   1804 00                 6437 	.db #0x00
   1805 F8                 6438 	.db #0xF8
   1806 00                 6439 	.db #0x00
   1807 FC                 6440 	.db #0xFC
   1808 00                 6441 	.db #0x00
   1809 FE                 6442 	.db #0xFE
   180A 00                 6443 	.db #0x00
   180B FF                 6444 	.db #0xFF
   180C 00                 6445 	.db #0x00
   180D FF                 6446 	.db #0xFF
   180E 00                 6447 	.db #0x00
   180F 00                 6448 	.db #0x00
   1810 00                 6449 	.db #0x00
   1811 01                 6450 	.db #0x01
   1812 00                 6451 	.db #0x00
   1813 03                 6452 	.db #0x03
   1814 00                 6453 	.db #0x00
   1815 07                 6454 	.db #0x07
   1816 00                 6455 	.db #0x00
   1817 0F                 6456 	.db #0x0F
   1818 00                 6457 	.db #0x00
   1819 1F                 6458 	.db #0x1F
   181A 00                 6459 	.db #0x00
   181B 3F                 6460 	.db #0x3F
   181C 00                 6461 	.db #0x00
   181D FF                 6462 	.db #0xFF
   181E 00                 6463 	.db #0x00
   181F 60                 6464 	.db #0x60
   1820 00                 6465 	.db #0x00
   1821 F0                 6466 	.db #0xF0
   1822 00                 6467 	.db #0x00
   1823 F8                 6468 	.db #0xF8
   1824 00                 6469 	.db #0x00
   1825 FC                 6470 	.db #0xFC
   1826 00                 6471 	.db #0x00
   1827 FE                 6472 	.db #0xFE
   1828 00                 6473 	.db #0x00
   1829 FF                 6474 	.db #0xFF
   182A 00                 6475 	.db #0x00
   182B FF                 6476 	.db #0xFF
   182C 00                 6477 	.db #0x00
   182D FF                 6478 	.db #0xFF
   182E 00                 6479 	.db #0x00
   182F 00                 6480 	.db #0x00
   1830 00                 6481 	.db #0x00
   1831 00                 6482 	.db #0x00
   1832 00                 6483 	.db #0x00
   1833 01                 6484 	.db #0x01
   1834 00                 6485 	.db #0x00
   1835 03                 6486 	.db #0x03
   1836 00                 6487 	.db #0x00
   1837 07                 6488 	.db #0x07
   1838 00                 6489 	.db #0x00
   1839 0F                 6490 	.db #0x0F
   183A 00                 6491 	.db #0x00
   183B 9F                 6492 	.db #0x9F
   183C 00                 6493 	.db #0x00
   183D FF                 6494 	.db #0xFF
   183E 00                 6495 	.db #0x00
   183F 30                 6496 	.db #0x30
   1840 00                 6497 	.db #0x00
   1841 78                 6498 	.db #0x78
   1842 00                 6499 	.db #0x00
   1843 FC                 6500 	.db #0xFC
   1844 00                 6501 	.db #0x00
   1845 FE                 6502 	.db #0xFE
   1846 00                 6503 	.db #0x00
   1847 FF                 6504 	.db #0xFF
   1848 00                 6505 	.db #0x00
   1849 FF                 6506 	.db #0xFF
   184A 00                 6507 	.db #0x00
   184B FF                 6508 	.db #0xFF
   184C 00                 6509 	.db #0x00
   184D FF                 6510 	.db #0xFF
   184E 00                 6511 	.db #0x00
   184F 00                 6512 	.db #0x00
   1850 00                 6513 	.db #0x00
   1851 00                 6514 	.db #0x00
   1852 00                 6515 	.db #0x00
   1853 00                 6516 	.db #0x00
   1854 00                 6517 	.db #0x00
   1855 01                 6518 	.db #0x01
   1856 00                 6519 	.db #0x00
   1857 03                 6520 	.db #0x03
   1858 00                 6521 	.db #0x00
   1859 87                 6522 	.db #0x87
   185A 00                 6523 	.db #0x00
   185B CF                 6524 	.db #0xCF
   185C 00                 6525 	.db #0x00
   185D FF                 6526 	.db #0xFF
   185E 00                 6527 	.db #0x00
   185F 18                 6528 	.db #0x18
   1860 00                 6529 	.db #0x00
   1861 3C                 6530 	.db #0x3C
   1862 00                 6531 	.db #0x00
   1863 7E                 6532 	.db #0x7E
   1864 00                 6533 	.db #0x00
   1865 FF                 6534 	.db #0xFF
   1866 00                 6535 	.db #0x00
   1867 FF                 6536 	.db #0xFF
   1868 00                 6537 	.db #0x00
   1869 FF                 6538 	.db #0xFF
   186A 00                 6539 	.db #0x00
   186B FF                 6540 	.db #0xFF
   186C 00                 6541 	.db #0x00
   186D FF                 6542 	.db #0xFF
   186E 00                 6543 	.db #0x00
   186F 00                 6544 	.db #0x00
   1870 00                 6545 	.db #0x00
   1871 00                 6546 	.db #0x00
   1872 00                 6547 	.db #0x00
   1873 00                 6548 	.db #0x00
   1874 00                 6549 	.db #0x00
   1875 00                 6550 	.db #0x00
   1876 00                 6551 	.db #0x00
   1877 81                 6552 	.db #0x81
   1878 00                 6553 	.db #0x00
   1879 C3                 6554 	.db #0xC3
   187A 00                 6555 	.db #0x00
   187B E7                 6556 	.db #0xE7
   187C 00                 6557 	.db #0x00
   187D FF                 6558 	.db #0xFF
   187E 00                 6559 	.db #0x00
   187F 0C                 6560 	.db #0x0C
   1880 00                 6561 	.db #0x00
   1881 1E                 6562 	.db #0x1E
   1882 00                 6563 	.db #0x00
   1883 3F                 6564 	.db #0x3F
   1884 00                 6565 	.db #0x00
   1885 7F                 6566 	.db #0x7F
   1886 00                 6567 	.db #0x00
   1887 FF                 6568 	.db #0xFF
   1888 00                 6569 	.db #0x00
   1889 FF                 6570 	.db #0xFF
   188A 00                 6571 	.db #0x00
   188B FF                 6572 	.db #0xFF
   188C 00                 6573 	.db #0x00
   188D FF                 6574 	.db #0xFF
   188E 00                 6575 	.db #0x00
   188F 00                 6576 	.db #0x00
   1890 00                 6577 	.db #0x00
   1891 00                 6578 	.db #0x00
   1892 00                 6579 	.db #0x00
   1893 00                 6580 	.db #0x00
   1894 00                 6581 	.db #0x00
   1895 80                 6582 	.db #0x80
   1896 00                 6583 	.db #0x00
   1897 C0                 6584 	.db #0xC0
   1898 00                 6585 	.db #0x00
   1899 E1                 6586 	.db #0xE1
   189A 00                 6587 	.db #0x00
   189B F3                 6588 	.db #0xF3
   189C 00                 6589 	.db #0x00
   189D FF                 6590 	.db #0xFF
   189E 00                 6591 	.db #0x00
   189F 06                 6592 	.db #0x06
   18A0 00                 6593 	.db #0x00
   18A1 0F                 6594 	.db #0x0F
   18A2 00                 6595 	.db #0x00
   18A3 1F                 6596 	.db #0x1F
   18A4 00                 6597 	.db #0x00
   18A5 3F                 6598 	.db #0x3F
   18A6 00                 6599 	.db #0x00
   18A7 7F                 6600 	.db #0x7F
   18A8 00                 6601 	.db #0x00
   18A9 FF                 6602 	.db #0xFF
   18AA 00                 6603 	.db #0x00
   18AB FF                 6604 	.db #0xFF
   18AC 00                 6605 	.db #0x00
   18AD FF                 6606 	.db #0xFF
   18AE 00                 6607 	.db #0x00
   18AF 00                 6608 	.db #0x00
   18B0 00                 6609 	.db #0x00
   18B1 00                 6610 	.db #0x00
   18B2 00                 6611 	.db #0x00
   18B3 80                 6612 	.db #0x80
   18B4 00                 6613 	.db #0x00
   18B5 C0                 6614 	.db #0xC0
   18B6 00                 6615 	.db #0x00
   18B7 E0                 6616 	.db #0xE0
   18B8 00                 6617 	.db #0x00
   18B9 F0                 6618 	.db #0xF0
   18BA 00                 6619 	.db #0x00
   18BB F9                 6620 	.db #0xF9
   18BC 00                 6621 	.db #0x00
   18BD FF                 6622 	.db #0xFF
   18BE 00                 6623 	.db #0x00
   18BF 03                 6624 	.db #0x03
   18C0 00                 6625 	.db #0x00
   18C1 07                 6626 	.db #0x07
   18C2 00                 6627 	.db #0x00
   18C3 0F                 6628 	.db #0x0F
   18C4 00                 6629 	.db #0x00
   18C5 1F                 6630 	.db #0x1F
   18C6 00                 6631 	.db #0x00
   18C7 3F                 6632 	.db #0x3F
   18C8 00                 6633 	.db #0x00
   18C9 7F                 6634 	.db #0x7F
   18CA 00                 6635 	.db #0x00
   18CB FF                 6636 	.db #0xFF
   18CC 00                 6637 	.db #0x00
   18CD FF                 6638 	.db #0xFF
   18CE 00                 6639 	.db #0x00
   18CF 00                 6640 	.db #0x00
   18D0 00                 6641 	.db #0x00
   18D1 80                 6642 	.db #0x80
   18D2 00                 6643 	.db #0x00
   18D3 C0                 6644 	.db #0xC0
   18D4 00                 6645 	.db #0x00
   18D5 E0                 6646 	.db #0xE0
   18D6 00                 6647 	.db #0x00
   18D7 F0                 6648 	.db #0xF0
   18D8 00                 6649 	.db #0x00
   18D9 F8                 6650 	.db #0xF8
   18DA 00                 6651 	.db #0x00
   18DB FC                 6652 	.db #0xFC
   18DC 00                 6653 	.db #0x00
   18DD FF                 6654 	.db #0xFF
   18DE 00                 6655 	.db #0x00
   18DF FF                 6656 	.db #0xFF
   18E0 00                 6657 	.db #0x00
   18E1 FE                 6658 	.db #0xFE
   18E2 00                 6659 	.db #0x00
   18E3 FC                 6660 	.db #0xFC
   18E4 00                 6661 	.db #0x00
   18E5 F8                 6662 	.db #0xF8
   18E6 00                 6663 	.db #0x00
   18E7 F0                 6664 	.db #0xF0
   18E8 00                 6665 	.db #0x00
   18E9 E0                 6666 	.db #0xE0
   18EA 00                 6667 	.db #0x00
   18EB C0                 6668 	.db #0xC0
   18EC 00                 6669 	.db #0x00
   18ED 80                 6670 	.db #0x80
   18EE 00                 6671 	.db #0x00
   18EF FF                 6672 	.db #0xFF
   18F0 00                 6673 	.db #0x00
   18F1 7F                 6674 	.db #0x7F
   18F2 00                 6675 	.db #0x00
   18F3 3F                 6676 	.db #0x3F
   18F4 00                 6677 	.db #0x00
   18F5 1F                 6678 	.db #0x1F
   18F6 00                 6679 	.db #0x00
   18F7 0F                 6680 	.db #0x0F
   18F8 00                 6681 	.db #0x00
   18F9 07                 6682 	.db #0x07
   18FA 00                 6683 	.db #0x00
   18FB 03                 6684 	.db #0x03
   18FC 00                 6685 	.db #0x00
   18FD 01                 6686 	.db #0x01
   18FE 00                 6687 	.db #0x00
   18FF FF                 6688 	.db #0xFF
   1900 00                 6689 	.db #0x00
   1901 FF                 6690 	.db #0xFF
   1902 00                 6691 	.db #0x00
   1903 FE                 6692 	.db #0xFE
   1904 00                 6693 	.db #0x00
   1905 FC                 6694 	.db #0xFC
   1906 00                 6695 	.db #0x00
   1907 F8                 6696 	.db #0xF8
   1908 00                 6697 	.db #0x00
   1909 F0                 6698 	.db #0xF0
   190A 00                 6699 	.db #0x00
   190B E0                 6700 	.db #0xE0
   190C 00                 6701 	.db #0x00
   190D C0                 6702 	.db #0xC0
   190E 00                 6703 	.db #0x00
   190F FF                 6704 	.db #0xFF
   1910 00                 6705 	.db #0x00
   1911 3F                 6706 	.db #0x3F
   1912 00                 6707 	.db #0x00
   1913 1F                 6708 	.db #0x1F
   1914 00                 6709 	.db #0x00
   1915 0F                 6710 	.db #0x0F
   1916 00                 6711 	.db #0x00
   1917 07                 6712 	.db #0x07
   1918 00                 6713 	.db #0x00
   1919 03                 6714 	.db #0x03
   191A 00                 6715 	.db #0x00
   191B 01                 6716 	.db #0x01
   191C 00                 6717 	.db #0x00
   191D 00                 6718 	.db #0x00
   191E 00                 6719 	.db #0x00
   191F FF                 6720 	.db #0xFF
   1920 00                 6721 	.db #0x00
   1921 FF                 6722 	.db #0xFF
   1922 00                 6723 	.db #0x00
   1923 FF                 6724 	.db #0xFF
   1924 00                 6725 	.db #0x00
   1925 FE                 6726 	.db #0xFE
   1926 00                 6727 	.db #0x00
   1927 FC                 6728 	.db #0xFC
   1928 00                 6729 	.db #0x00
   1929 F8                 6730 	.db #0xF8
   192A 00                 6731 	.db #0x00
   192B F0                 6732 	.db #0xF0
   192C 00                 6733 	.db #0x00
   192D 60                 6734 	.db #0x60
   192E 00                 6735 	.db #0x00
   192F FF                 6736 	.db #0xFF
   1930 00                 6737 	.db #0x00
   1931 9F                 6738 	.db #0x9F
   1932 00                 6739 	.db #0x00
   1933 0F                 6740 	.db #0x0F
   1934 00                 6741 	.db #0x00
   1935 07                 6742 	.db #0x07
   1936 00                 6743 	.db #0x00
   1937 03                 6744 	.db #0x03
   1938 00                 6745 	.db #0x00
   1939 01                 6746 	.db #0x01
   193A 00                 6747 	.db #0x00
   193B 00                 6748 	.db #0x00
   193C 00                 6749 	.db #0x00
   193D 00                 6750 	.db #0x00
   193E 00                 6751 	.db #0x00
   193F FF                 6752 	.db #0xFF
   1940 00                 6753 	.db #0x00
   1941 FF                 6754 	.db #0xFF
   1942 00                 6755 	.db #0x00
   1943 FF                 6756 	.db #0xFF
   1944 00                 6757 	.db #0x00
   1945 FF                 6758 	.db #0xFF
   1946 00                 6759 	.db #0x00
   1947 FE                 6760 	.db #0xFE
   1948 00                 6761 	.db #0x00
   1949 FC                 6762 	.db #0xFC
   194A 00                 6763 	.db #0x00
   194B 78                 6764 	.db #0x78
   194C 00                 6765 	.db #0x00
   194D 30                 6766 	.db #0x30
   194E 00                 6767 	.db #0x00
   194F FF                 6768 	.db #0xFF
   1950 00                 6769 	.db #0x00
   1951 CF                 6770 	.db #0xCF
   1952 00                 6771 	.db #0x00
   1953 87                 6772 	.db #0x87
   1954 00                 6773 	.db #0x00
   1955 03                 6774 	.db #0x03
   1956 00                 6775 	.db #0x00
   1957 01                 6776 	.db #0x01
   1958 00                 6777 	.db #0x00
   1959 00                 6778 	.db #0x00
   195A 00                 6779 	.db #0x00
   195B 00                 6780 	.db #0x00
   195C 00                 6781 	.db #0x00
   195D 00                 6782 	.db #0x00
   195E 00                 6783 	.db #0x00
   195F FF                 6784 	.db #0xFF
   1960 00                 6785 	.db #0x00
   1961 FF                 6786 	.db #0xFF
   1962 00                 6787 	.db #0x00
   1963 FF                 6788 	.db #0xFF
   1964 00                 6789 	.db #0x00
   1965 FF                 6790 	.db #0xFF
   1966 00                 6791 	.db #0x00
   1967 FF                 6792 	.db #0xFF
   1968 00                 6793 	.db #0x00
   1969 7E                 6794 	.db #0x7E
   196A 00                 6795 	.db #0x00
   196B 3C                 6796 	.db #0x3C
   196C 00                 6797 	.db #0x00
   196D 18                 6798 	.db #0x18
   196E 00                 6799 	.db #0x00
   196F FF                 6800 	.db #0xFF
   1970 00                 6801 	.db #0x00
   1971 E7                 6802 	.db #0xE7
   1972 00                 6803 	.db #0x00
   1973 C3                 6804 	.db #0xC3
   1974 00                 6805 	.db #0x00
   1975 81                 6806 	.db #0x81
   1976 00                 6807 	.db #0x00
   1977 00                 6808 	.db #0x00
   1978 00                 6809 	.db #0x00
   1979 00                 6810 	.db #0x00
   197A 00                 6811 	.db #0x00
   197B 00                 6812 	.db #0x00
   197C 00                 6813 	.db #0x00
   197D 00                 6814 	.db #0x00
   197E 00                 6815 	.db #0x00
   197F FF                 6816 	.db #0xFF
   1980 00                 6817 	.db #0x00
   1981 FF                 6818 	.db #0xFF
   1982 00                 6819 	.db #0x00
   1983 FF                 6820 	.db #0xFF
   1984 00                 6821 	.db #0x00
   1985 FF                 6822 	.db #0xFF
   1986 00                 6823 	.db #0x00
   1987 7F                 6824 	.db #0x7F
   1988 00                 6825 	.db #0x00
   1989 3F                 6826 	.db #0x3F
   198A 00                 6827 	.db #0x00
   198B 1E                 6828 	.db #0x1E
   198C 00                 6829 	.db #0x00
   198D 0C                 6830 	.db #0x0C
   198E 00                 6831 	.db #0x00
   198F FF                 6832 	.db #0xFF
   1990 00                 6833 	.db #0x00
   1991 F3                 6834 	.db #0xF3
   1992 00                 6835 	.db #0x00
   1993 E1                 6836 	.db #0xE1
   1994 00                 6837 	.db #0x00
   1995 C0                 6838 	.db #0xC0
   1996 00                 6839 	.db #0x00
   1997 80                 6840 	.db #0x80
   1998 00                 6841 	.db #0x00
   1999 00                 6842 	.db #0x00
   199A 00                 6843 	.db #0x00
   199B 00                 6844 	.db #0x00
   199C 00                 6845 	.db #0x00
   199D 00                 6846 	.db #0x00
   199E 00                 6847 	.db #0x00
   199F FF                 6848 	.db #0xFF
   19A0 00                 6849 	.db #0x00
   19A1 FF                 6850 	.db #0xFF
   19A2 00                 6851 	.db #0x00
   19A3 FF                 6852 	.db #0xFF
   19A4 00                 6853 	.db #0x00
   19A5 7F                 6854 	.db #0x7F
   19A6 00                 6855 	.db #0x00
   19A7 3F                 6856 	.db #0x3F
   19A8 00                 6857 	.db #0x00
   19A9 1F                 6858 	.db #0x1F
   19AA 00                 6859 	.db #0x00
   19AB 0F                 6860 	.db #0x0F
   19AC 00                 6861 	.db #0x00
   19AD 06                 6862 	.db #0x06
   19AE 00                 6863 	.db #0x00
   19AF FF                 6864 	.db #0xFF
   19B0 00                 6865 	.db #0x00
   19B1 F9                 6866 	.db #0xF9
   19B2 00                 6867 	.db #0x00
   19B3 F0                 6868 	.db #0xF0
   19B4 00                 6869 	.db #0x00
   19B5 E0                 6870 	.db #0xE0
   19B6 00                 6871 	.db #0x00
   19B7 C0                 6872 	.db #0xC0
   19B8 00                 6873 	.db #0x00
   19B9 80                 6874 	.db #0x80
   19BA 00                 6875 	.db #0x00
   19BB 00                 6876 	.db #0x00
   19BC 00                 6877 	.db #0x00
   19BD 00                 6878 	.db #0x00
   19BE 00                 6879 	.db #0x00
   19BF FF                 6880 	.db #0xFF
   19C0 00                 6881 	.db #0x00
   19C1 FF                 6882 	.db #0xFF
   19C2 00                 6883 	.db #0x00
   19C3 7F                 6884 	.db #0x7F
   19C4 00                 6885 	.db #0x00
   19C5 3F                 6886 	.db #0x3F
   19C6 00                 6887 	.db #0x00
   19C7 1F                 6888 	.db #0x1F
   19C8 00                 6889 	.db #0x00
   19C9 0F                 6890 	.db #0x0F
   19CA 00                 6891 	.db #0x00
   19CB 07                 6892 	.db #0x07
   19CC 00                 6893 	.db #0x00
   19CD 03                 6894 	.db #0x03
   19CE 00                 6895 	.db #0x00
   19CF FF                 6896 	.db #0xFF
   19D0 00                 6897 	.db #0x00
   19D1 FC                 6898 	.db #0xFC
   19D2 00                 6899 	.db #0x00
   19D3 F8                 6900 	.db #0xF8
   19D4 00                 6901 	.db #0x00
   19D5 F0                 6902 	.db #0xF0
   19D6 00                 6903 	.db #0x00
   19D7 E0                 6904 	.db #0xE0
   19D8 00                 6905 	.db #0x00
   19D9 C0                 6906 	.db #0xC0
   19DA 00                 6907 	.db #0x00
   19DB 80                 6908 	.db #0x80
   19DC 00                 6909 	.db #0x00
   19DD 00                 6910 	.db #0x00
   19DE 00                 6911 	.db #0x00
   19DF                    6912 _diamonds:
   19DF C0                 6913 	.db #0xC0
   19E0 C1                 6914 	.db #0xC1
   19E1 D0                 6915 	.db #0xD0
   19E2 D1                 6916 	.db #0xD1
   19E3                    6917 _colourDiamonds:
   19E3 01                 6918 	.db #0x01
   19E4 01                 6919 	.db #0x01
   19E5 01                 6920 	.db #0x01
   19E6 01                 6921 	.db #0x01
   19E7                    6922 _blankRow:
   19E7 00                 6923 	.db #0x00
   19E8 00                 6924 	.db #0x00
   19E9 00                 6925 	.db #0x00
   19EA 00                 6926 	.db #0x00
   19EB 00                 6927 	.db #0x00
   19EC 00                 6928 	.db #0x00
   19ED 00                 6929 	.db #0x00
   19EE 00                 6930 	.db #0x00
   19EF 00                 6931 	.db #0x00
   19F0 00                 6932 	.db #0x00
   19F1 00                 6933 	.db #0x00
   19F2 00                 6934 	.db #0x00
   19F3 00                 6935 	.db #0x00
   19F4 00                 6936 	.db #0x00
   19F5 00                 6937 	.db #0x00
   19F6 00                 6938 	.db #0x00
   19F7 00                 6939 	.db #0x00
   19F8 00                 6940 	.db #0x00
   19F9 00                 6941 	.db #0x00
   19FA 00                 6942 	.db #0x00
   19FB 00                 6943 	.db #0x00
   19FC 00                 6944 	.db #0x00
   19FD 00                 6945 	.db #0x00
   19FE 00                 6946 	.db #0x00
   19FF 00                 6947 	.db #0x00
   1A00 00                 6948 	.db #0x00
   1A01 00                 6949 	.db #0x00
   1A02 00                 6950 	.db #0x00
   1A03 00                 6951 	.db #0x00
   1A04 00                 6952 	.db #0x00
   1A05 00                 6953 	.db #0x00
   1A06                    6954 _queenBaseSprite:
   1A06 00                 6955 	.db #0x00
   1A07 31                 6956 	.db #0x31
   1A08 32                 6957 	.db #0x32
   1A09 33                 6958 	.db #0x33
   1A0A 34                 6959 	.db #0x34
   1A0B 00                 6960 	.db #0x00
   1A0C 00                 6961 	.db #0x00
   1A0D 37                 6962 	.db #0x37
   1A0E 38                 6963 	.db #0x38
   1A0F 39                 6964 	.db #0x39
   1A10 3A                 6965 	.db #0x3A
   1A11 00                 6966 	.db #0x00
   1A12 3C                 6967 	.db #0x3C
   1A13 3D                 6968 	.db #0x3D
   1A14 3E                 6969 	.db #0x3E
   1A15 3F                 6970 	.db #0x3F
   1A16 40                 6971 	.db #0x40
   1A17 41                 6972 	.db #0x41
   1A18 42                 6973 	.db #0x42
   1A19 43                 6974 	.db #0x43
   1A1A 44                 6975 	.db #0x44
   1A1B 45                 6976 	.db #0x45
   1A1C 46                 6977 	.db #0x46
   1A1D 47                 6978 	.db #0x47
   1A1E 48                 6979 	.db #0x48
   1A1F 49                 6980 	.db #0x49
   1A20 4A                 6981 	.db #0x4A
   1A21 4B                 6982 	.db #0x4B
   1A22 4C                 6983 	.db #0x4C
   1A23 4D                 6984 	.db #0x4D
   1A24 4E                 6985 	.db #0x4E
   1A25 4F                 6986 	.db #0x4F
   1A26 50                 6987 	.db #0x50
   1A27 51                 6988 	.db #0x51
   1A28 52                 6989 	.db #0x52
   1A29 53                 6990 	.db #0x53
   1A2A 54                 6991 	.db #0x54
   1A2B 55                 6992 	.db #0x55
   1A2C 56                 6993 	.db #0x56
   1A2D 57                 6994 	.db #0x57
   1A2E 58                 6995 	.db #0x58
   1A2F 59                 6996 	.db #0x59
   1A30 5A                 6997 	.db #0x5A
   1A31 5B                 6998 	.db #0x5B
   1A32 5C                 6999 	.db #0x5C
   1A33 5D                 7000 	.db #0x5D
   1A34 5E                 7001 	.db #0x5E
   1A35 5F                 7002 	.db #0x5F
   1A36 60                 7003 	.db #0x60
   1A37 61                 7004 	.db #0x61
   1A38 62                 7005 	.db #0x62
   1A39 63                 7006 	.db #0x63
   1A3A 64                 7007 	.db #0x64
   1A3B 65                 7008 	.db #0x65
   1A3C                    7009 _queenClosedEyes:
   1A3C 6A                 7010 	.db #0x6A
   1A3D 6B                 7011 	.db #0x6B
   1A3E 6C                 7012 	.db #0x6C
   1A3F 4C                 7013 	.db #0x4C
   1A40 6E                 7014 	.db #0x6E
   1A41 6F                 7015 	.db #0x6F
   1A42 70                 7016 	.db #0x70
   1A43 71                 7017 	.db #0x71
   1A44                    7018 _queenOpenEyes:
   1A44 49                 7019 	.db #0x49
   1A45 4A                 7020 	.db #0x4A
   1A46 4B                 7021 	.db #0x4B
   1A47 4C                 7022 	.db #0x4C
   1A48 4F                 7023 	.db #0x4F
   1A49 50                 7024 	.db #0x50
   1A4A 51                 7025 	.db #0x51
   1A4B 52                 7026 	.db #0x52
   1A4C                    7027 _queenMouthClosed:
   1A4C 56                 7028 	.db #0x56
   1A4D 57                 7029 	.db #0x57
   1A4E 5C                 7030 	.db #0x5C
   1A4F 5D                 7031 	.db #0x5D
   1A50                    7032 _queenMouthOpen1:
   1A50 56                 7033 	.db #0x56
   1A51 57                 7034 	.db #0x57
   1A52 66                 7035 	.db #0x66
   1A53 67                 7036 	.db #0x67
   1A54                    7037 _queenMouthOpen2:
   1A54 56                 7038 	.db #0x56
   1A55 57                 7039 	.db #0x57
   1A56 68                 7040 	.db #0x68
   1A57 69                 7041 	.db #0x69
   1A58                    7042 _queenColours:
   1A58 05                 7043 	.db #0x05
   1A59 05                 7044 	.db #0x05
   1A5A 05                 7045 	.db #0x05
   1A5B 05                 7046 	.db #0x05
   1A5C 05                 7047 	.db #0x05
   1A5D 05                 7048 	.db #0x05
   1A5E 05                 7049 	.db #0x05
   1A5F 05                 7050 	.db #0x05
   1A60 05                 7051 	.db #0x05
   1A61 05                 7052 	.db #0x05
   1A62 05                 7053 	.db #0x05
   1A63 05                 7054 	.db #0x05
   1A64 04                 7055 	.db #0x04
   1A65 04                 7056 	.db #0x04
   1A66 06                 7057 	.db #0x06
   1A67 06                 7058 	.db #0x06
   1A68 04                 7059 	.db #0x04
   1A69 04                 7060 	.db #0x04
   1A6A 04                 7061 	.db #0x04
   1A6B 04                 7062 	.db #0x04
   1A6C 04                 7063 	.db #0x04
   1A6D 04                 7064 	.db #0x04
   1A6E 04                 7065 	.db #0x04
   1A6F 04                 7066 	.db #0x04
   1A70 04                 7067 	.db #0x04
   1A71 04                 7068 	.db #0x04
   1A72 04                 7069 	.db #0x04
   1A73 04                 7070 	.db #0x04
   1A74 04                 7071 	.db #0x04
   1A75 04                 7072 	.db #0x04
   1A76 04                 7073 	.db #0x04
   1A77 04                 7074 	.db #0x04
   1A78 04                 7075 	.db #0x04
   1A79 04                 7076 	.db #0x04
   1A7A 04                 7077 	.db #0x04
   1A7B 04                 7078 	.db #0x04
   1A7C 04                 7079 	.db #0x04
   1A7D 04                 7080 	.db #0x04
   1A7E 04                 7081 	.db #0x04
   1A7F 04                 7082 	.db #0x04
   1A80 04                 7083 	.db #0x04
   1A81 04                 7084 	.db #0x04
   1A82 04                 7085 	.db #0x04
   1A83 04                 7086 	.db #0x04
   1A84 04                 7087 	.db #0x04
   1A85 04                 7088 	.db #0x04
   1A86 04                 7089 	.db #0x04
   1A87 04                 7090 	.db #0x04
   1A88 04                 7091 	.db #0x04
   1A89 04                 7092 	.db #0x04
   1A8A 04                 7093 	.db #0x04
   1A8B 04                 7094 	.db #0x04
   1A8C 04                 7095 	.db #0x04
   1A8D 04                 7096 	.db #0x04
   1A8E                    7097 _princessBaseSprite:
   1A8E 00                 7098 	.db #0x00
   1A8F 00                 7099 	.db #0x00
   1A90 00                 7100 	.db #0x00
   1A91 00                 7101 	.db #0x00
   1A92 00                 7102 	.db #0x00
   1A93 00                 7103 	.db #0x00
   1A94 72                 7104 	.db #0x72
   1A95 73                 7105 	.db #0x73
   1A96 74                 7106 	.db #0x74
   1A97 75                 7107 	.db #0x75
   1A98 76                 7108 	.db #0x76
   1A99 77                 7109 	.db #0x77
   1A9A 78                 7110 	.db #0x78
   1A9B 79                 7111 	.db #0x79
   1A9C 7A                 7112 	.db #0x7A
   1A9D 7B                 7113 	.db #0x7B
   1A9E 7C                 7114 	.db #0x7C
   1A9F 7D                 7115 	.db #0x7D
   1AA0 7E                 7116 	.db #0x7E
   1AA1 7F                 7117 	.db #0x7F
   1AA2 80                 7118 	.db #0x80
   1AA3 81                 7119 	.db #0x81
   1AA4 82                 7120 	.db #0x82
   1AA5 83                 7121 	.db #0x83
   1AA6 84                 7122 	.db #0x84
   1AA7 85                 7123 	.db #0x85
   1AA8 86                 7124 	.db #0x86
   1AA9 87                 7125 	.db #0x87
   1AAA 88                 7126 	.db #0x88
   1AAB 89                 7127 	.db #0x89
   1AAC 8A                 7128 	.db #0x8A
   1AAD 8B                 7129 	.db #0x8B
   1AAE 8C                 7130 	.db #0x8C
   1AAF 8D                 7131 	.db #0x8D
   1AB0 8E                 7132 	.db #0x8E
   1AB1 8F                 7133 	.db #0x8F
   1AB2 90                 7134 	.db #0x90
   1AB3 91                 7135 	.db #0x91
   1AB4 92                 7136 	.db #0x92
   1AB5 93                 7137 	.db #0x93
   1AB6 94                 7138 	.db #0x94
   1AB7 95                 7139 	.db #0x95
   1AB8 96                 7140 	.db #0x96
   1AB9 97                 7141 	.db #0x97
   1ABA 98                 7142 	.db #0x98
   1ABB 99                 7143 	.db #0x99
   1ABC 9A                 7144 	.db #0x9A
   1ABD 9B                 7145 	.db #0x9B
   1ABE 9C                 7146 	.db #0x9C
   1ABF 9D                 7147 	.db #0x9D
   1AC0 9E                 7148 	.db #0x9E
   1AC1 9F                 7149 	.db #0x9F
   1AC2 A0                 7150 	.db #0xA0
   1AC3 A1                 7151 	.db #0xA1
   1AC4                    7152 _princessClosedEyes:
   1AC4 A2                 7153 	.db #0xA2
   1AC5 A3                 7154 	.db #0xA3
   1AC6 A4                 7155 	.db #0xA4
   1AC7 A5                 7156 	.db #0xA5
   1AC8 A6                 7157 	.db #0xA6
   1AC9 A7                 7158 	.db #0xA7
   1ACA A8                 7159 	.db #0xA8
   1ACB A9                 7160 	.db #0xA9
   1ACC                    7161 _princessOpenEyes:
   1ACC 85                 7162 	.db #0x85
   1ACD 86                 7163 	.db #0x86
   1ACE 87                 7164 	.db #0x87
   1ACF 88                 7165 	.db #0x88
   1AD0 8B                 7166 	.db #0x8B
   1AD1 8C                 7167 	.db #0x8C
   1AD2 8D                 7168 	.db #0x8D
   1AD3 8E                 7169 	.db #0x8E
   1AD4                    7170 _princessMouthClosed:
   1AD4 AA                 7171 	.db #0xAA
   1AD5 AB                 7172 	.db #0xAB
   1AD6 AC                 7173 	.db #0xAC
   1AD7 AD                 7174 	.db #0xAD
   1AD8                    7175 _princessMouthOpen1:
   1AD8 92                 7176 	.db #0x92
   1AD9 93                 7177 	.db #0x93
   1ADA 98                 7178 	.db #0x98
   1ADB 99                 7179 	.db #0x99
   1ADC                    7180 _princessMouthOpen2:
   1ADC AE                 7181 	.db #0xAE
   1ADD AF                 7182 	.db #0xAF
   1ADE B0                 7183 	.db #0xB0
   1ADF B1                 7184 	.db #0xB1
   1AE0                    7185 _princessColours:
   1AE0 00                 7186 	.db #0x00
   1AE1 00                 7187 	.db #0x00
   1AE2 00                 7188 	.db #0x00
   1AE3 00                 7189 	.db #0x00
   1AE4 00                 7190 	.db #0x00
   1AE5 00                 7191 	.db #0x00
   1AE6 00                 7192 	.db #0x00
   1AE7 00                 7193 	.db #0x00
   1AE8 00                 7194 	.db #0x00
   1AE9 00                 7195 	.db #0x00
   1AEA 00                 7196 	.db #0x00
   1AEB 00                 7197 	.db #0x00
   1AEC 00                 7198 	.db #0x00
   1AED 00                 7199 	.db #0x00
   1AEE 00                 7200 	.db #0x00
   1AEF 00                 7201 	.db #0x00
   1AF0 00                 7202 	.db #0x00
   1AF1 00                 7203 	.db #0x00
   1AF2 00                 7204 	.db #0x00
   1AF3 00                 7205 	.db #0x00
   1AF4 00                 7206 	.db #0x00
   1AF5 00                 7207 	.db #0x00
   1AF6 00                 7208 	.db #0x00
   1AF7 00                 7209 	.db #0x00
   1AF8 00                 7210 	.db #0x00
   1AF9 00                 7211 	.db #0x00
   1AFA 00                 7212 	.db #0x00
   1AFB 00                 7213 	.db #0x00
   1AFC 00                 7214 	.db #0x00
   1AFD 00                 7215 	.db #0x00
   1AFE 00                 7216 	.db #0x00
   1AFF 00                 7217 	.db #0x00
   1B00 00                 7218 	.db #0x00
   1B01 00                 7219 	.db #0x00
   1B02 00                 7220 	.db #0x00
   1B03 00                 7221 	.db #0x00
   1B04 00                 7222 	.db #0x00
   1B05 00                 7223 	.db #0x00
   1B06 00                 7224 	.db #0x00
   1B07 00                 7225 	.db #0x00
   1B08 00                 7226 	.db #0x00
   1B09 00                 7227 	.db #0x00
   1B0A 00                 7228 	.db #0x00
   1B0B 00                 7229 	.db #0x00
   1B0C 00                 7230 	.db #0x00
   1B0D 00                 7231 	.db #0x00
   1B0E 00                 7232 	.db #0x00
   1B0F 00                 7233 	.db #0x00
   1B10 00                 7234 	.db #0x00
   1B11 00                 7235 	.db #0x00
   1B12 02                 7236 	.db #0x02
   1B13 02                 7237 	.db #0x02
   1B14 00                 7238 	.db #0x00
   1B15 00                 7239 	.db #0x00
   1B16                    7240 _borderTop:
   1B16 01                 7241 	.db #0x01
   1B17 05                 7242 	.db #0x05
   1B18 05                 7243 	.db #0x05
   1B19 05                 7244 	.db #0x05
   1B1A 05                 7245 	.db #0x05
   1B1B 05                 7246 	.db #0x05
   1B1C 05                 7247 	.db #0x05
   1B1D 05                 7248 	.db #0x05
   1B1E 05                 7249 	.db #0x05
   1B1F 05                 7250 	.db #0x05
   1B20 05                 7251 	.db #0x05
   1B21 05                 7252 	.db #0x05
   1B22 05                 7253 	.db #0x05
   1B23 05                 7254 	.db #0x05
   1B24 05                 7255 	.db #0x05
   1B25 05                 7256 	.db #0x05
   1B26 05                 7257 	.db #0x05
   1B27 05                 7258 	.db #0x05
   1B28 05                 7259 	.db #0x05
   1B29 02                 7260 	.db #0x02
   1B2A                    7261 _colourBorder:
   1B2A 03                 7262 	.db #0x03
   1B2B 03                 7263 	.db #0x03
   1B2C 03                 7264 	.db #0x03
   1B2D 03                 7265 	.db #0x03
   1B2E 03                 7266 	.db #0x03
   1B2F 03                 7267 	.db #0x03
   1B30 03                 7268 	.db #0x03
   1B31 03                 7269 	.db #0x03
   1B32 03                 7270 	.db #0x03
   1B33 03                 7271 	.db #0x03
   1B34 03                 7272 	.db #0x03
   1B35 03                 7273 	.db #0x03
   1B36 03                 7274 	.db #0x03
   1B37 03                 7275 	.db #0x03
   1B38 03                 7276 	.db #0x03
   1B39 03                 7277 	.db #0x03
   1B3A 03                 7278 	.db #0x03
   1B3B 03                 7279 	.db #0x03
   1B3C 03                 7280 	.db #0x03
   1B3D 03                 7281 	.db #0x03
   1B3E                    7282 _borderBottom:
   1B3E 03                 7283 	.db #0x03
   1B3F 07                 7284 	.db #0x07
   1B40 07                 7285 	.db #0x07
   1B41 07                 7286 	.db #0x07
   1B42 07                 7287 	.db #0x07
   1B43 07                 7288 	.db #0x07
   1B44 07                 7289 	.db #0x07
   1B45 07                 7290 	.db #0x07
   1B46 07                 7291 	.db #0x07
   1B47 07                 7292 	.db #0x07
   1B48 07                 7293 	.db #0x07
   1B49 07                 7294 	.db #0x07
   1B4A 07                 7295 	.db #0x07
   1B4B 07                 7296 	.db #0x07
   1B4C 07                 7297 	.db #0x07
   1B4D 07                 7298 	.db #0x07
   1B4E 07                 7299 	.db #0x07
   1B4F 07                 7300 	.db #0x07
   1B50 07                 7301 	.db #0x07
   1B51 04                 7302 	.db #0x04
   1B52                    7303 _borderMid:
   1B52 08                 7304 	.db #0x08
   1B53 00                 7305 	.db #0x00
   1B54 00                 7306 	.db #0x00
   1B55 00                 7307 	.db #0x00
   1B56 00                 7308 	.db #0x00
   1B57 00                 7309 	.db #0x00
   1B58 00                 7310 	.db #0x00
   1B59 00                 7311 	.db #0x00
   1B5A 00                 7312 	.db #0x00
   1B5B 00                 7313 	.db #0x00
   1B5C 00                 7314 	.db #0x00
   1B5D 00                 7315 	.db #0x00
   1B5E 00                 7316 	.db #0x00
   1B5F 00                 7317 	.db #0x00
   1B60 00                 7318 	.db #0x00
   1B61 00                 7319 	.db #0x00
   1B62 00                 7320 	.db #0x00
   1B63 00                 7321 	.db #0x00
   1B64 00                 7322 	.db #0x00
   1B65 06                 7323 	.db #0x06
   1B66                    7324 _conversation11:
   1B66 16                 7325 	.db #0x16
   1B67 17                 7326 	.db #0x17
   1B68 00                 7327 	.db #0x00
   1B69 15                 7328 	.db #0x15
   1B6A 21                 7329 	.db #0x21
   1B6B 00                 7330 	.db #0x00
   1B6C 00                 7331 	.db #0x00
   1B6D 00                 7332 	.db #0x00
   1B6E 00                 7333 	.db #0x00
   1B6F 00                 7334 	.db #0x00
   1B70 00                 7335 	.db #0x00
   1B71 0C                 7336 	.db #0x0C
   1B72 09                 7337 	.db #0x09
   1B73 1D                 7338 	.db #0x1D
   1B74 0F                 7339 	.db #0x0F
   1B75 10                 7340 	.db #0x10
   1B76 1C                 7341 	.db #0x1C
   1B77 0D                 7342 	.db #0x0D
   1B78 1A                 7343 	.db #0x1A
   1B79 23                 7344 	.db #0x23
   1B7A 00                 7345 	.db #0x00
   1B7B 00                 7346 	.db #0x00
   1B7C 16                 7347 	.db #0x16
   1B7D 17                 7348 	.db #0x17
   1B7E 1F                 7349 	.db #0x1F
   1B7F 00                 7350 	.db #0x00
   1B80 11                 7351 	.db #0x11
   1B81 1B                 7352 	.db #0x1B
   1B82 00                 7353 	.db #0x00
   1B83 16                 7354 	.db #0x16
   1B84 17                 7355 	.db #0x17
   1B85 1C                 7356 	.db #0x1C
   1B86 00                 7357 	.db #0x00
   1B87 1C                 7358 	.db #0x1C
   1B88 10                 7359 	.db #0x10
   1B89 0D                 7360 	.db #0x0D
   1B8A 00                 7361 	.db #0x00
   1B8B 1C                 7362 	.db #0x1C
   1B8C 11                 7363 	.db #0x11
   1B8D 15                 7364 	.db #0x15
   1B8E 0D                 7365 	.db #0x0D
   1B8F 00                 7366 	.db #0x00
   1B90 00                 7367 	.db #0x00
   1B91 00                 7368 	.db #0x00
   1B92 1C                 7369 	.db #0x1C
   1B93 17                 7370 	.db #0x17
   1B94 00                 7371 	.db #0x00
   1B95 0E                 7372 	.db #0x0E
   1B96 11                 7373 	.db #0x11
   1B97 0F                 7374 	.db #0x0F
   1B98 10                 7375 	.db #0x10
   1B99 1C                 7376 	.db #0x1C
   1B9A 00                 7377 	.db #0x00
   1B9B 00                 7378 	.db #0x00
   1B9C 00                 7379 	.db #0x00
   1B9D 1C                 7380 	.db #0x1C
   1B9E 17                 7381 	.db #0x17
   1B9F 00                 7382 	.db #0x00
   1BA0 1A                 7383 	.db #0x1A
   1BA1 1D                 7384 	.db #0x1D
   1BA2 14                 7385 	.db #0x14
   1BA3 0D                 7386 	.db #0x0D
   1BA4 00                 7387 	.db #0x00
   1BA5 1C                 7388 	.db #0x1C
   1BA6 10                 7389 	.db #0x10
   1BA7 0D                 7390 	.db #0x0D
   1BA8 13                 7391 	.db #0x13
   1BA9 11                 7392 	.db #0x11
   1BAA 16                 7393 	.db #0x16
   1BAB 0F                 7394 	.db #0x0F
   1BAC 0C                 7395 	.db #0x0C
   1BAD 17                 7396 	.db #0x17
   1BAE 15                 7397 	.db #0x15
   1BAF 23                 7398 	.db #0x23
   1BB0 00                 7399 	.db #0x00
   1BB1 00                 7400 	.db #0x00
   1BB2 00                 7401 	.db #0x00
   1BB3                    7402 _conversation12:
   1BB3 15                 7403 	.db #0x15
   1BB4 11                 7404 	.db #0x11
   1BB5 15                 7405 	.db #0x15
   1BB6 11                 7406 	.db #0x11
   1BB7 15                 7407 	.db #0x15
   1BB8 11                 7408 	.db #0x11
   1BB9 15                 7409 	.db #0x15
   1BBA 11                 7410 	.db #0x11
   1BBB 15                 7411 	.db #0x15
   1BBC 11                 7412 	.db #0x11
   1BBD 24                 7413 	.db #0x24
   1BBE 0A                 7414 	.db #0x0A
   1BBF 17                 7415 	.db #0x17
   1BC0 17                 7416 	.db #0x17
   1BC1 1A                 7417 	.db #0x1A
   1BC2 11                 7418 	.db #0x11
   1BC3 16                 7419 	.db #0x16
   1BC4 0F                 7420 	.db #0x0F
   1BC5 23                 7421 	.db #0x23
   1BC6 23                 7422 	.db #0x23
   1BC7 23                 7423 	.db #0x23
   1BC8 00                 7424 	.db #0x00
   1BC9 12                 7425 	.db #0x12
   1BCA 1D                 7426 	.db #0x1D
   1BCB 1B                 7427 	.db #0x1B
   1BCC 1C                 7428 	.db #0x1C
   1BCD 00                 7429 	.db #0x00
   1BCE 0F                 7430 	.db #0x0F
   1BCF 11                 7431 	.db #0x11
   1BD0 1E                 7432 	.db #0x1E
   1BD1 0D                 7433 	.db #0x0D
   1BD2 00                 7434 	.db #0x00
   1BD3 00                 7435 	.db #0x00
   1BD4 11                 7436 	.db #0x11
   1BD5 1C                 7437 	.db #0x1C
   1BD6 00                 7438 	.db #0x00
   1BD7 1D                 7439 	.db #0x1D
   1BD8 18                 7440 	.db #0x18
   1BD9 00                 7441 	.db #0x00
   1BDA 09                 7442 	.db #0x09
   1BDB 16                 7443 	.db #0x16
   1BDC 0C                 7444 	.db #0x0C
   1BDD 00                 7445 	.db #0x00
   1BDE 00                 7446 	.db #0x00
   1BDF 1A                 7447 	.db #0x1A
   1BE0 0D                 7448 	.db #0x0D
   1BE1 1B                 7449 	.db #0x1B
   1BE2 11                 7450 	.db #0x11
   1BE3 0F                 7451 	.db #0x0F
   1BE4 16                 7452 	.db #0x16
   1BE5 00                 7453 	.db #0x00
   1BE6 00                 7454 	.db #0x00
   1BE7 00                 7455 	.db #0x00
   1BE8 00                 7456 	.db #0x00
   1BE9 00                 7457 	.db #0x00
   1BEA 09                 7458 	.db #0x09
   1BEB 14                 7459 	.db #0x14
   1BEC 1A                 7460 	.db #0x1A
   1BED 0D                 7461 	.db #0x0D
   1BEE 09                 7462 	.db #0x09
   1BEF 0C                 7463 	.db #0x0C
   1BF0 21                 7464 	.db #0x21
   1BF1 00                 7465 	.db #0x00
   1BF2 21                 7466 	.db #0x21
   1BF3 17                 7467 	.db #0x17
   1BF4 1D                 7468 	.db #0x1D
   1BF5 0C                 7469 	.db #0x0C
   1BF6 1D                 7470 	.db #0x1D
   1BF7 15                 7471 	.db #0x15
   1BF8 0A                 7472 	.db #0x0A
   1BF9 00                 7473 	.db #0x00
   1BFA 0A                 7474 	.db #0x0A
   1BFB 11                 7475 	.db #0x11
   1BFC 1C                 7476 	.db #0x1C
   1BFD 0B                 7477 	.db #0x0B
   1BFE 10                 7478 	.db #0x10
   1BFF 24                 7479 	.db #0x24
   1C00                    7480 _conversation13:
   1C00 10                 7481 	.db #0x10
   1C01 17                 7482 	.db #0x17
   1C02 1F                 7483 	.db #0x1F
   1C03 00                 7484 	.db #0x00
   1C04 0C                 7485 	.db #0x0C
   1C05 09                 7486 	.db #0x09
   1C06 1A                 7487 	.db #0x1A
   1C07 0D                 7488 	.db #0x0D
   1C08 00                 7489 	.db #0x00
   1C09 09                 7490 	.db #0x09
   1C0A 00                 7491 	.db #0x00
   1C0B 0C                 7492 	.db #0x0C
   1C0C 09                 7493 	.db #0x09
   1C0D 1D                 7494 	.db #0x1D
   1C0E 0F                 7495 	.db #0x0F
   1C0F 10                 7496 	.db #0x10
   1C10 1C                 7497 	.db #0x1C
   1C11 0D                 7498 	.db #0x0D
   1C12 1A                 7499 	.db #0x1A
   1C13 00                 7500 	.db #0x00
   1C14 17                 7501 	.db #0x17
   1C15 0E                 7502 	.db #0x0E
   1C16 15                 7503 	.db #0x15
   1C17 11                 7504 	.db #0x11
   1C18 16                 7505 	.db #0x16
   1C19 0D                 7506 	.db #0x0D
   1C1A 00                 7507 	.db #0x00
   1C1B 1B                 7508 	.db #0x1B
   1C1C 18                 7509 	.db #0x18
   1C1D 0D                 7510 	.db #0x0D
   1C1E 09                 7511 	.db #0x09
   1C1F 13                 7512 	.db #0x13
   1C20 00                 7513 	.db #0x00
   1C21 1F                 7514 	.db #0x1F
   1C22 11                 7515 	.db #0x11
   1C23 1C                 7516 	.db #0x1C
   1C24 10                 7517 	.db #0x10
   1C25 00                 7518 	.db #0x00
   1C26 1B                 7519 	.db #0x1B
   1C27 1D                 7520 	.db #0x1D
   1C28 0B                 7521 	.db #0x0B
   1C29 10                 7522 	.db #0x10
   1C2A 00                 7523 	.db #0x00
   1C2B 00                 7524 	.db #0x00
   1C2C 1E                 7525 	.db #0x1E
   1C2D 0D                 7526 	.db #0x0D
   1C2E 16                 7527 	.db #0x16
   1C2F 17                 7528 	.db #0x17
   1C30 15                 7529 	.db #0x15
   1C31 24                 7530 	.db #0x24
   1C32 00                 7531 	.db #0x00
   1C33 21                 7532 	.db #0x21
   1C34 17                 7533 	.db #0x17
   1C35 1D                 7534 	.db #0x1D
   1C36 1A                 7535 	.db #0x1A
   1C37 18                 7536 	.db #0x18
   1C38 1D                 7537 	.db #0x1D
   1C39 16                 7538 	.db #0x16
   1C3A 11                 7539 	.db #0x11
   1C3B 1B                 7540 	.db #0x1B
   1C3C 10                 7541 	.db #0x10
   1C3D 15                 7542 	.db #0x15
   1C3E 0D                 7543 	.db #0x0D
   1C3F 16                 7544 	.db #0x16
   1C40 1C                 7545 	.db #0x1C
   1C41 00                 7546 	.db #0x00
   1C42 11                 7547 	.db #0x11
   1C43 1B                 7548 	.db #0x1B
   1C44 00                 7549 	.db #0x00
   1C45 17                 7550 	.db #0x17
   1C46 1E                 7551 	.db #0x1E
   1C47 0D                 7552 	.db #0x0D
   1C48 1A                 7553 	.db #0x1A
   1C49 0C                 7554 	.db #0x0C
   1C4A 1D                 7555 	.db #0x1D
   1C4B 0D                 7556 	.db #0x0D
   1C4C 24                 7557 	.db #0x24
   1C4D                    7558 _conversation14:
   1C4D 21                 7559 	.db #0x21
   1C4E 0D                 7560 	.db #0x0D
   1C4F 09                 7561 	.db #0x09
   1C50 10                 7562 	.db #0x10
   1C51 00                 7563 	.db #0x00
   1C52 21                 7564 	.db #0x21
   1C53 0D                 7565 	.db #0x0D
   1C54 09                 7566 	.db #0x09
   1C55 10                 7567 	.db #0x10
   1C56 00                 7568 	.db #0x00
   1C57 00                 7569 	.db #0x00
   1C58 1F                 7570 	.db #0x1F
   1C59 10                 7571 	.db #0x10
   1C5A 09                 7572 	.db #0x09
   1C5B 1C                 7573 	.db #0x1C
   1C5C 0D                 7574 	.db #0x0D
   1C5D 1E                 7575 	.db #0x1E
   1C5E 0D                 7576 	.db #0x0D
   1C5F 1A                 7577 	.db #0x1A
   1C60 24                 7578 	.db #0x24
   1C61 00                 7579 	.db #0x00
   1C62 00                 7580 	.db #0x00
   1C63 12                 7581 	.db #0x12
   1C64 1D                 7582 	.db #0x1D
   1C65 1B                 7583 	.db #0x1B
   1C66 1C                 7584 	.db #0x1C
   1C67 00                 7585 	.db #0x00
   1C68 1B                 7586 	.db #0x1B
   1C69 0D                 7587 	.db #0x0D
   1C6A 16                 7588 	.db #0x16
   1C6B 0C                 7589 	.db #0x0C
   1C6C 00                 7590 	.db #0x00
   1C6D 00                 7591 	.db #0x00
   1C6E 15                 7592 	.db #0x15
   1C6F 0D                 7593 	.db #0x0D
   1C70 00                 7594 	.db #0x00
   1C71 1C                 7595 	.db #0x1C
   1C72 17                 7596 	.db #0x17
   1C73 00                 7597 	.db #0x00
   1C74 15                 7598 	.db #0x15
   1C75 21                 7599 	.db #0x21
   1C76 00                 7600 	.db #0x00
   1C77 00                 7601 	.db #0x00
   1C78 00                 7602 	.db #0x00
   1C79 19                 7603 	.db #0x19
   1C7A 1D                 7604 	.db #0x1D
   1C7B 09                 7605 	.db #0x09
   1C7C 1A                 7606 	.db #0x1A
   1C7D 1C                 7607 	.db #0x1C
   1C7E 0D                 7608 	.db #0x0D
   1C7F 1A                 7609 	.db #0x1A
   1C80 1B                 7610 	.db #0x1B
   1C81 00                 7611 	.db #0x00
   1C82 00                 7612 	.db #0x00
   1C83 00                 7613 	.db #0x00
   1C84 21                 7614 	.db #0x21
   1C85 17                 7615 	.db #0x17
   1C86 1D                 7616 	.db #0x1D
   1C87 00                 7617 	.db #0x00
   1C88 17                 7618 	.db #0x17
   1C89 14                 7619 	.db #0x14
   1C8A 0C                 7620 	.db #0x0C
   1C8B 00                 7621 	.db #0x00
   1C8C 10                 7622 	.db #0x10
   1C8D 09                 7623 	.db #0x09
   1C8E 0F                 7624 	.db #0x0F
   1C8F 20                 7625 	.db #0x20
   1C90 0C                 7626 	.db #0x0C
   1C91 00                 7627 	.db #0x00
   1C92 10                 7628 	.db #0x10
   1C93 09                 7629 	.db #0x09
   1C94 10                 7630 	.db #0x10
   1C95 09                 7631 	.db #0x09
   1C96 10                 7632 	.db #0x10
   1C97 09                 7633 	.db #0x09
   1C98 24                 7634 	.db #0x24
   1C99 00                 7635 	.db #0x00
   1C9A                    7636 _conversation15:
   1C9A 0F                 7637 	.db #0x0F
   1C9B 1D                 7638 	.db #0x1D
   1C9C 09                 7639 	.db #0x09
   1C9D 1A                 7640 	.db #0x1A
   1C9E 0C                 7641 	.db #0x0C
   1C9F 1B                 7642 	.db #0x1B
   1CA0 24                 7643 	.db #0x24
   1CA1 24                 7644 	.db #0x24
   1CA2 24                 7645 	.db #0x24
   1CA3 00                 7646 	.db #0x00
   1CA4 00                 7647 	.db #0x00
   1CA5 00                 7648 	.db #0x00
   1CA6 00                 7649 	.db #0x00
   1CA7 00                 7650 	.db #0x00
   1CA8 00                 7651 	.db #0x00
   1CA9 00                 7652 	.db #0x00
   1CAA 00                 7653 	.db #0x00
   1CAB 00                 7654 	.db #0x00
   1CAC 00                 7655 	.db #0x00
   1CAD 00                 7656 	.db #0x00
   1CAE 00                 7657 	.db #0x00
   1CAF 00                 7658 	.db #0x00
   1CB0 1B                 7659 	.db #0x1B
   1CB1 0D                 7660 	.db #0x0D
   1CB2 16                 7661 	.db #0x16
   1CB3 0C                 7662 	.db #0x0C
   1CB4 00                 7663 	.db #0x00
   1CB5 1C                 7664 	.db #0x1C
   1CB6 10                 7665 	.db #0x10
   1CB7 11                 7666 	.db #0x11
   1CB8 1B                 7667 	.db #0x1B
   1CB9 00                 7668 	.db #0x00
   1CBA 00                 7669 	.db #0x00
   1CBB 0E                 7670 	.db #0x0E
   1CBC 17                 7671 	.db #0x17
   1CBD 17                 7672 	.db #0x17
   1CBE 14                 7673 	.db #0x14
   1CBF 10                 7674 	.db #0x10
   1CC0 09                 7675 	.db #0x09
   1CC1 1A                 7676 	.db #0x1A
   1CC2 0C                 7677 	.db #0x0C
   1CC3 21                 7678 	.db #0x21
   1CC4 00                 7679 	.db #0x00
   1CC5 00                 7680 	.db #0x00
   1CC6 1F                 7681 	.db #0x1F
   1CC7 0D                 7682 	.db #0x0D
   1CC8 16                 7683 	.db #0x16
   1CC9 0B                 7684 	.db #0x0B
   1CCA 10                 7685 	.db #0x10
   1CCB 00                 7686 	.db #0x00
   1CCC 11                 7687 	.db #0x11
   1CCD 16                 7688 	.db #0x16
   1CCE 1C                 7689 	.db #0x1C
   1CCF 17                 7690 	.db #0x17
   1CD0 00                 7691 	.db #0x00
   1CD1 00                 7692 	.db #0x00
   1CD2 00                 7693 	.db #0x00
   1CD3 00                 7694 	.db #0x00
   1CD4 00                 7695 	.db #0x00
   1CD5 00                 7696 	.db #0x00
   1CD6 00                 7697 	.db #0x00
   1CD7 00                 7698 	.db #0x00
   1CD8 00                 7699 	.db #0x00
   1CD9 00                 7700 	.db #0x00
   1CDA 00                 7701 	.db #0x00
   1CDB 00                 7702 	.db #0x00
   1CDC 1C                 7703 	.db #0x1C
   1CDD 10                 7704 	.db #0x10
   1CDE 0D                 7705 	.db #0x0D
   1CDF 00                 7706 	.db #0x00
   1CE0 0C                 7707 	.db #0x0C
   1CE1 1D                 7708 	.db #0x1D
   1CE2 16                 7709 	.db #0x16
   1CE3 0F                 7710 	.db #0x0F
   1CE4 0D                 7711 	.db #0x0D
   1CE5 17                 7712 	.db #0x17
   1CE6 16                 7713 	.db #0x16
   1CE7                    7714 _conversation21:
   1CE7 11                 7715 	.db #0x11
   1CE8 00                 7716 	.db #0x00
   1CE9 1C                 7717 	.db #0x1C
   1CEA 1A                 7718 	.db #0x1A
   1CEB 1D                 7719 	.db #0x1D
   1CEC 1B                 7720 	.db #0x1B
   1CED 1C                 7721 	.db #0x1C
   1CEE 00                 7722 	.db #0x00
   1CEF 21                 7723 	.db #0x21
   1CF0 17                 7724 	.db #0x17
   1CF1 1D                 7725 	.db #0x1D
   1CF2 10                 7726 	.db #0x10
   1CF3 09                 7727 	.db #0x09
   1CF4 1E                 7728 	.db #0x1E
   1CF5 0D                 7729 	.db #0x0D
   1CF6 00                 7730 	.db #0x00
   1CF7 14                 7731 	.db #0x14
   1CF8 0D                 7732 	.db #0x0D
   1CF9 09                 7733 	.db #0x09
   1CFA 1A                 7734 	.db #0x1A
   1CFB 16                 7735 	.db #0x16
   1CFC 1C                 7736 	.db #0x1C
   1CFD 21                 7737 	.db #0x21
   1CFE 17                 7738 	.db #0x17
   1CFF 1D                 7739 	.db #0x1D
   1D00 1A                 7740 	.db #0x1A
   1D01 00                 7741 	.db #0x00
   1D02 14                 7742 	.db #0x14
   1D03 0D                 7743 	.db #0x0D
   1D04 1B                 7744 	.db #0x1B
   1D05 1B                 7745 	.db #0x1B
   1D06 17                 7746 	.db #0x17
   1D07 16                 7747 	.db #0x16
   1D08 16                 7748 	.db #0x16
   1D09 17                 7749 	.db #0x17
   1D0A 1F                 7750 	.db #0x1F
   1D0B 00                 7751 	.db #0x00
   1D0C 0B                 7752 	.db #0x0B
   1D0D 10                 7753 	.db #0x10
   1D0E 11                 7754 	.db #0x11
   1D0F 14                 7755 	.db #0x14
   1D10 0C                 7756 	.db #0x0C
   1D11 23                 7757 	.db #0x23
   1D12 00                 7758 	.db #0x00
   1D13 14                 7759 	.db #0x14
   1D14 0D                 7760 	.db #0x0D
   1D15 09                 7761 	.db #0x09
   1D16 1E                 7762 	.db #0x1E
   1D17 0D                 7763 	.db #0x0D
   1D18 00                 7764 	.db #0x00
   1D19 00                 7765 	.db #0x00
   1D1A 00                 7766 	.db #0x00
   1D1B 00                 7767 	.db #0x00
   1D1C 00                 7768 	.db #0x00
   1D1D 00                 7769 	.db #0x00
   1D1E 1A                 7770 	.db #0x1A
   1D1F 1D                 7771 	.db #0x1D
   1D20 14                 7772 	.db #0x14
   1D21 0D                 7773 	.db #0x0D
   1D22 1A                 7774 	.db #0x1A
   1D23 1B                 7775 	.db #0x1B
   1D24 10                 7776 	.db #0x10
   1D25 11                 7777 	.db #0x11
   1D26 18                 7778 	.db #0x18
   1D27 00                 7779 	.db #0x00
   1D28 00                 7780 	.db #0x00
   1D29 1C                 7781 	.db #0x1C
   1D2A 17                 7782 	.db #0x17
   1D2B 00                 7783 	.db #0x00
   1D2C 15                 7784 	.db #0x15
   1D2D 0D                 7785 	.db #0x0D
   1D2E 24                 7786 	.db #0x24
   1D2F 00                 7787 	.db #0x00
   1D30 00                 7788 	.db #0x00
   1D31 00                 7789 	.db #0x00
   1D32 00                 7790 	.db #0x00
   1D33 00                 7791 	.db #0x00
   1D34                    7792 _conversation22:
   1D34 17                 7793 	.db #0x17
   1D35 10                 7794 	.db #0x10
   1D36 00                 7795 	.db #0x00
   1D37 16                 7796 	.db #0x16
   1D38 17                 7797 	.db #0x17
   1D39 24                 7798 	.db #0x24
   1D3A 00                 7799 	.db #0x00
   1D3B 00                 7800 	.db #0x00
   1D3C 00                 7801 	.db #0x00
   1D3D 00                 7802 	.db #0x00
   1D3E 00                 7803 	.db #0x00
   1D3F 1B                 7804 	.db #0x1B
   1D40 14                 7805 	.db #0x14
   1D41 11                 7806 	.db #0x11
   1D42 15                 7807 	.db #0x15
   1D43 0D                 7808 	.db #0x0D
   1D44 1B                 7809 	.db #0x1B
   1D45 00                 7810 	.db #0x00
   1D46 09                 7811 	.db #0x09
   1D47 16                 7812 	.db #0x16
   1D48 0C                 7813 	.db #0x0C
   1D49 00                 7814 	.db #0x00
   1D4A 1B                 7815 	.db #0x1B
   1D4B 16                 7816 	.db #0x16
   1D4C 09                 7817 	.db #0x09
   1D4D 13                 7818 	.db #0x13
   1D4E 0D                 7819 	.db #0x0D
   1D4F 1B                 7820 	.db #0x1B
   1D50 23                 7821 	.db #0x23
   1D51 23                 7822 	.db #0x23
   1D52 23                 7823 	.db #0x23
   1D53 00                 7824 	.db #0x00
   1D54 00                 7825 	.db #0x00
   1D55 18                 7826 	.db #0x18
   1D56 0D                 7827 	.db #0x0D
   1D57 10                 7828 	.db #0x10
   1D58 00                 7829 	.db #0x00
   1D59 1C                 7830 	.db #0x1C
   1D5A 10                 7831 	.db #0x10
   1D5B 09                 7832 	.db #0x09
   1D5C 1C                 7833 	.db #0x1C
   1D5D 00                 7834 	.db #0x00
   1D5E 00                 7835 	.db #0x00
   1D5F 00                 7836 	.db #0x00
   1D60 0C                 7837 	.db #0x0C
   1D61 11                 7838 	.db #0x11
   1D62 0C                 7839 	.db #0x0C
   1D63 16                 7840 	.db #0x16
   1D64 1C                 7841 	.db #0x1C
   1D65 00                 7842 	.db #0x00
   1D66 1B                 7843 	.db #0x1B
   1D67 1C                 7844 	.db #0x1C
   1D68 17                 7845 	.db #0x17
   1D69 18                 7846 	.db #0x18
   1D6A 00                 7847 	.db #0x00
   1D6B 15                 7848 	.db #0x15
   1D6C 0D                 7849 	.db #0x0D
   1D6D 23                 7850 	.db #0x23
   1D6E 00                 7851 	.db #0x00
   1D6F 21                 7852 	.db #0x21
   1D70 17                 7853 	.db #0x17
   1D71 1D                 7854 	.db #0x1D
   1D72 1A                 7855 	.db #0x1A
   1D73 00                 7856 	.db #0x00
   1D74 0B                 7857 	.db #0x0B
   1D75 1A                 7858 	.db #0x1A
   1D76 17                 7859 	.db #0x17
   1D77 1F                 7860 	.db #0x1F
   1D78 16                 7861 	.db #0x16
   1D79 00                 7862 	.db #0x00
   1D7A 11                 7863 	.db #0x11
   1D7B 1B                 7864 	.db #0x1B
   1D7C 00                 7865 	.db #0x00
   1D7D 15                 7866 	.db #0x15
   1D7E 11                 7867 	.db #0x11
   1D7F 16                 7868 	.db #0x16
   1D80 0D                 7869 	.db #0x0D
   1D81                    7870 _conversation23:
   1D81 1E                 7871 	.db #0x1E
   1D82 0D                 7872 	.db #0x0D
   1D83 1A                 7873 	.db #0x1A
   1D84 21                 7874 	.db #0x21
   1D85 00                 7875 	.db #0x00
   1D86 1F                 7876 	.db #0x1F
   1D87 0D                 7877 	.db #0x0D
   1D88 14                 7878 	.db #0x14
   1D89 14                 7879 	.db #0x14
   1D8A 23                 7880 	.db #0x23
   1D8B 00                 7881 	.db #0x00
   1D8C 00                 7882 	.db #0x00
   1D8D 18                 7883 	.db #0x18
   1D8E 0D                 7884 	.db #0x0D
   1D8F 1A                 7885 	.db #0x1A
   1D90 10                 7886 	.db #0x10
   1D91 09                 7887 	.db #0x09
   1D92 18                 7888 	.db #0x18
   1D93 1B                 7889 	.db #0x1B
   1D94 00                 7890 	.db #0x00
   1D95 00                 7891 	.db #0x00
   1D96 00                 7892 	.db #0x00
   1D97 1B                 7893 	.db #0x1B
   1D98 17                 7894 	.db #0x17
   1D99 15                 7895 	.db #0x15
   1D9A 0D                 7896 	.db #0x0D
   1D9B 1C                 7897 	.db #0x1C
   1D9C 10                 7898 	.db #0x10
   1D9D 11                 7899 	.db #0x11
   1D9E 16                 7900 	.db #0x16
   1D9F 0F                 7901 	.db #0x0F
   1DA0 00                 7902 	.db #0x00
   1DA1 00                 7903 	.db #0x00
   1DA2 1C                 7904 	.db #0x1C
   1DA3 17                 7905 	.db #0x17
   1DA4 1D                 7906 	.db #0x1D
   1DA5 0F                 7907 	.db #0x0F
   1DA6 10                 7908 	.db #0x10
   1DA7 0D                 7909 	.db #0x0D
   1DA8 1A                 7910 	.db #0x1A
   1DA9 00                 7911 	.db #0x00
   1DAA 11                 7912 	.db #0x11
   1DAB 1B                 7913 	.db #0x1B
   1DAC 00                 7914 	.db #0x00
   1DAD 1A                 7915 	.db #0x1A
   1DAE 0D                 7916 	.db #0x0D
   1DAF 19                 7917 	.db #0x19
   1DB0 1D                 7918 	.db #0x1D
   1DB1 11                 7919 	.db #0x11
   1DB2 1A                 7920 	.db #0x1A
   1DB3 0D                 7921 	.db #0x0D
   1DB4 0C                 7922 	.db #0x0C
   1DB5 24                 7923 	.db #0x24
   1DB6 00                 7924 	.db #0x00
   1DB7 00                 7925 	.db #0x00
   1DB8 00                 7926 	.db #0x00
   1DB9 00                 7927 	.db #0x00
   1DBA 00                 7928 	.db #0x00
   1DBB 0F                 7929 	.db #0x0F
   1DBC 17                 7930 	.db #0x17
   1DBD 17                 7931 	.db #0x17
   1DBE 0C                 7932 	.db #0x0C
   1DBF 00                 7933 	.db #0x00
   1DC0 00                 7934 	.db #0x00
   1DC1 00                 7935 	.db #0x00
   1DC2 00                 7936 	.db #0x00
   1DC3 00                 7937 	.db #0x00
   1DC4 1A                 7938 	.db #0x1A
   1DC5 11                 7939 	.db #0x11
   1DC6 0C                 7940 	.db #0x0C
   1DC7 0C                 7941 	.db #0x0C
   1DC8 09                 7942 	.db #0x09
   1DC9 16                 7943 	.db #0x16
   1DCA 0B                 7944 	.db #0x0B
   1DCB 0D                 7945 	.db #0x0D
   1DCC 24                 7946 	.db #0x24
   1DCD 00                 7947 	.db #0x00
   1DCE                    7948 _conversation31:
   1DCE 0D                 7949 	.db #0x0D
   1DCF 16                 7950 	.db #0x16
   1DD0 17                 7951 	.db #0x17
   1DD1 1D                 7952 	.db #0x1D
   1DD2 0F                 7953 	.db #0x0F
   1DD3 10                 7954 	.db #0x10
   1DD4 24                 7955 	.db #0x24
   1DD5 00                 7956 	.db #0x00
   1DD6 11                 7957 	.db #0x11
   1DD7 0E                 7958 	.db #0x0E
   1DD8 00                 7959 	.db #0x00
   1DD9 11                 7960 	.db #0x11
   1DDA 1C                 7961 	.db #0x1C
   1DDB 00                 7962 	.db #0x00
   1DDC 1C                 7963 	.db #0x1C
   1DDD 1A                 7964 	.db #0x1A
   1DDE 1D                 7965 	.db #0x1D
   1DDF 14                 7966 	.db #0x14
   1DE0 21                 7967 	.db #0x21
   1DE1 00                 7968 	.db #0x00
   1DE2 11                 7969 	.db #0x11
   1DE3 1B                 7970 	.db #0x1B
   1DE4 0A                 7971 	.db #0x0A
   1DE5 09                 7972 	.db #0x09
   1DE6 1C                 7973 	.db #0x1C
   1DE7 1C                 7974 	.db #0x1C
   1DE8 14                 7975 	.db #0x14
   1DE9 0D                 7976 	.db #0x0D
   1DEA 00                 7977 	.db #0x00
   1DEB 21                 7978 	.db #0x21
   1DEC 17                 7979 	.db #0x17
   1DED 1D                 7980 	.db #0x1D
   1DEE 00                 7981 	.db #0x00
   1DEF 1B                 7982 	.db #0x1B
   1DF0 0D                 7983 	.db #0x0D
   1DF1 0D                 7984 	.db #0x0D
   1DF2 13                 7985 	.db #0x13
   1DF3 00                 7986 	.db #0x00
   1DF4 0B                 7987 	.db #0x0B
   1DF5 17                 7988 	.db #0x17
   1DF6 15                 7989 	.db #0x15
   1DF7 0D                 7990 	.db #0x0D
   1DF8 00                 7991 	.db #0x00
   1DF9 00                 7992 	.db #0x00
   1DFA 0E                 7993 	.db #0x0E
   1DFB 17                 7994 	.db #0x17
   1DFC 1A                 7995 	.db #0x1A
   1DFD 1C                 7996 	.db #0x1C
   1DFE 10                 7997 	.db #0x10
   1DFF 00                 7998 	.db #0x00
   1E00 1C                 7999 	.db #0x1C
   1E01 17                 8000 	.db #0x17
   1E02 00                 8001 	.db #0x00
   1E03 00                 8002 	.db #0x00
   1E04 00                 8003 	.db #0x00
   1E05 1C                 8004 	.db #0x1C
   1E06 10                 8005 	.db #0x10
   1E07 0D                 8006 	.db #0x0D
   1E08 00                 8007 	.db #0x00
   1E09 0B                 8008 	.db #0x0B
   1E0A 10                 8009 	.db #0x10
   1E0B 09                 8010 	.db #0x09
   1E0C 15                 8011 	.db #0x15
   1E0D 0A                 8012 	.db #0x0A
   1E0E 0D                 8013 	.db #0x0D
   1E0F 1A                 8014 	.db #0x1A
   1E10 11                 8015 	.db #0x11
   1E11 15                 8016 	.db #0x15
   1E12 15                 8017 	.db #0x15
   1E13 0D                 8018 	.db #0x0D
   1E14 0C                 8019 	.db #0x0C
   1E15 11                 8020 	.db #0x11
   1E16 09                 8021 	.db #0x09
   1E17 1C                 8022 	.db #0x1C
   1E18 0D                 8023 	.db #0x0D
   1E19 14                 8024 	.db #0x14
   1E1A 21                 8025 	.db #0x21
   1E1B                    8026 _conversation32:
   1E1B 00                 8027 	.db #0x00
   1E1C 00                 8028 	.db #0x00
   1E1D 00                 8029 	.db #0x00
   1E1E 00                 8030 	.db #0x00
   1E1F 00                 8031 	.db #0x00
   1E20 00                 8032 	.db #0x00
   1E21 00                 8033 	.db #0x00
   1E22 00                 8034 	.db #0x00
   1E23 00                 8035 	.db #0x00
   1E24 00                 8036 	.db #0x00
   1E25 00                 8037 	.db #0x00
   1E26 00                 8038 	.db #0x00
   1E27 0E                 8039 	.db #0x0E
   1E28 11                 8040 	.db #0x11
   1E29 16                 8041 	.db #0x16
   1E2A 09                 8042 	.db #0x09
   1E2B 14                 8043 	.db #0x14
   1E2C 14                 8044 	.db #0x14
   1E2D 21                 8045 	.db #0x21
   1E2E 24                 8046 	.db #0x24
   1E2F 00                 8047 	.db #0x00
   1E30 00                 8048 	.db #0x00
   1E31 00                 8049 	.db #0x00
   1E32 00                 8050 	.db #0x00
   1E33 00                 8051 	.db #0x00
   1E34 00                 8052 	.db #0x00
   1E35 00                 8053 	.db #0x00
   1E36 00                 8054 	.db #0x00
   1E37 00                 8055 	.db #0x00
   1E38 00                 8056 	.db #0x00
   1E39 00                 8057 	.db #0x00
   1E3A 00                 8058 	.db #0x00
   1E3B 00                 8059 	.db #0x00
   1E3C 00                 8060 	.db #0x00
   1E3D 18                 8061 	.db #0x18
   1E3E 1A                 8062 	.db #0x1A
   1E3F 0D                 8063 	.db #0x0D
   1E40 18                 8064 	.db #0x18
   1E41 09                 8065 	.db #0x09
   1E42 1A                 8066 	.db #0x1A
   1E43 0D                 8067 	.db #0x0D
   1E44 00                 8068 	.db #0x00
   1E45 00                 8069 	.db #0x00
   1E46 00                 8070 	.db #0x00
   1E47 00                 8071 	.db #0x00
   1E48 21                 8072 	.db #0x21
   1E49 17                 8073 	.db #0x17
   1E4A 1D                 8074 	.db #0x1D
   1E4B 1A                 8075 	.db #0x1A
   1E4C 1B                 8076 	.db #0x1B
   1E4D 0D                 8077 	.db #0x0D
   1E4E 14                 8078 	.db #0x14
   1E4F 0E                 8079 	.db #0x0E
   1E50 00                 8080 	.db #0x00
   1E51 00                 8081 	.db #0x00
   1E52 00                 8082 	.db #0x00
   1E53 19                 8083 	.db #0x19
   1E54 1D                 8084 	.db #0x1D
   1E55 0D                 8085 	.db #0x0D
   1E56 0D                 8086 	.db #0x0D
   1E57 16                 8087 	.db #0x16
   1E58 11                 8088 	.db #0x11
   1E59 0D                 8089 	.db #0x0D
   1E5A 24                 8090 	.db #0x24
   1E5B 00                 8091 	.db #0x00
   1E5C 00                 8092 	.db #0x00
   1E5D 00                 8093 	.db #0x00
   1E5E 00                 8094 	.db #0x00
   1E5F 00                 8095 	.db #0x00
   1E60 00                 8096 	.db #0x00
   1E61 00                 8097 	.db #0x00
   1E62 00                 8098 	.db #0x00
   1E63 00                 8099 	.db #0x00
   1E64 00                 8100 	.db #0x00
   1E65 00                 8101 	.db #0x00
   1E66 00                 8102 	.db #0x00
   1E67 00                 8103 	.db #0x00
   1E68                    8104 _conversation33:
   1E68 00                 8105 	.db #0x00
   1E69 00                 8106 	.db #0x00
   1E6A 00                 8107 	.db #0x00
   1E6B 00                 8108 	.db #0x00
   1E6C 00                 8109 	.db #0x00
   1E6D 00                 8110 	.db #0x00
   1E6E 00                 8111 	.db #0x00
   1E6F 00                 8112 	.db #0x00
   1E70 00                 8113 	.db #0x00
   1E71 00                 8114 	.db #0x00
   1E72 00                 8115 	.db #0x00
   1E73 1B                 8116 	.db #0x1B
   1E74 11                 8117 	.db #0x11
   1E75 0F                 8118 	.db #0x0F
   1E76 10                 8119 	.db #0x10
   1E77 23                 8120 	.db #0x23
   1E78 23                 8121 	.db #0x23
   1E79 23                 8122 	.db #0x23
   1E7A 23                 8123 	.db #0x23
   1E7B 23                 8124 	.db #0x23
   1E7C 00                 8125 	.db #0x00
   1E7D 00                 8126 	.db #0x00
   1E7E 00                 8127 	.db #0x00
   1E7F 00                 8128 	.db #0x00
   1E80 00                 8129 	.db #0x00
   1E81 00                 8130 	.db #0x00
   1E82 00                 8131 	.db #0x00
   1E83 00                 8132 	.db #0x00
   1E84 00                 8133 	.db #0x00
   1E85 00                 8134 	.db #0x00
   1E86 00                 8135 	.db #0x00
   1E87 00                 8136 	.db #0x00
   1E88 00                 8137 	.db #0x00
   1E89 0F                 8138 	.db #0x0F
   1E8A 17                 8139 	.db #0x17
   1E8B 00                 8140 	.db #0x00
   1E8C 09                 8141 	.db #0x09
   1E8D 10                 8142 	.db #0x10
   1E8E 0D                 8143 	.db #0x0D
   1E8F 09                 8144 	.db #0x09
   1E90 0C                 8145 	.db #0x0C
   1E91 00                 8146 	.db #0x00
   1E92 00                 8147 	.db #0x00
   1E93 00                 8148 	.db #0x00
   1E94 1C                 8149 	.db #0x1C
   1E95 09                 8150 	.db #0x09
   1E96 13                 8151 	.db #0x13
   1E97 0D                 8152 	.db #0x0D
   1E98 00                 8153 	.db #0x00
   1E99 1C                 8154 	.db #0x1C
   1E9A 10                 8155 	.db #0x10
   1E9B 0D                 8156 	.db #0x0D
   1E9C 00                 8157 	.db #0x00
   1E9D 00                 8158 	.db #0x00
   1E9E 00                 8159 	.db #0x00
   1E9F 0C                 8160 	.db #0x0C
   1EA0 09                 8161 	.db #0x09
   1EA1 15                 8162 	.db #0x15
   1EA2 16                 8163 	.db #0x16
   1EA3 00                 8164 	.db #0x00
   1EA4 1C                 8165 	.db #0x1C
   1EA5 10                 8166 	.db #0x10
   1EA6 11                 8167 	.db #0x11
   1EA7 16                 8168 	.db #0x16
   1EA8 0F                 8169 	.db #0x0F
   1EA9 24                 8170 	.db #0x24
   1EAA 00                 8171 	.db #0x00
   1EAB 00                 8172 	.db #0x00
   1EAC 00                 8173 	.db #0x00
   1EAD 00                 8174 	.db #0x00
   1EAE 00                 8175 	.db #0x00
   1EAF 00                 8176 	.db #0x00
   1EB0 00                 8177 	.db #0x00
   1EB1 00                 8178 	.db #0x00
   1EB2 00                 8179 	.db #0x00
   1EB3 00                 8180 	.db #0x00
   1EB4 00                 8181 	.db #0x00
   1EB5                    8182 _convScreenPalette:
   1EB5 9E 63              8183 	.byte #0x9E,#0x63
   1EB7 9F 19              8184 	.byte #0x9F,#0x19
   1EB9 8F 00              8185 	.byte #0x8F,#0x00
   1EBB C8 00              8186 	.byte #0xC8,#0x00
   1EBD 9E 63              8187 	.byte #0x9E,#0x63
   1EBF FF 53              8188 	.byte #0xFF,#0x53
   1EC1 8F 00              8189 	.byte #0x8F,#0x00
   1EC3 86 00              8190 	.byte #0x86,#0x00
   1EC5 9E 63              8191 	.byte #0x9E,#0x63
   1EC7 E0 03              8192 	.byte #0xE0,#0x03
   1EC9 8F 00              8193 	.byte #0x8F,#0x00
   1ECB 00 00              8194 	.byte #0x00,#0x00
   1ECD 9E 63              8195 	.byte #0x9E,#0x63
   1ECF 5E 07              8196 	.byte #0x5E,#0x07
   1ED1 B9 02              8197 	.byte #0xB9,#0x02
   1ED3 00 00              8198 	.byte #0x00,#0x00
   1ED5 9E 63              8199 	.byte #0x9E,#0x63
   1ED7 3C 47              8200 	.byte #0x3C,#0x47
   1ED9 0A 28              8201 	.byte #0x0A,#0x28
   1EDB 03 0C              8202 	.byte #0x03,#0x0C
   1EDD 9E 63              8203 	.byte #0x9E,#0x63
   1EDF BF 02              8204 	.byte #0xBF,#0x02
   1EE1 EF 00              8205 	.byte #0xEF,#0x00
   1EE3 85 00              8206 	.byte #0x85,#0x00
   1EE5 9E 63              8207 	.byte #0x9E,#0x63
   1EE7 BF 02              8208 	.byte #0xBF,#0x02
   1EE9 0A 28              8209 	.byte #0x0A,#0x28
   1EEB 85 00              8210 	.byte #0x85,#0x00
   1EED 9E 63              8211 	.byte #0x9E,#0x63
   1EEF FF 53              8212 	.byte #0xFF,#0x53
   1EF1 8F 00              8213 	.byte #0x8F,#0x00
   1EF3 4D 01              8214 	.byte #0x4D,#0x01
ASxxxx Assembler V01.75  (GameBoy Z80-like CPU), page 1.

Symbol Table

    _BCPD_REG                          **** GX
    _BCPS_REG                          **** GX
    _BGP_REG                           **** GX
    _DIV_REG                           **** GX
    _DMA_REG                           **** GX
    _HDMA1_REG                         **** GX
    _HDMA2_REG                         **** GX
    _HDMA3_REG                         **** GX
    _HDMA4_REG                         **** GX
    _HDMA5_REG                         **** GX
    _IE_REG                            **** GX
    _IF_REG                            **** GX
    _KEY1_REG                          **** GX
    _LCDC_REG                          **** GX
    _LYC_REG                           **** GX
    _LY_REG                            **** GX
    _NR10_REG                          **** GX
    _NR11_REG                          **** GX
    _NR12_REG                          **** GX
    _NR13_REG                          **** GX
    _NR14_REG                          **** GX
    _NR21_REG                          **** GX
    _NR22_REG                          **** GX
    _NR23_REG                          **** GX
    _NR24_REG                          **** GX
    _NR30_REG                          **** GX
    _NR31_REG                          **** GX
    _NR32_REG                          **** GX
    _NR33_REG                          **** GX
    _NR34_REG                          **** GX
    _NR41_REG                          **** GX
    _NR42_REG                          **** GX
    _NR43_REG                          **** GX
    _NR44_REG                          **** GX
    _NR50_REG                          **** GX
    _NR51_REG                          **** GX
    _NR52_REG                          **** GX
    _OBP0_REG                          **** GX
    _OBP1_REG                          **** GX
    _OCPD_REG                          **** GX
    _OCPS_REG                          **** GX
    _P1_REG                            **** GX
    _RP_REG                            **** GX
    _SB_REG                            **** GX
    _SCX_REG                           **** GX
    _SCY_REG                           **** GX
    _SC_REG                            **** GX
    _STAT_REG                          **** GX
    _SVBK_REG                          **** GX
    _TAC_REG                           **** GX
    _TIMA_REG                          **** GX
    _TMA_REG                           **** GX
    _VBK_REG                           **** GX
    _WX_REG                            **** GX
    _WY_REG                            **** GX
  8 ___nextConversation_end            095F R
  8 ___nextConversation_start          081E R
  8 ___updateGame_end                  081E R
  8 ___updateGame_start                0000 R
    __cpu                              **** GX
    __divuchar                         **** GX
    __io_in                            **** GX
    __io_out                           **** GX
    __io_status                        **** GX
    __moduchar                         **** GX
    _add_LCD                           **** GX
    _add_TIM                           **** GX
    _add_VBL                           **** GX
  8 _blankRow                          19E7 GR
  8 _borderBottom                      1B3E GR
  8 _borderMid                         1B52 GR
  8 _borderTop                         1B16 GR
    _cgb_compatibility                 **** GX
  8 _colourBorder                      1B2A GR
  8 _colourDiamonds                    19E3 GR
  8 _convScreenPalette                 1EB5 GR
  8 _conversation11                    1B66 GR
  8 _conversation12                    1BB3 GR
  8 _conversation13                    1C00 GR
  8 _conversation14                    1C4D GR
  8 _conversation15                    1C9A GR
  8 _conversation21                    1CE7 GR
  8 _conversation22                    1D34 GR
  8 _conversation23                    1D81 GR
  8 _conversation31                    1DCE GR
  8 _conversation32                    1E1B GR
  8 _conversation33                    1E68 GR
    _conversationID                    **** GX
    _conversationIndex                 **** GX
    _conversationTime                  **** GX
    _cpu_fast                          **** GX
    _cpu_slow                          **** GX
    _currentConversation               **** GX
    _delay                             **** GX
  8 _diamonds                          19DF GR
    _disable_interrupts                **** GX
    _display_off                       **** GX
    _enable_interrupts                 **** GX
    _fadeInBkg                         **** GX
    _fadeInSprites                     **** GX
    _fadeOutBkg                        **** GX
    _fadeOutSprites                    **** GX
    _fullRow                           **** GX
    _get_bkg_tiles                     **** GX
    _get_data                          **** GX
    _get_mode                          **** GX
    _get_sprite_data                   **** GX
    _get_sprite_prop                   **** GX
    _get_sprite_tile                   **** GX
    _get_tiles                         **** GX
    _get_win_tiles                     **** GX
    _hiramcpy                          **** GX
    _i                                 **** GX
    _ii                                **** GX
    _initBank                          **** GX
  8 _intermissionBkgData               09DF GR
    _j                                 **** GX
    _jj                                **** GX
    _joypad                            **** GX
    _k                                 **** GX
    _kk                                **** GX
    _l                                 **** GX
    _lastKeys                          **** GX
    _level                             **** GX
    _ll                                **** GX
    _maxLevel                          **** GX
    _memcpy                            **** GX
    _mode                              **** GX
    _move_bkg                          **** GX
    _move_sprite                       **** GX
    _move_win                          **** GX
    _newBank                           **** GX
  8 _nextConversation                  081E GR
    _pX                                **** GX
    _pY                                **** GX
  8 _princessBaseSprite                1A8E GR
  8 _princessClosedEyes                1AC4 GR
  8 _princessColours                   1AE0 GR
  8 _princessMouthClosed               1AD4 GR
  8 _princessMouthOpen1                1AD8 GR
  8 _princessMouthOpen2                1ADC GR
  8 _princessOpenEyes                  1ACC GR
  8 _queenBaseSprite                   1A06 GR
  8 _queenClosedEyes                   1A3C GR
  8 _queenColours                      1A58 GR
  8 _queenMouthClosed                  1A4C GR
  8 _queenMouthOpen1                   1A50 GR
  8 _queenMouthOpen2                   1A54 GR
  8 _queenOpenEyes                     1A44 GR
    _receive_byte                      **** GX
    _remove_JOY                        **** GX
    _remove_LCD                        **** GX
    _remove_SIO                        **** GX
    _remove_TIM                        **** GX
    _remove_VBL                        **** GX
    _reset                             **** GX
    _reverse                           **** GX
    _scene                             **** GX
    _scroll_bkg                        **** GX
    _scroll_sprite                     **** GX
    _scroll_win                        **** GX
    _send_byte                         **** GX
    _set_bkg_data                      **** GX
    _set_bkg_palette                   **** GX
    _set_bkg_palette_entry             **** GX
    _set_bkg_tiles                     **** GX
    _set_data                          **** GX
    _set_interrupts                    **** GX
    _set_sprite_data                   **** GX
    _set_sprite_palette                **** GX
    _set_sprite_palette_entry          **** GX
    _set_sprite_prop                   **** GX
    _set_sprite_tile                   **** GX
    _set_tiles                         **** GX
    _set_win_data                      **** GX
    _set_win_tiles                     **** GX
    _sgb_check                         **** GX
  8 _skipSprites                       095F GR
    _stopAllSounds                     **** GX
    _strcat                            **** GX
    _strcmp                            **** GX
    _strcpy                            **** GX
    _strlen                            **** GX
    _strncat                           **** GX
    _strncmp                           **** GX
    _strncpy                           **** GX
    _switchRomBanks                    **** GX
    _sys_time                          **** GX
  8 _updateGame                        0000 GR
    _wait_vbl_done                     **** GX
    _waitpad                           **** GX
    _waitpadup                         **** GX

ASxxxx Assembler V01.75  (GameBoy Z80-like CPU), page 2.

Area Table

   0 _CODE                              size    0   flags 0
   1 _DATA_2                            size    0   flags 0
   2 _OVERLAY                           size    0   flags 0
   3 _ISEG                              size    0   flags 0
   4 _BSEG                              size    0   flags 0
   5 _XSEG                              size    0   flags 0
   6 _GSINIT                            size    0   flags 0
   7 _GSFINAL                           size    0   flags 0
   8 _CODE_2                            size 1EF5   flags 0
